
zephyr.elf:     file format elf32-littlearm


Disassembly of section rom_start:

08000000 <_vector_table>:
 8000000:	78 11 00 20 15 0e 00 08 01 44 00 08 01 0e 00 08     x.. .....D......
 8000010:	01 0e 00 08 01 0e 00 08 01 0e 00 08 01 0e 00 08     ................
	...
 800002c:	55 0e 00 08 01 0e 00 08 00 00 00 00 f9 0f 00 08     U...............
 800003c:	f5 24 00 08                                         .$..

08000040 <_irq_vector_table>:
 8000040:	95 10 00 08 95 10 00 08 95 10 00 08 95 10 00 08     ................
 8000050:	95 10 00 08 95 10 00 08 95 10 00 08 95 10 00 08     ................
 8000060:	95 10 00 08 95 10 00 08 95 10 00 08 95 10 00 08     ................
 8000070:	95 10 00 08 95 10 00 08 95 10 00 08 95 10 00 08     ................
 8000080:	95 10 00 08 95 10 00 08 95 10 00 08 95 10 00 08     ................
 8000090:	95 10 00 08 95 10 00 08 95 10 00 08 95 10 00 08     ................
 80000a0:	95 10 00 08 95 10 00 08 95 10 00 08 95 10 00 08     ................
 80000b0:	95 10 00 08 95 10 00 08 95 10 00 08 95 10 00 08     ................
 80000c0:	95 10 00 08 95 10 00 08 95 10 00 08 95 10 00 08     ................
 80000d0:	95 10 00 08 95 10 00 08 95 10 00 08 95 10 00 08     ................
 80000e0:	95 10 00 08 95 10 00 08 95 10 00 08 95 10 00 08     ................
 80000f0:	95 10 00 08 95 10 00 08 95 10 00 08 95 10 00 08     ................
 8000100:	95 10 00 08 95 10 00 08 95 10 00 08 95 10 00 08     ................
 8000110:	95 10 00 08 95 10 00 08 95 10 00 08 95 10 00 08     ................
 8000120:	95 10 00 08 95 10 00 08 95 10 00 08 95 10 00 08     ................
 8000130:	95 10 00 08 95 10 00 08 95 10 00 08 95 10 00 08     ................
 8000140:	95 10 00 08 95 10 00 08 95 10 00 08 95 10 00 08     ................
 8000150:	95 10 00 08 95 10 00 08 95 10 00 08 95 10 00 08     ................
 8000160:	95 10 00 08 95 10 00 08 95 10 00 08 95 10 00 08     ................
 8000170:	95 10 00 08 95 10 00 08 95 10 00 08 95 10 00 08     ................
 8000180:	95 10 00 08 95 10 00 08 95 10 00 08 95 10 00 08     ................
 8000190:	95 10 00 08 95 10 00 08 95 10 00 08 95 10 00 08     ................
 80001a0:	95 10 00 08 95 10 00 08 95 10 00 08 95 10 00 08     ................
 80001b0:	95 10 00 08 95 10 00 08 95 10 00 08 95 10 00 08     ................
 80001c0:	95 10 00 08 95 10 00 08 95 10 00 08 95 10 00 08     ................
 80001d0:	95 10 00 08 95 10 00 08 95 10 00 08 95 10 00 08     ................
 80001e0:	95 10 00 08 95 10 00 08 95 10 00 08 95 10 00 08     ................
 80001f0:	95 10 00 08 95 10 00 08 95 10 00 08 95 10 00 08     ................
 8000200:	95 10 00 08 95 10 00 08 95 10 00 08 95 10 00 08     ................
 8000210:	95 10 00 08 95 10 00 08 95 10 00 08 95 10 00 08     ................
 8000220:	95 10 00 08 95 10 00 08 95 10 00 08 95 10 00 08     ................
 8000230:	95 10 00 08 95 10 00 08 95 10 00 08 95 10 00 08     ................
 8000240:	95 10 00 08                                         ....

Disassembly of section text:

08000244 <__aeabi_memcpy>:
 8000244:	4684      	mov	ip, r0
 8000246:	ea41 0300 	orr.w	r3, r1, r0
 800024a:	f013 0303 	ands.w	r3, r3, #3
 800024e:	d149      	bne.n	80002e4 <__aeabi_memcpy+0xa0>
 8000250:	3a40      	subs	r2, #64	@ 0x40
 8000252:	d323      	bcc.n	800029c <__aeabi_memcpy+0x58>
 8000254:	680b      	ldr	r3, [r1, #0]
 8000256:	6003      	str	r3, [r0, #0]
 8000258:	684b      	ldr	r3, [r1, #4]
 800025a:	6043      	str	r3, [r0, #4]
 800025c:	688b      	ldr	r3, [r1, #8]
 800025e:	6083      	str	r3, [r0, #8]
 8000260:	68cb      	ldr	r3, [r1, #12]
 8000262:	60c3      	str	r3, [r0, #12]
 8000264:	690b      	ldr	r3, [r1, #16]
 8000266:	6103      	str	r3, [r0, #16]
 8000268:	694b      	ldr	r3, [r1, #20]
 800026a:	6143      	str	r3, [r0, #20]
 800026c:	698b      	ldr	r3, [r1, #24]
 800026e:	6183      	str	r3, [r0, #24]
 8000270:	69cb      	ldr	r3, [r1, #28]
 8000272:	61c3      	str	r3, [r0, #28]
 8000274:	6a0b      	ldr	r3, [r1, #32]
 8000276:	6203      	str	r3, [r0, #32]
 8000278:	6a4b      	ldr	r3, [r1, #36]	@ 0x24
 800027a:	6243      	str	r3, [r0, #36]	@ 0x24
 800027c:	6a8b      	ldr	r3, [r1, #40]	@ 0x28
 800027e:	6283      	str	r3, [r0, #40]	@ 0x28
 8000280:	6acb      	ldr	r3, [r1, #44]	@ 0x2c
 8000282:	62c3      	str	r3, [r0, #44]	@ 0x2c
 8000284:	6b0b      	ldr	r3, [r1, #48]	@ 0x30
 8000286:	6303      	str	r3, [r0, #48]	@ 0x30
 8000288:	6b4b      	ldr	r3, [r1, #52]	@ 0x34
 800028a:	6343      	str	r3, [r0, #52]	@ 0x34
 800028c:	6b8b      	ldr	r3, [r1, #56]	@ 0x38
 800028e:	6383      	str	r3, [r0, #56]	@ 0x38
 8000290:	6bcb      	ldr	r3, [r1, #60]	@ 0x3c
 8000292:	63c3      	str	r3, [r0, #60]	@ 0x3c
 8000294:	3040      	adds	r0, #64	@ 0x40
 8000296:	3140      	adds	r1, #64	@ 0x40
 8000298:	3a40      	subs	r2, #64	@ 0x40
 800029a:	d2db      	bcs.n	8000254 <__aeabi_memcpy+0x10>
 800029c:	3230      	adds	r2, #48	@ 0x30
 800029e:	d30b      	bcc.n	80002b8 <__aeabi_memcpy+0x74>
 80002a0:	680b      	ldr	r3, [r1, #0]
 80002a2:	6003      	str	r3, [r0, #0]
 80002a4:	684b      	ldr	r3, [r1, #4]
 80002a6:	6043      	str	r3, [r0, #4]
 80002a8:	688b      	ldr	r3, [r1, #8]
 80002aa:	6083      	str	r3, [r0, #8]
 80002ac:	68cb      	ldr	r3, [r1, #12]
 80002ae:	60c3      	str	r3, [r0, #12]
 80002b0:	3010      	adds	r0, #16
 80002b2:	3110      	adds	r1, #16
 80002b4:	3a10      	subs	r2, #16
 80002b6:	d2f3      	bcs.n	80002a0 <__aeabi_memcpy+0x5c>
 80002b8:	320c      	adds	r2, #12
 80002ba:	d305      	bcc.n	80002c8 <__aeabi_memcpy+0x84>
 80002bc:	f851 3b04 	ldr.w	r3, [r1], #4
 80002c0:	f840 3b04 	str.w	r3, [r0], #4
 80002c4:	3a04      	subs	r2, #4
 80002c6:	d2f9      	bcs.n	80002bc <__aeabi_memcpy+0x78>
 80002c8:	3204      	adds	r2, #4
 80002ca:	d008      	beq.n	80002de <__aeabi_memcpy+0x9a>
 80002cc:	07d2      	lsls	r2, r2, #31
 80002ce:	bf1c      	itt	ne
 80002d0:	f811 3b01 	ldrbne.w	r3, [r1], #1
 80002d4:	f800 3b01 	strbne.w	r3, [r0], #1
 80002d8:	d301      	bcc.n	80002de <__aeabi_memcpy+0x9a>
 80002da:	880b      	ldrh	r3, [r1, #0]
 80002dc:	8003      	strh	r3, [r0, #0]
 80002de:	4660      	mov	r0, ip
 80002e0:	4770      	bx	lr
 80002e2:	bf00      	nop
 80002e4:	2a08      	cmp	r2, #8
 80002e6:	d313      	bcc.n	8000310 <__aeabi_memcpy+0xcc>
 80002e8:	078b      	lsls	r3, r1, #30
 80002ea:	d0b1      	beq.n	8000250 <__aeabi_memcpy+0xc>
 80002ec:	f010 0303 	ands.w	r3, r0, #3
 80002f0:	d0ae      	beq.n	8000250 <__aeabi_memcpy+0xc>
 80002f2:	f1c3 0304 	rsb	r3, r3, #4
 80002f6:	1ad2      	subs	r2, r2, r3
 80002f8:	07db      	lsls	r3, r3, #31
 80002fa:	bf1c      	itt	ne
 80002fc:	f811 3b01 	ldrbne.w	r3, [r1], #1
 8000300:	f800 3b01 	strbne.w	r3, [r0], #1
 8000304:	d3a4      	bcc.n	8000250 <__aeabi_memcpy+0xc>
 8000306:	f831 3b02 	ldrh.w	r3, [r1], #2
 800030a:	f820 3b02 	strh.w	r3, [r0], #2
 800030e:	e79f      	b.n	8000250 <__aeabi_memcpy+0xc>
 8000310:	3a04      	subs	r2, #4
 8000312:	d3d9      	bcc.n	80002c8 <__aeabi_memcpy+0x84>
 8000314:	3a01      	subs	r2, #1
 8000316:	f811 3b01 	ldrb.w	r3, [r1], #1
 800031a:	f800 3b01 	strb.w	r3, [r0], #1
 800031e:	d2f9      	bcs.n	8000314 <__aeabi_memcpy+0xd0>
 8000320:	780b      	ldrb	r3, [r1, #0]
 8000322:	7003      	strb	r3, [r0, #0]
 8000324:	784b      	ldrb	r3, [r1, #1]
 8000326:	7043      	strb	r3, [r0, #1]
 8000328:	788b      	ldrb	r3, [r1, #2]
 800032a:	7083      	strb	r3, [r0, #2]
 800032c:	4660      	mov	r0, ip
 800032e:	4770      	bx	lr

08000330 <__aeabi_uldivmod>:
 8000330:	b953      	cbnz	r3, 8000348 <__aeabi_uldivmod+0x18>
 8000332:	b94a      	cbnz	r2, 8000348 <__aeabi_uldivmod+0x18>
 8000334:	2900      	cmp	r1, #0
 8000336:	bf08      	it	eq
 8000338:	2800      	cmpeq	r0, #0
 800033a:	bf1c      	itt	ne
 800033c:	f04f 31ff 	movne.w	r1, #4294967295
 8000340:	f04f 30ff 	movne.w	r0, #4294967295
 8000344:	f000 b80c 	b.w	8000360 <__aeabi_idiv0>
 8000348:	f1ad 0c08 	sub.w	ip, sp, #8
 800034c:	e96d ce04 	strd	ip, lr, [sp, #-16]!
 8000350:	f000 f808 	bl	8000364 <__udivmoddi4>
 8000354:	f8dd e004 	ldr.w	lr, [sp, #4]
 8000358:	e9dd 2302 	ldrd	r2, r3, [sp, #8]
 800035c:	b004      	add	sp, #16
 800035e:	4770      	bx	lr

08000360 <__aeabi_idiv0>:
 8000360:	4770      	bx	lr
 8000362:	bf00      	nop

08000364 <__udivmoddi4>:
 8000364:	e92d 47f0 	stmdb	sp!, {r4, r5, r6, r7, r8, r9, sl, lr}
 8000368:	468c      	mov	ip, r1
 800036a:	468e      	mov	lr, r1
 800036c:	9e08      	ldr	r6, [sp, #32]
 800036e:	4615      	mov	r5, r2
 8000370:	4604      	mov	r4, r0
 8000372:	4619      	mov	r1, r3
 8000374:	2b00      	cmp	r3, #0
 8000376:	f040 80d0 	bne.w	800051a <__udivmoddi4+0x1b6>
 800037a:	4572      	cmp	r2, lr
 800037c:	d947      	bls.n	800040e <__udivmoddi4+0xaa>
 800037e:	fab2 f782 	clz	r7, r2
 8000382:	b14f      	cbz	r7, 8000398 <__udivmoddi4+0x34>
 8000384:	f1c7 0320 	rsb	r3, r7, #32
 8000388:	fa0e fc07 	lsl.w	ip, lr, r7
 800038c:	40bd      	lsls	r5, r7
 800038e:	40bc      	lsls	r4, r7
 8000390:	fa20 f303 	lsr.w	r3, r0, r3
 8000394:	ea43 0c0c 	orr.w	ip, r3, ip
 8000398:	ea4f 4e15 	mov.w	lr, r5, lsr #16
 800039c:	b2a8      	uxth	r0, r5
 800039e:	0c23      	lsrs	r3, r4, #16
 80003a0:	fbbc f8fe 	udiv	r8, ip, lr
 80003a4:	fb0e cc18 	mls	ip, lr, r8, ip
 80003a8:	fb08 f900 	mul.w	r9, r8, r0
 80003ac:	ea43 430c 	orr.w	r3, r3, ip, lsl #16
 80003b0:	4599      	cmp	r9, r3
 80003b2:	d928      	bls.n	8000406 <__udivmoddi4+0xa2>
 80003b4:	18eb      	adds	r3, r5, r3
 80003b6:	f108 32ff 	add.w	r2, r8, #4294967295
 80003ba:	d204      	bcs.n	80003c6 <__udivmoddi4+0x62>
 80003bc:	4599      	cmp	r9, r3
 80003be:	d902      	bls.n	80003c6 <__udivmoddi4+0x62>
 80003c0:	f1a8 0202 	sub.w	r2, r8, #2
 80003c4:	442b      	add	r3, r5
 80003c6:	eba3 0309 	sub.w	r3, r3, r9
 80003ca:	b2a4      	uxth	r4, r4
 80003cc:	fbb3 fcfe 	udiv	ip, r3, lr
 80003d0:	fb0e 331c 	mls	r3, lr, ip, r3
 80003d4:	fb0c f000 	mul.w	r0, ip, r0
 80003d8:	ea44 4403 	orr.w	r4, r4, r3, lsl #16
 80003dc:	42a0      	cmp	r0, r4
 80003de:	d914      	bls.n	800040a <__udivmoddi4+0xa6>
 80003e0:	192c      	adds	r4, r5, r4
 80003e2:	f10c 33ff 	add.w	r3, ip, #4294967295
 80003e6:	d204      	bcs.n	80003f2 <__udivmoddi4+0x8e>
 80003e8:	42a0      	cmp	r0, r4
 80003ea:	d902      	bls.n	80003f2 <__udivmoddi4+0x8e>
 80003ec:	f1ac 0302 	sub.w	r3, ip, #2
 80003f0:	442c      	add	r4, r5
 80003f2:	1a24      	subs	r4, r4, r0
 80003f4:	ea43 4002 	orr.w	r0, r3, r2, lsl #16
 80003f8:	b11e      	cbz	r6, 8000402 <__udivmoddi4+0x9e>
 80003fa:	40fc      	lsrs	r4, r7
 80003fc:	2300      	movs	r3, #0
 80003fe:	6034      	str	r4, [r6, #0]
 8000400:	6073      	str	r3, [r6, #4]
 8000402:	e8bd 87f0 	ldmia.w	sp!, {r4, r5, r6, r7, r8, r9, sl, pc}
 8000406:	4642      	mov	r2, r8
 8000408:	e7dd      	b.n	80003c6 <__udivmoddi4+0x62>
 800040a:	4663      	mov	r3, ip
 800040c:	e7f1      	b.n	80003f2 <__udivmoddi4+0x8e>
 800040e:	2a00      	cmp	r2, #0
 8000410:	d079      	beq.n	8000506 <__udivmoddi4+0x1a2>
 8000412:	fab2 f382 	clz	r3, r2
 8000416:	2b00      	cmp	r3, #0
 8000418:	d03f      	beq.n	800049a <__udivmoddi4+0x136>
 800041a:	4619      	mov	r1, r3
 800041c:	f1c1 0320 	rsb	r3, r1, #32
 8000420:	fa02 f501 	lsl.w	r5, r2, r1
 8000424:	fa00 f401 	lsl.w	r4, r0, r1
 8000428:	fa2e f203 	lsr.w	r2, lr, r3
 800042c:	fa0e fe01 	lsl.w	lr, lr, r1
 8000430:	fa20 f303 	lsr.w	r3, r0, r3
 8000434:	b2af      	uxth	r7, r5
 8000436:	ea43 030e 	orr.w	r3, r3, lr
 800043a:	ea4f 4e15 	mov.w	lr, r5, lsr #16
 800043e:	fbb2 fcfe 	udiv	ip, r2, lr
 8000442:	fb0e 201c 	mls	r0, lr, ip, r2
 8000446:	0c1a      	lsrs	r2, r3, #16
 8000448:	fb0c f807 	mul.w	r8, ip, r7
 800044c:	ea42 4200 	orr.w	r2, r2, r0, lsl #16
 8000450:	4590      	cmp	r8, r2
 8000452:	d95a      	bls.n	800050a <__udivmoddi4+0x1a6>
 8000454:	18aa      	adds	r2, r5, r2
 8000456:	f10c 30ff 	add.w	r0, ip, #4294967295
 800045a:	d204      	bcs.n	8000466 <__udivmoddi4+0x102>
 800045c:	4590      	cmp	r8, r2
 800045e:	d902      	bls.n	8000466 <__udivmoddi4+0x102>
 8000460:	f1ac 0002 	sub.w	r0, ip, #2
 8000464:	442a      	add	r2, r5
 8000466:	eba2 0208 	sub.w	r2, r2, r8
 800046a:	b29b      	uxth	r3, r3
 800046c:	fbb2 fcfe 	udiv	ip, r2, lr
 8000470:	fb0e 221c 	mls	r2, lr, ip, r2
 8000474:	fb0c f707 	mul.w	r7, ip, r7
 8000478:	ea43 4302 	orr.w	r3, r3, r2, lsl #16
 800047c:	429f      	cmp	r7, r3
 800047e:	d946      	bls.n	800050e <__udivmoddi4+0x1aa>
 8000480:	18eb      	adds	r3, r5, r3
 8000482:	f10c 32ff 	add.w	r2, ip, #4294967295
 8000486:	d204      	bcs.n	8000492 <__udivmoddi4+0x12e>
 8000488:	429f      	cmp	r7, r3
 800048a:	d902      	bls.n	8000492 <__udivmoddi4+0x12e>
 800048c:	f1ac 0202 	sub.w	r2, ip, #2
 8000490:	442b      	add	r3, r5
 8000492:	1bdb      	subs	r3, r3, r7
 8000494:	ea42 4200 	orr.w	r2, r2, r0, lsl #16
 8000498:	e002      	b.n	80004a0 <__udivmoddi4+0x13c>
 800049a:	ebae 0302 	sub.w	r3, lr, r2
 800049e:	2201      	movs	r2, #1
 80004a0:	ea4f 4e15 	mov.w	lr, r5, lsr #16
 80004a4:	b2af      	uxth	r7, r5
 80004a6:	0c20      	lsrs	r0, r4, #16
 80004a8:	fbb3 fcfe 	udiv	ip, r3, lr
 80004ac:	fb0e 331c 	mls	r3, lr, ip, r3
 80004b0:	fb0c f807 	mul.w	r8, ip, r7
 80004b4:	ea40 4303 	orr.w	r3, r0, r3, lsl #16
 80004b8:	4598      	cmp	r8, r3
 80004ba:	d92a      	bls.n	8000512 <__udivmoddi4+0x1ae>
 80004bc:	18eb      	adds	r3, r5, r3
 80004be:	f10c 30ff 	add.w	r0, ip, #4294967295
 80004c2:	d204      	bcs.n	80004ce <__udivmoddi4+0x16a>
 80004c4:	4598      	cmp	r8, r3
 80004c6:	d902      	bls.n	80004ce <__udivmoddi4+0x16a>
 80004c8:	f1ac 0002 	sub.w	r0, ip, #2
 80004cc:	442b      	add	r3, r5
 80004ce:	eba3 0308 	sub.w	r3, r3, r8
 80004d2:	b2a4      	uxth	r4, r4
 80004d4:	fbb3 fcfe 	udiv	ip, r3, lr
 80004d8:	fb0e 331c 	mls	r3, lr, ip, r3
 80004dc:	fb0c f707 	mul.w	r7, ip, r7
 80004e0:	ea44 4403 	orr.w	r4, r4, r3, lsl #16
 80004e4:	42a7      	cmp	r7, r4
 80004e6:	d916      	bls.n	8000516 <__udivmoddi4+0x1b2>
 80004e8:	192c      	adds	r4, r5, r4
 80004ea:	f10c 33ff 	add.w	r3, ip, #4294967295
 80004ee:	d204      	bcs.n	80004fa <__udivmoddi4+0x196>
 80004f0:	42a7      	cmp	r7, r4
 80004f2:	d902      	bls.n	80004fa <__udivmoddi4+0x196>
 80004f4:	f1ac 0302 	sub.w	r3, ip, #2
 80004f8:	442c      	add	r4, r5
 80004fa:	1be4      	subs	r4, r4, r7
 80004fc:	ea43 4000 	orr.w	r0, r3, r0, lsl #16
 8000500:	460f      	mov	r7, r1
 8000502:	4611      	mov	r1, r2
 8000504:	e778      	b.n	80003f8 <__udivmoddi4+0x94>
 8000506:	211f      	movs	r1, #31
 8000508:	e788      	b.n	800041c <__udivmoddi4+0xb8>
 800050a:	4660      	mov	r0, ip
 800050c:	e7ab      	b.n	8000466 <__udivmoddi4+0x102>
 800050e:	4662      	mov	r2, ip
 8000510:	e7bf      	b.n	8000492 <__udivmoddi4+0x12e>
 8000512:	4660      	mov	r0, ip
 8000514:	e7db      	b.n	80004ce <__udivmoddi4+0x16a>
 8000516:	4663      	mov	r3, ip
 8000518:	e7ef      	b.n	80004fa <__udivmoddi4+0x196>
 800051a:	4573      	cmp	r3, lr
 800051c:	d906      	bls.n	800052c <__udivmoddi4+0x1c8>
 800051e:	b916      	cbnz	r6, 8000526 <__udivmoddi4+0x1c2>
 8000520:	2100      	movs	r1, #0
 8000522:	4608      	mov	r0, r1
 8000524:	e76d      	b.n	8000402 <__udivmoddi4+0x9e>
 8000526:	e9c6 0e00 	strd	r0, lr, [r6]
 800052a:	e7f9      	b.n	8000520 <__udivmoddi4+0x1bc>
 800052c:	fab3 f783 	clz	r7, r3
 8000530:	b987      	cbnz	r7, 8000554 <__udivmoddi4+0x1f0>
 8000532:	4573      	cmp	r3, lr
 8000534:	d301      	bcc.n	800053a <__udivmoddi4+0x1d6>
 8000536:	4282      	cmp	r2, r0
 8000538:	d807      	bhi.n	800054a <__udivmoddi4+0x1e6>
 800053a:	1a84      	subs	r4, r0, r2
 800053c:	eb6e 0303 	sbc.w	r3, lr, r3
 8000540:	2001      	movs	r0, #1
 8000542:	469c      	mov	ip, r3
 8000544:	b91e      	cbnz	r6, 800054e <__udivmoddi4+0x1ea>
 8000546:	2100      	movs	r1, #0
 8000548:	e75b      	b.n	8000402 <__udivmoddi4+0x9e>
 800054a:	4638      	mov	r0, r7
 800054c:	e7fa      	b.n	8000544 <__udivmoddi4+0x1e0>
 800054e:	e9c6 4c00 	strd	r4, ip, [r6]
 8000552:	e7f8      	b.n	8000546 <__udivmoddi4+0x1e2>
 8000554:	f1c7 0c20 	rsb	ip, r7, #32
 8000558:	40bb      	lsls	r3, r7
 800055a:	fa00 f407 	lsl.w	r4, r0, r7
 800055e:	fa22 f50c 	lsr.w	r5, r2, ip
 8000562:	fa20 f10c 	lsr.w	r1, r0, ip
 8000566:	40ba      	lsls	r2, r7
 8000568:	431d      	orrs	r5, r3
 800056a:	fa2e f30c 	lsr.w	r3, lr, ip
 800056e:	fa0e fe07 	lsl.w	lr, lr, r7
 8000572:	ea4f 4915 	mov.w	r9, r5, lsr #16
 8000576:	ea41 010e 	orr.w	r1, r1, lr
 800057a:	fa1f fe85 	uxth.w	lr, r5
 800057e:	fbb3 f8f9 	udiv	r8, r3, r9
 8000582:	fb09 3018 	mls	r0, r9, r8, r3
 8000586:	0c0b      	lsrs	r3, r1, #16
 8000588:	fb08 fa0e 	mul.w	sl, r8, lr
 800058c:	ea43 4300 	orr.w	r3, r3, r0, lsl #16
 8000590:	459a      	cmp	sl, r3
 8000592:	d940      	bls.n	8000616 <__udivmoddi4+0x2b2>
 8000594:	18eb      	adds	r3, r5, r3
 8000596:	f108 30ff 	add.w	r0, r8, #4294967295
 800059a:	d204      	bcs.n	80005a6 <__udivmoddi4+0x242>
 800059c:	459a      	cmp	sl, r3
 800059e:	d902      	bls.n	80005a6 <__udivmoddi4+0x242>
 80005a0:	f1a8 0002 	sub.w	r0, r8, #2
 80005a4:	442b      	add	r3, r5
 80005a6:	eba3 030a 	sub.w	r3, r3, sl
 80005aa:	b289      	uxth	r1, r1
 80005ac:	fbb3 f8f9 	udiv	r8, r3, r9
 80005b0:	fb09 3318 	mls	r3, r9, r8, r3
 80005b4:	fb08 fe0e 	mul.w	lr, r8, lr
 80005b8:	ea41 4103 	orr.w	r1, r1, r3, lsl #16
 80005bc:	458e      	cmp	lr, r1
 80005be:	d92c      	bls.n	800061a <__udivmoddi4+0x2b6>
 80005c0:	1869      	adds	r1, r5, r1
 80005c2:	f108 33ff 	add.w	r3, r8, #4294967295
 80005c6:	d204      	bcs.n	80005d2 <__udivmoddi4+0x26e>
 80005c8:	458e      	cmp	lr, r1
 80005ca:	d902      	bls.n	80005d2 <__udivmoddi4+0x26e>
 80005cc:	f1a8 0302 	sub.w	r3, r8, #2
 80005d0:	4429      	add	r1, r5
 80005d2:	ea43 4000 	orr.w	r0, r3, r0, lsl #16
 80005d6:	eba1 010e 	sub.w	r1, r1, lr
 80005da:	fba0 9802 	umull	r9, r8, r0, r2
 80005de:	4541      	cmp	r1, r8
 80005e0:	46ce      	mov	lr, r9
 80005e2:	4643      	mov	r3, r8
 80005e4:	d302      	bcc.n	80005ec <__udivmoddi4+0x288>
 80005e6:	d106      	bne.n	80005f6 <__udivmoddi4+0x292>
 80005e8:	454c      	cmp	r4, r9
 80005ea:	d204      	bcs.n	80005f6 <__udivmoddi4+0x292>
 80005ec:	3801      	subs	r0, #1
 80005ee:	ebb9 0e02 	subs.w	lr, r9, r2
 80005f2:	eb68 0305 	sbc.w	r3, r8, r5
 80005f6:	2e00      	cmp	r6, #0
 80005f8:	d0a5      	beq.n	8000546 <__udivmoddi4+0x1e2>
 80005fa:	ebb4 020e 	subs.w	r2, r4, lr
 80005fe:	eb61 0103 	sbc.w	r1, r1, r3
 8000602:	fa01 fc0c 	lsl.w	ip, r1, ip
 8000606:	fa22 f307 	lsr.w	r3, r2, r7
 800060a:	40f9      	lsrs	r1, r7
 800060c:	ea4c 0303 	orr.w	r3, ip, r3
 8000610:	e9c6 3100 	strd	r3, r1, [r6]
 8000614:	e797      	b.n	8000546 <__udivmoddi4+0x1e2>
 8000616:	4640      	mov	r0, r8
 8000618:	e7c5      	b.n	80005a6 <__udivmoddi4+0x242>
 800061a:	4643      	mov	r3, r8
 800061c:	e7d9      	b.n	80005d2 <__udivmoddi4+0x26e>
	...

08000620 <main>:
 */

#include <stdio.h>

int main(void)
{
 8000620:	b508      	push	{r3, lr}
	printf("Hello World! %s\n", CONFIG_BOARD_TARGET);
 8000622:	4903      	ldr	r1, [pc, #12]	@ (8000630 <main+0x10>)
 8000624:	4803      	ldr	r0, [pc, #12]	@ (8000634 <main+0x14>)
 8000626:	f003 f80b 	bl	8003640 <printf>

	return 0;
}
 800062a:	2000      	movs	r0, #0
 800062c:	bd08      	pop	{r3, pc}
 800062e:	bf00      	nop
 8000630:	08005b64 	.word	0x08005b64
 8000634:	08005b80 	.word	0x08005b80

08000638 <char_out>:

	return c;
}

static int char_out(int c, void *ctx_p)
{
 8000638:	b508      	push	{r3, lr}
	ARG_UNUSED(ctx_p);
	return _char_out(c);
 800063a:	4b02      	ldr	r3, [pc, #8]	@ (8000644 <char_out+0xc>)
 800063c:	681b      	ldr	r3, [r3, #0]
 800063e:	4798      	blx	r3
}
 8000640:	bd08      	pop	{r3, pc}
 8000642:	bf00      	nop
 8000644:	20000000 	.word	0x20000000

08000648 <__printk_hook_install>:
	_char_out = fn;
 8000648:	4b01      	ldr	r3, [pc, #4]	@ (8000650 <__printk_hook_install+0x8>)
 800064a:	6018      	str	r0, [r3, #0]
}
 800064c:	4770      	bx	lr
 800064e:	bf00      	nop
 8000650:	20000000 	.word	0x20000000

08000654 <vprintk>:

void vprintk(const char *fmt, va_list ap)
{
 8000654:	b500      	push	{lr}
 8000656:	b085      	sub	sp, #20
 8000658:	4684      	mov	ip, r0
 800065a:	460a      	mov	r2, r1
#ifdef CONFIG_PRINTK_SYNC
		k_spinlock_key_t key = k_spin_lock(&lock);
#endif

#ifdef CONFIG_PICOLIBC
		FILE console = FDEV_SETUP_STREAM((int(*)(char, FILE *))char_out,
 800065c:	4668      	mov	r0, sp
 800065e:	2300      	movs	r3, #0
 8000660:	9300      	str	r3, [sp, #0]
 8000662:	9301      	str	r3, [sp, #4]
 8000664:	9302      	str	r3, [sp, #8]
 8000666:	9303      	str	r3, [sp, #12]
 8000668:	2302      	movs	r3, #2
 800066a:	f88d 3002 	strb.w	r3, [sp, #2]
 800066e:	4b04      	ldr	r3, [pc, #16]	@ (8000680 <vprintk+0x2c>)
 8000670:	9301      	str	r3, [sp, #4]
						 NULL, NULL, _FDEV_SETUP_WRITE);
		(void) vfprintf(&console, fmt, ap);
 8000672:	4661      	mov	r1, ip
 8000674:	f003 f87e 	bl	8003774 <__l_vfprintf>

#ifdef CONFIG_PRINTK_SYNC
		k_spin_unlock(&lock, key);
#endif
	}
}
 8000678:	b005      	add	sp, #20
 800067a:	f85d fb04 	ldr.w	pc, [sp], #4
 800067e:	bf00      	nop
 8000680:	08000639 	.word	0x08000639

08000684 <z_thread_entry>:
 * This routine does not return, and is marked as such so the compiler won't
 * generate preamble code that is only used by functions that actually return.
 */
FUNC_NORETURN void z_thread_entry(k_thread_entry_t entry,
				 void *p1, void *p2, void *p3)
{
 8000684:	b580      	push	{r7, lr}
 8000686:	4605      	mov	r5, r0
 8000688:	460e      	mov	r6, r1
 800068a:	4617      	mov	r7, r2
 800068c:	4698      	mov	r8, r3
	if (z_syscall_trap()) {
		return (k_tid_t) arch_syscall_invoke0(K_SYSCALL_K_SCHED_CURRENT_THREAD_QUERY);
	}
#endif
	compiler_barrier();
	return z_impl_k_sched_current_thread_query();
 800068e:	f002 fcb5 	bl	8002ffc <z_impl_k_sched_current_thread_query>
 8000692:	4603      	mov	r3, r0
 * otherwise lead to reading invalid memory and cause faults during
 * unwinding or debugging.
 */
	ARCH_CFI_UNDEFINED_RETURN_ADDRESS();
#ifdef CONFIG_CURRENT_THREAD_USE_TLS
	z_tls_current = k_sched_current_thread_query();
 8000694:	f000 fd0e 	bl	80010b4 <__aeabi_read_tp>
 8000698:	4604      	mov	r4, r0
 800069a:	f8df 9018 	ldr.w	r9, [pc, #24]	@ 80006b4 <z_thread_entry+0x30>
 800069e:	f849 3000 	str.w	r3, [r9, r0]

	sys_rand_get((uint8_t *)&stack_guard, sizeof(stack_guard));
	__stack_chk_guard = stack_guard;
	__stack_chk_guard <<= 8;
#endif	/* CONFIG_STACK_CANARIES */
	entry(p1, p2, p3);
 80006a2:	4642      	mov	r2, r8
 80006a4:	4639      	mov	r1, r7
 80006a6:	4630      	mov	r0, r6
 80006a8:	47a8      	blx	r5
#ifdef CONFIG_CURRENT_THREAD_USE_TLS

	/* Thread-local cache of current thread ID, set in z_thread_entry() */
	extern Z_THREAD_LOCAL k_tid_t z_tls_current;

	return z_tls_current;
 80006aa:	f854 0009 	ldr.w	r0, [r4, r9]
		(void) arch_syscall_invoke1(parm0.x, K_SYSCALL_K_THREAD_ABORT);
		return;
	}
#endif
	compiler_barrier();
	z_impl_k_thread_abort(thread);
 80006ae:	f000 fc89 	bl	8000fc4 <z_impl_k_thread_abort>
	/*
	 * Compiler can't tell that k_thread_abort() won't return and issues a
	 * warning unless we tell it that control never gets this far.
	 */

	CODE_UNREACHABLE; /* LCOV_EXCL_LINE */
 80006b2:	bf00      	nop
 80006b4:	00000008 	.word	0x00000008

080006b8 <st_stm32_common_config>:
  * @rmtoll DBGMCU_CR    DBG_STOP      LL_DBGMCU_DisableDBGStopMode
  * @retval None
  */
__STATIC_INLINE void LL_DBGMCU_DisableDBGStopMode(void)
{
  CLEAR_BIT(DBGMCU->CR, DBGMCU_CR_DBG_STOP);
 80006b8:	4a03      	ldr	r2, [pc, #12]	@ (80006c8 <st_stm32_common_config+0x10>)
 80006ba:	6853      	ldr	r3, [r2, #4]
 80006bc:	f023 0302 	bic.w	r3, r3, #2
 80006c0:	6053      	str	r3, [r2, #4]
#elif defined(LL_APB2_GRP1_PERIPH_DBGMCU)
	LL_APB2_GRP1_DisableClock(LL_APB2_GRP1_PERIPH_DBGMCU);
#endif /* LL_APB1_GRP1_PERIPH_DBGMCU */

	return 0;
}
 80006c2:	2000      	movs	r0, #0
 80006c4:	4770      	bx	lr
 80006c6:	bf00      	nop
 80006c8:	44024000 	.word	0x44024000

080006cc <stm32_gpioport_pm_action>:
	return 0;
}

static int stm32_gpioport_pm_action(const struct device *dev,
				    enum pm_device_action action)
{
 80006cc:	b508      	push	{r3, lr}
 80006ce:	460b      	mov	r3, r1
	const struct device *const clk = DEVICE_DT_GET(STM32_CLOCK_CONTROL_NODE);
	const struct gpio_stm32_config *cfg = dev->config;
 80006d0:	6841      	ldr	r1, [r0, #4]
	clock_control_subsys_t subsys = (void *)&cfg->pclken;
 80006d2:	310c      	adds	r1, #12

	switch (action) {
 80006d4:	2b01      	cmp	r3, #1
 80006d6:	d014      	beq.n	8000702 <stm32_gpioport_pm_action+0x36>
 80006d8:	d80a      	bhi.n	80006f0 <stm32_gpioport_pm_action+0x24>
 80006da:	b933      	cbnz	r3, 80006ea <stm32_gpioport_pm_action+0x1e>
 * @return 0 on success, negative errno on failure.
 */
static inline int clock_control_off(const struct device *dev,
				    clock_control_subsys_t sys)
{
	const struct clock_control_driver_api *api =
 80006dc:	4b0f      	ldr	r3, [pc, #60]	@ (800071c <stm32_gpioport_pm_action+0x50>)
 80006de:	689b      	ldr	r3, [r3, #8]
		(const struct clock_control_driver_api *)dev->api;

	if (api->off == NULL) {
 80006e0:	685b      	ldr	r3, [r3, #4]
 80006e2:	b1c3      	cbz	r3, 8000716 <stm32_gpioport_pm_action+0x4a>
		return -ENOSYS;
	}

	return api->off(dev, sys);
 80006e4:	480d      	ldr	r0, [pc, #52]	@ (800071c <stm32_gpioport_pm_action+0x50>)
 80006e6:	4798      	blx	r3
 80006e8:	e007      	b.n	80006fa <stm32_gpioport_pm_action+0x2e>
 80006ea:	f06f 0085 	mvn.w	r0, #133	@ 0x85
 80006ee:	e004      	b.n	80006fa <stm32_gpioport_pm_action+0x2e>
 80006f0:	3b02      	subs	r3, #2
 80006f2:	b2db      	uxtb	r3, r3
 80006f4:	2b01      	cmp	r3, #1
 80006f6:	d801      	bhi.n	80006fc <stm32_gpioport_pm_action+0x30>
		break;
	default:
		return -ENOTSUP;
	}

	return 0;
 80006f8:	2000      	movs	r0, #0
}
 80006fa:	bd08      	pop	{r3, pc}
	switch (action) {
 80006fc:	f06f 0085 	mvn.w	r0, #133	@ 0x85
 8000700:	e7fb      	b.n	80006fa <stm32_gpioport_pm_action+0x2e>
	const struct clock_control_driver_api *api =
 8000702:	4b06      	ldr	r3, [pc, #24]	@ (800071c <stm32_gpioport_pm_action+0x50>)
 8000704:	689b      	ldr	r3, [r3, #8]
	if (api->on == NULL) {
 8000706:	681b      	ldr	r3, [r3, #0]
 8000708:	b113      	cbz	r3, 8000710 <stm32_gpioport_pm_action+0x44>
	return api->on(dev, sys);
 800070a:	4804      	ldr	r0, [pc, #16]	@ (800071c <stm32_gpioport_pm_action+0x50>)
 800070c:	4798      	blx	r3
 800070e:	e7f4      	b.n	80006fa <stm32_gpioport_pm_action+0x2e>
		return -ENOSYS;
 8000710:	f06f 0057 	mvn.w	r0, #87	@ 0x57
 8000714:	e7f1      	b.n	80006fa <stm32_gpioport_pm_action+0x2e>
		return -ENOSYS;
 8000716:	f06f 0057 	mvn.w	r0, #87	@ 0x57
 800071a:	e7ee      	b.n	80006fa <stm32_gpioport_pm_action+0x2e>
 800071c:	08005524 	.word	0x08005524

08000720 <stm32_gpioport_init>:

__maybe_unused static int stm32_gpioport_init(const struct device *dev)
{
 8000720:	b508      	push	{r3, lr}
	LL_PWR_EnableVddIO2();
#endif
	z_stm32_hsem_unlock(CFG_HW_RCC_SEMID);
#endif

	return pm_device_driver_init(dev, stm32_gpioport_pm_action);
 8000722:	4902      	ldr	r1, [pc, #8]	@ (800072c <stm32_gpioport_init+0xc>)
 8000724:	f003 fd70 	bl	8004208 <pm_device_driver_init>
}
 8000728:	bd08      	pop	{r3, pc}
 800072a:	bf00      	nop
 800072c:	080006cd 	.word	0x080006cd

08000730 <stm32_gpioport_get>:
{
 8000730:	b510      	push	{r4, lr}
	if (port_index >= ARRAY_SIZE(gpio_ports)) {
 8000732:	2819      	cmp	r0, #25
 8000734:	d808      	bhi.n	8000748 <stm32_gpioport_get+0x18>
	dev = gpio_ports[port_index];
 8000736:	4b06      	ldr	r3, [pc, #24]	@ (8000750 <stm32_gpioport_get+0x20>)
 8000738:	f853 4020 	ldr.w	r4, [r3, r0, lsl #2]
		union { uintptr_t x; const struct device * val; } parm0 = { .val = dev };
		return (bool) arch_syscall_invoke1(parm0.x, K_SYSCALL_DEVICE_IS_READY);
	}
#endif
	compiler_barrier();
	return z_impl_device_is_ready(dev);
 800073c:	4620      	mov	r0, r4
 800073e:	f004 fd51 	bl	80051e4 <z_impl_device_is_ready>
	return device_is_ready(dev) ? dev : NULL;
 8000742:	b118      	cbz	r0, 800074c <stm32_gpioport_get+0x1c>
}
 8000744:	4620      	mov	r0, r4
 8000746:	bd10      	pop	{r4, pc}
		return NULL;
 8000748:	2400      	movs	r4, #0
 800074a:	e7fb      	b.n	8000744 <stm32_gpioport_get+0x14>
	return device_is_ready(dev) ? dev : NULL;
 800074c:	2400      	movs	r4, #0
 800074e:	e7f9      	b.n	8000744 <stm32_gpioport_get+0x14>
 8000750:	080061f8 	.word	0x080061f8

08000754 <stm32_backup_domain_enable_access>:
 */
__STATIC_FORCEINLINE uint32_t __get_BASEPRI(void)
{
  uint32_t result;

  __ASM volatile ("MRS %0, basepri" : "=r" (result) );
 8000754:	f3ef 8111 	mrs	r1, BASEPRI
           or the new value increases the BASEPRI priority level.
  \param [in]    basePri  Base Priority value to set
 */
__STATIC_FORCEINLINE void __set_BASEPRI_MAX(uint32_t basePri)
{
  __ASM volatile ("MSR basepri_max, %0" : : "r" (basePri) : "memory");
 8000758:	2310      	movs	r3, #16
 800075a:	f383 8812 	msr	BASEPRI_MAX, r3
           so that all instructions following the ISB are fetched from cache or memory,
           after the instruction has been completed.
 */
__STATIC_FORCEINLINE void __ISB(void)
{
  __ASM volatile ("isb 0xF":::"memory");
 800075e:	f3bf 8f6f 	isb	sy

void stm32_backup_domain_enable_access(void)
{
	k_spinlock_key_t key = k_spin_lock(&lock);

	if (refcount == 0U) {
 8000762:	4b0c      	ldr	r3, [pc, #48]	@ (8000794 <stm32_backup_domain_enable_access+0x40>)
 8000764:	681a      	ldr	r2, [r3, #0]
 8000766:	b96a      	cbnz	r2, 8000784 <stm32_backup_domain_enable_access+0x30>
  * @rmtoll DBPCR    DBP       LL_PWR_EnableBkUpAccess
  * @retval None
  */
__STATIC_INLINE void LL_PWR_EnableBkUpAccess(void)
{
  SET_BIT(PWR->DBPCR, PWR_DBPCR_DBP);
 8000768:	480b      	ldr	r0, [pc, #44]	@ (8000798 <stm32_backup_domain_enable_access+0x44>)
 800076a:	6a43      	ldr	r3, [r0, #36]	@ 0x24
 800076c:	f043 0301 	orr.w	r3, r3, #1
 8000770:	6243      	str	r3, [r0, #36]	@ 0x24
}
 8000772:	e000      	b.n	8000776 <stm32_backup_domain_enable_access+0x22>
		ENABLE_BKUP_ACCESS();
		while (!IS_ENABLED_BKUP_ACCESS()) {
 8000774:	b933      	cbnz	r3, 8000784 <stm32_backup_domain_enable_access+0x30>
  * @rmtoll DBPCR    DBP       LL_PWR_IsEnabledBkUpAccess
  * @retval State of bit (1 or 0).
  */
__STATIC_INLINE uint32_t LL_PWR_IsEnabledBkUpAccess(void)
{
  return ((READ_BIT(PWR->DBPCR, PWR_DBPCR_DBP) == (PWR_DBPCR_DBP)) ? 1UL : 0UL);
 8000776:	4b08      	ldr	r3, [pc, #32]	@ (8000798 <stm32_backup_domain_enable_access+0x44>)
 8000778:	6a5b      	ldr	r3, [r3, #36]	@ 0x24
 800077a:	f013 0301 	ands.w	r3, r3, #1
 800077e:	d0f9      	beq.n	8000774 <stm32_backup_domain_enable_access+0x20>
 8000780:	2301      	movs	r3, #1
 8000782:	e7f7      	b.n	8000774 <stm32_backup_domain_enable_access+0x20>
		}
	}
	refcount++;
 8000784:	3201      	adds	r2, #1
 8000786:	4b03      	ldr	r3, [pc, #12]	@ (8000794 <stm32_backup_domain_enable_access+0x40>)
 8000788:	601a      	str	r2, [r3, #0]
  __ASM volatile ("MSR basepri, %0" : : "r" (basePri) : "memory");
 800078a:	f381 8811 	msr	BASEPRI, r1
 800078e:	f3bf 8f6f 	isb	sy

	k_spin_unlock(&lock, key);
}
 8000792:	4770      	bx	lr
 8000794:	2000034c 	.word	0x2000034c
 8000798:	44020800 	.word	0x44020800

0800079c <stm32_backup_domain_disable_access>:
  __ASM volatile ("MRS %0, basepri" : "=r" (result) );
 800079c:	f3ef 8211 	mrs	r2, BASEPRI
  __ASM volatile ("MSR basepri_max, %0" : : "r" (basePri) : "memory");
 80007a0:	2310      	movs	r3, #16
 80007a2:	f383 8812 	msr	BASEPRI_MAX, r3
 80007a6:	f3bf 8f6f 	isb	sy

void stm32_backup_domain_disable_access(void)
{
	k_spinlock_key_t key = k_spin_lock(&lock);

	if (refcount == 0U) {
 80007aa:	4b0f      	ldr	r3, [pc, #60]	@ (80007e8 <stm32_backup_domain_disable_access+0x4c>)
 80007ac:	681b      	ldr	r3, [r3, #0]
 80007ae:	b95b      	cbnz	r3, 80007c8 <stm32_backup_domain_disable_access+0x2c>
/* Included from <atomic.h> */

static inline bool atomic_cas(atomic_t *target, atomic_val_t old_value,
			  atomic_val_t new_value)
{
	return __atomic_compare_exchange_n(target, &old_value, new_value,
 80007b0:	4b0e      	ldr	r3, [pc, #56]	@ (80007ec <stm32_backup_domain_disable_access+0x50>)
 80007b2:	2101      	movs	r1, #1
 80007b4:	e8d3 0fef 	ldaex	r0, [r3]
 80007b8:	2800      	cmp	r0, #0
 80007ba:	d10a      	bne.n	80007d2 <stm32_backup_domain_disable_access+0x36>
 80007bc:	e8c3 1fec 	stlex	ip, r1, [r3]
 80007c0:	f1bc 0f00 	cmp.w	ip, #0
 80007c4:	d005      	beq.n	80007d2 <stm32_backup_domain_disable_access+0x36>
 80007c6:	e7f5      	b.n	80007b4 <stm32_backup_domain_disable_access+0x18>
		LOG_WRN_ONCE("Unbalanced backup domain access refcount");
	} else {
		if (refcount == 1U) {
 80007c8:	2b01      	cmp	r3, #1
 80007ca:	d007      	beq.n	80007dc <stm32_backup_domain_disable_access+0x40>
			DISABLE_BKUP_ACCESS();
		}
		refcount--;
 80007cc:	3b01      	subs	r3, #1
 80007ce:	4906      	ldr	r1, [pc, #24]	@ (80007e8 <stm32_backup_domain_disable_access+0x4c>)
 80007d0:	600b      	str	r3, [r1, #0]
  __ASM volatile ("MSR basepri, %0" : : "r" (basePri) : "memory");
 80007d2:	f382 8811 	msr	BASEPRI, r2
 80007d6:	f3bf 8f6f 	isb	sy
	}

	k_spin_unlock(&lock, key);
}
 80007da:	4770      	bx	lr
  CLEAR_BIT(PWR->DBPCR, PWR_DBPCR_DBP);
 80007dc:	4804      	ldr	r0, [pc, #16]	@ (80007f0 <stm32_backup_domain_disable_access+0x54>)
 80007de:	6a41      	ldr	r1, [r0, #36]	@ 0x24
 80007e0:	f021 0101 	bic.w	r1, r1, #1
 80007e4:	6241      	str	r1, [r0, #36]	@ 0x24
}
 80007e6:	e7f1      	b.n	80007cc <stm32_backup_domain_disable_access+0x30>
 80007e8:	2000034c 	.word	0x2000034c
 80007ec:	20000348 	.word	0x20000348
 80007f0:	44020800 	.word	0x44020800

080007f4 <soc_early_init_hook>:
 * @brief Perform basic hardware initialization at boot.
 *
 * This needs to be run from the very beginning.
 */
void soc_early_init_hook(void)
{
 80007f4:	b508      	push	{r3, lr}
 *
 */
static ALWAYS_INLINE void sys_cache_instr_enable(void)
{
#if defined(CONFIG_CACHE_MANAGEMENT) && defined(CONFIG_ICACHE)
	cache_instr_enable();
 80007f6:	f000 ff8b 	bl	8001710 <cache_instr_enable>
	sys_cache_instr_enable();

	/* Update CMSIS SystemCoreClock variable (HCLK) */
	/* At reset, system core clock is set to 32 MHz from HSI with a HSIDIV = 2 */
	SystemCoreClock = 32000000;
 80007fa:	4b04      	ldr	r3, [pc, #16]	@ (800080c <soc_early_init_hook+0x18>)
 80007fc:	4a04      	ldr	r2, [pc, #16]	@ (8000810 <soc_early_init_hook+0x1c>)
 80007fe:	601a      	str	r2, [r3, #0]
  * @rmtoll UCPDR          UCPD_DBDIS           LL_PWR_DisableUCPDDeadBattery
  * @retval None
  */
__STATIC_INLINE void LL_PWR_DisableUCPDDeadBattery(void)
{
  SET_BIT(PWR->UCPDR, PWR_UCPDR_UCPD_DBDIS);
 8000800:	4a04      	ldr	r2, [pc, #16]	@ (8000814 <soc_early_init_hook+0x20>)
 8000802:	6ad3      	ldr	r3, [r2, #44]	@ 0x2c
 8000804:	f043 0301 	orr.w	r3, r3, #1
 8000808:	62d3      	str	r3, [r2, #44]	@ 0x2c
#endif /* PWR_UCPDR_UCPD_DBDIS */

#if CONFIG_PM
	stm32_power_init();
#endif
}
 800080a:	bd08      	pop	{r3, pc}
 800080c:	2000004c 	.word	0x2000004c
 8000810:	01e84800 	.word	0x01e84800
 8000814:	44020800 	.word	0x44020800

08000818 <mem_attr_get_regions>:
	DT_MEMORY_ATTR_FOREACH_STATUS_OKAY_NODE(_BUILD_MEM_ATTR_REGION)
};

size_t mem_attr_get_regions(const struct mem_attr_region_t **region)
{
	*region = mem_attr_region;
 8000818:	4b01      	ldr	r3, [pc, #4]	@ (8000820 <mem_attr_get_regions+0x8>)
 800081a:	6003      	str	r3, [r0, #0]

	return ARRAY_SIZE(mem_attr_region);
}
 800081c:	2000      	movs	r0, #0
 800081e:	4770      	bx	lr
 8000820:	08006260 	.word	0x08006260

08000824 <arch_bss_zero>:
 *
 * This routine clears the BSS region, so all bytes are 0.
 */
__boot_func
void arch_bss_zero(void)
{
 8000824:	b508      	push	{r3, lr}
	if (IS_ENABLED(CONFIG_SKIP_BSS_CLEAR)) {
		return;
	}

	arch_early_memset(__bss_start, 0, __bss_end - __bss_start);
 8000826:	4803      	ldr	r0, [pc, #12]	@ (8000834 <arch_bss_zero+0x10>)
 8000828:	4a03      	ldr	r2, [pc, #12]	@ (8000838 <arch_bss_zero+0x14>)
 800082a:	1a12      	subs	r2, r2, r0
 800082c:	2100      	movs	r1, #0
 800082e:	f003 fdd9 	bl	80043e4 <arch_early_memset>
#endif /* CONFIG_COVERAGE_GCOV */
#ifdef CONFIG_NOCACHE_MEMORY
	arch_early_memset(&_nocache_ram_start, 0,
			(uintptr_t) &_nocache_ram_end - (uintptr_t) &_nocache_ram_start);
#endif
}
 8000832:	bd08      	pop	{r3, pc}
 8000834:	20000078 	.word	0x20000078
 8000838:	20000438 	.word	0x20000438

0800083c <arch_data_copy>:
 * @brief Copy the data section from ROM to RAM
 *
 * This routine copies the data section from ROM to RAM.
 */
void arch_data_copy(void)
{
 800083c:	b508      	push	{r3, lr}
	arch_early_memcpy(&__data_region_start, &__data_region_load_start,
		       __data_region_end - __data_region_start);
 800083e:	4806      	ldr	r0, [pc, #24]	@ (8000858 <arch_data_copy+0x1c>)
	arch_early_memcpy(&__data_region_start, &__data_region_load_start,
 8000840:	4a06      	ldr	r2, [pc, #24]	@ (800085c <arch_data_copy+0x20>)
 8000842:	1a12      	subs	r2, r2, r0
 8000844:	4906      	ldr	r1, [pc, #24]	@ (8000860 <arch_data_copy+0x24>)
 8000846:	f003 fdd1 	bl	80043ec <arch_early_memcpy>
#ifdef CONFIG_ARCH_HAS_RAMFUNC_SUPPORT
	arch_early_memcpy(&__ramfunc_region_start, &__ramfunc_load_start,
		       __ramfunc_end - __ramfunc_region_start);
 800084a:	4806      	ldr	r0, [pc, #24]	@ (8000864 <arch_data_copy+0x28>)
	arch_early_memcpy(&__ramfunc_region_start, &__ramfunc_load_start,
 800084c:	4a06      	ldr	r2, [pc, #24]	@ (8000868 <arch_data_copy+0x2c>)
 800084e:	1a12      	subs	r2, r2, r0
 8000850:	4906      	ldr	r1, [pc, #24]	@ (800086c <arch_data_copy+0x30>)
 8000852:	f003 fdcb 	bl	80043ec <arch_early_memcpy>
#else
	arch_early_memcpy(&_app_smem_start, &_app_smem_rom_start,
		       _app_smem_end - _app_smem_start);
#endif /* CONFIG_REQUIRES_STACK_CANARIES */
#endif /* CONFIG_USERSPACE */
}
 8000856:	bd08      	pop	{r3, pc}
 8000858:	20000000 	.word	0x20000000
 800085c:	20000078 	.word	0x20000078
 8000860:	080063c4 	.word	0x080063c4
 8000864:	20000000 	.word	0x20000000
 8000868:	20000000 	.word	0x20000000
 800086c:	080063c4 	.word	0x080063c4

08000870 <esf_dump>:

extern void z_arm_unwind_stack(const struct arch_esf *esf);

#ifdef CONFIG_EXCEPTION_DEBUG
static void esf_dump(const struct arch_esf *esf)
{
 8000870:	b510      	push	{r4, lr}
 8000872:	4604      	mov	r4, r0
	EXCEPTION_DUMP("r0/a1:  0x%08x  r1/a2:  0x%08x  r2/a3:  0x%08x",
 8000874:	6883      	ldr	r3, [r0, #8]
 8000876:	6842      	ldr	r2, [r0, #4]
 8000878:	6801      	ldr	r1, [r0, #0]
 800087a:	4809      	ldr	r0, [pc, #36]	@ (80008a0 <esf_dump+0x30>)
 800087c:	f003 fcb5 	bl	80041ea <printk>
		esf->basic.a1, esf->basic.a2, esf->basic.a3);
	EXCEPTION_DUMP("r3/a4:  0x%08x r12/ip:  0x%08x r14/lr:  0x%08x",
 8000880:	6963      	ldr	r3, [r4, #20]
 8000882:	6922      	ldr	r2, [r4, #16]
 8000884:	68e1      	ldr	r1, [r4, #12]
 8000886:	4807      	ldr	r0, [pc, #28]	@ (80008a4 <esf_dump+0x34>)
 8000888:	f003 fcaf 	bl	80041ea <printk>
		esf->basic.a4, esf->basic.ip, esf->basic.lr);
	EXCEPTION_DUMP(" xpsr:  0x%08x", esf->basic.xpsr);
 800088c:	69e1      	ldr	r1, [r4, #28]
 800088e:	4806      	ldr	r0, [pc, #24]	@ (80008a8 <esf_dump+0x38>)
 8000890:	f003 fcab 	bl	80041ea <printk>
	}

	EXCEPTION_DUMP("EXC_RETURN: 0x%0x", esf->extra_info.exc_return);

#endif /* CONFIG_EXTRA_EXCEPTION_INFO */
	EXCEPTION_DUMP("Faulting instruction address (r15/pc): 0x%08x",
 8000894:	69a1      	ldr	r1, [r4, #24]
 8000896:	4805      	ldr	r0, [pc, #20]	@ (80008ac <esf_dump+0x3c>)
 8000898:	f003 fca7 	bl	80041ea <printk>
		esf->basic.pc);
}
 800089c:	bd10      	pop	{r4, pc}
 800089e:	bf00      	nop
 80008a0:	08005c24 	.word	0x08005c24
 80008a4:	08005c54 	.word	0x08005c54
 80008a8:	08005c84 	.word	0x08005c84
 80008ac:	08005c94 	.word	0x08005c94

080008b0 <z_arm_fatal_error>:
#endif /* CONFIG_EXCEPTION_DEBUG */

void z_arm_fatal_error(unsigned int reason, const struct arch_esf *esf)
{
 80008b0:	b538      	push	{r3, r4, r5, lr}
 80008b2:	4604      	mov	r4, r0
#ifdef CONFIG_EXCEPTION_DEBUG
	if (esf != NULL) {
 80008b4:	460d      	mov	r5, r1
 80008b6:	b111      	cbz	r1, 80008be <z_arm_fatal_error+0xe>
		esf_dump(esf);
 80008b8:	4608      	mov	r0, r1
 80008ba:	f7ff ffd9 	bl	8000870 <esf_dump>
	}
#endif /* CONFIG_EXCEPTION_DEBUG */

	/* LOG the IRQn that was unhandled */
#if defined(CONFIG_CPU_CORTEX_M)
	if (reason == K_ERR_SPURIOUS_IRQ) {
 80008be:	2c01      	cmp	r4, #1
 80008c0:	d004      	beq.n	80008cc <z_arm_fatal_error+0x1c>

#ifdef CONFIG_EXCEPTION_STACK_TRACE
	z_arm_unwind_stack(esf);
#endif /* CONFIG_EXCEPTION_STACK_TRACE */

	z_fatal_error(reason, esf);
 80008c2:	4629      	mov	r1, r5
 80008c4:	4620      	mov	r0, r4
 80008c6:	f001 ffc9 	bl	800285c <z_fatal_error>
}
 80008ca:	bd38      	pop	{r3, r4, r5, pc}
  __ASM volatile ("MRS %0, ipsr" : "=r" (result) );
 80008cc:	f3ef 8105 	mrs	r1, IPSR
		EXCEPTION_DUMP("Unhandled IRQn: %d", irqn);
 80008d0:	3910      	subs	r1, #16
 80008d2:	4802      	ldr	r0, [pc, #8]	@ (80008dc <z_arm_fatal_error+0x2c>)
 80008d4:	f003 fc89 	bl	80041ea <printk>
 80008d8:	e7f3      	b.n	80008c2 <z_arm_fatal_error+0x12>
 80008da:	bf00      	nop
 80008dc:	08005cc4 	.word	0x08005cc4

080008e0 <z_SysNmiOnReset>:
_ASM_FILE_PROLOGUE

GTEXT(z_SysNmiOnReset)

SECTION_FUNC(TEXT, z_SysNmiOnReset)
    wfi
 80008e0:	bf30      	wfi
    b z_SysNmiOnReset
 80008e2:	f7ff bffd 	b.w	80008e0 <z_SysNmiOnReset>
 80008e6:	bf00      	nop

080008e8 <z_tls_copy>:
 * of TLS bss size after the data section.
 *
 * @param dest Pointer to destination
 */
static inline void z_tls_copy(char *dest)
{
 80008e8:	b538      	push	{r3, r4, r5, lr}
 80008ea:	4604      	mov	r4, r0
	/* Copy initialized data (tdata) */
	memcpy(dest, __tdata_start, (size_t)(uintptr_t)__tdata_size);
 80008ec:	4d05      	ldr	r5, [pc, #20]	@ (8000904 <z_tls_copy+0x1c>)
 80008ee:	462a      	mov	r2, r5
 80008f0:	4905      	ldr	r1, [pc, #20]	@ (8000908 <z_tls_copy+0x20>)
 80008f2:	f7ff fca7 	bl	8000244 <__aeabi_memcpy>

	/* Clear BSS data (tbss) */
	dest += (size_t)(uintptr_t)__tdata_size;
	memset(dest, 0, (size_t)(uintptr_t)__tbss_size);
 80008f6:	4a05      	ldr	r2, [pc, #20]	@ (800090c <z_tls_copy+0x24>)
 80008f8:	2100      	movs	r1, #0
 80008fa:	1960      	adds	r0, r4, r5
 80008fc:	f002 fe0a 	bl	8003514 <memset>
}
 8000900:	bd38      	pop	{r3, r4, r5, pc}
 8000902:	bf00      	nop
 8000904:	00000000 	.word	0x00000000
 8000908:	08005b5c 	.word	0x08005b5c
 800090c:	00000004 	.word	0x00000004

08000910 <arch_tls_stack_setup>:
 */
K_APP_DMEM(z_libc_partition) uintptr_t z_arm_tls_ptr;
#endif

size_t arch_tls_stack_setup(struct k_thread *new_thread, char *stack_ptr)
{
 8000910:	b570      	push	{r4, r5, r6, lr}
 8000912:	4606      	mov	r6, r0
	return (size_t)(uintptr_t)__tdata_size +
 8000914:	4d06      	ldr	r5, [pc, #24]	@ (8000930 <arch_tls_stack_setup+0x20>)
 8000916:	4b07      	ldr	r3, [pc, #28]	@ (8000934 <arch_tls_stack_setup+0x24>)
 8000918:	441d      	add	r5, r3

	/*
	 * Since we are populating things backwards,
	 * setup the TLS data/bss area first.
	 */
	stack_ptr -= z_tls_data_size();
 800091a:	1b4c      	subs	r4, r1, r5
	z_tls_copy(stack_ptr);
 800091c:	4620      	mov	r0, r4
 800091e:	f7ff ffe3 	bl	80008e8 <z_tls_copy>

#ifndef __IAR_SYSTEMS_ICC__
	/* Skip two pointers due to toolchain */
	stack_ptr -= sizeof(uintptr_t) * 2;
 8000922:	3c08      	subs	r4, #8

	/*
	 * Set thread TLS pointer which is used in
	 * context switch to point to TLS area.
	 */
	new_thread->tls = POINTER_TO_UINT(stack_ptr);
 8000924:	f8c6 40a4 	str.w	r4, [r6, #164]	@ 0xa4

	return (z_tls_data_size() + (sizeof(uintptr_t) * 2));
}
 8000928:	f105 0008 	add.w	r0, r5, #8
 800092c:	bd70      	pop	{r4, r5, r6, pc}
 800092e:	bf00      	nop
 8000930:	00000000 	.word	0x00000000
 8000934:	00000004 	.word	0x00000004

08000938 <z_arm_is_synchronous_svc>:
#error Unknown ARM architecture
#endif /* CONFIG_ARMV6_M_ARMV8_M_BASELINE */

static inline bool z_arm_is_synchronous_svc(struct arch_esf *esf)
{
	uint16_t *ret_addr = (uint16_t *)esf->basic.pc;
 8000938:	6981      	ldr	r1, [r0, #24]
	/* Note: ARMv6-M does not support CCR.BFHFNMIGN so this access
	 * could generate a fault if the pc was invalid.
	 */
	uint16_t fault_insn = *(ret_addr - 1);
#else
	SCB->CCR |= SCB_CCR_BFHFNMIGN_Msk;
 800093a:	4b10      	ldr	r3, [pc, #64]	@ (800097c <z_arm_is_synchronous_svc+0x44>)
 800093c:	695a      	ldr	r2, [r3, #20]
 800093e:	f442 7280 	orr.w	r2, r2, #256	@ 0x100
 8000942:	615a      	str	r2, [r3, #20]
  \details Acts as a special kind of Data Memory Barrier.
           It completes when all explicit memory accesses before this instruction complete.
 */
__STATIC_FORCEINLINE void __DSB(void)
{
  __ASM volatile ("dsb 0xF":::"memory");
 8000944:	f3bf 8f4f 	dsb	sy
  __ASM volatile ("isb 0xF":::"memory");
 8000948:	f3bf 8f6f 	isb	sy
	barrier_dsync_fence_full();
	barrier_isync_fence_full();

	uint16_t fault_insn = *(ret_addr - 1);
 800094c:	f831 1c02 	ldrh.w	r1, [r1, #-2]

	SCB->CCR &= ~SCB_CCR_BFHFNMIGN_Msk;
 8000950:	695a      	ldr	r2, [r3, #20]
 8000952:	f422 7280 	bic.w	r2, r2, #256	@ 0x100
 8000956:	615a      	str	r2, [r3, #20]
  __ASM volatile ("dsb 0xF":::"memory");
 8000958:	f3bf 8f4f 	dsb	sy
  __ASM volatile ("isb 0xF":::"memory");
 800095c:	f3bf 8f6f 	isb	sy
	barrier_dsync_fence_full();
	barrier_isync_fence_full();
#endif /* ARMV6_M_ARMV8_M_BASELINE && !ARMV8_M_BASELINE */

	if (((fault_insn & 0xff00) == _SVC_OPCODE) &&
 8000960:	f401 437f 	and.w	r3, r1, #65280	@ 0xff00
 8000964:	f5b3 4f5f 	cmp.w	r3, #57088	@ 0xdf00
 8000968:	d001      	beq.n	800096e <z_arm_is_synchronous_svc+0x36>
	    ((fault_insn & 0x00ff) == _SVC_CALL_RUNTIME_EXCEPT)) {
		return true;
	}
#undef _SVC_OPCODE
	return false;
 800096a:	2000      	movs	r0, #0
 800096c:	4770      	bx	lr
	if (((fault_insn & 0xff00) == _SVC_OPCODE) &&
 800096e:	b2c9      	uxtb	r1, r1
 8000970:	2902      	cmp	r1, #2
 8000972:	d001      	beq.n	8000978 <z_arm_is_synchronous_svc+0x40>
	return false;
 8000974:	2000      	movs	r0, #0
 8000976:	4770      	bx	lr
		return true;
 8000978:	2001      	movs	r0, #1
}
 800097a:	4770      	bx	lr
 800097c:	e000ed00 	.word	0xe000ed00

08000980 <get_esf>:
				       bool *nested_exc)
{
	bool alternative_state_exc = false;
	struct arch_esf *ptr_esf = NULL;

	*nested_exc = false;
 8000980:	f04f 0c00 	mov.w	ip, #0
 8000984:	f883 c000 	strb.w	ip, [r3]

	if ((exc_return & EXC_RETURN_INDICATOR_PREFIX) != EXC_RETURN_INDICATOR_PREFIX) {
 8000988:	f002 4c7f 	and.w	ip, r2, #4278190080	@ 0xff000000
 800098c:	f1bc 4f7f 	cmp.w	ip, #4278190080	@ 0xff000000
 8000990:	d112      	bne.n	80009b8 <get_esf+0x38>
	}
#else
	/* The processor has a single execution state.
	 * We verify that the Thread mode is using PSP.
	 */
	if ((exc_return & EXC_RETURN_MODE_THREAD) && (!(exc_return & EXC_RETURN_SPSEL_PROCESS))) {
 8000992:	f002 0c0c 	and.w	ip, r2, #12
 8000996:	f1bc 0f08 	cmp.w	ip, #8
 800099a:	d004      	beq.n	80009a6 <get_esf+0x26>
		return NULL;
	}
#endif /* CONFIG_ARM_SECURE_FIRMWARE */

	if (!alternative_state_exc) {
		if (exc_return & EXC_RETURN_MODE_THREAD) {
 800099c:	f012 0f08 	tst.w	r2, #8
 80009a0:	d007      	beq.n	80009b2 <get_esf+0x32>
			/* Returning to thread mode */
			ptr_esf = (struct arch_esf *)psp;
 80009a2:	4608      	mov	r0, r1
 80009a4:	4770      	bx	lr
{
 80009a6:	b508      	push	{r3, lr}
		PR_EXC("SPSEL in thread mode does not indicate PSP");
 80009a8:	4804      	ldr	r0, [pc, #16]	@ (80009bc <get_esf+0x3c>)
 80009aa:	f003 fc1e 	bl	80041ea <printk>
		return NULL;
 80009ae:	2000      	movs	r0, #0
			*nested_exc = true;
		}
	}

	return ptr_esf;
}
 80009b0:	bd08      	pop	{r3, pc}
			*nested_exc = true;
 80009b2:	2201      	movs	r2, #1
 80009b4:	701a      	strb	r2, [r3, #0]
 80009b6:	4770      	bx	lr
		return NULL;
 80009b8:	2000      	movs	r0, #0
}
 80009ba:	4770      	bx	lr
 80009bc:	08005cd8 	.word	0x08005cd8

080009c0 <mem_manage_fault>:
{
 80009c0:	b5f8      	push	{r3, r4, r5, r6, r7, lr}
 80009c2:	4605      	mov	r5, r0
 80009c4:	460f      	mov	r7, r1
 80009c6:	4614      	mov	r4, r2
	PR_FAULT_INFO("***** MPU FAULT *****");
 80009c8:	4832      	ldr	r0, [pc, #200]	@ (8000a94 <mem_manage_fault+0xd4>)
 80009ca:	f003 fc0e 	bl	80041ea <printk>
	if ((SCB->CFSR & SCB_CFSR_MSTKERR_Msk) != 0) {
 80009ce:	4b32      	ldr	r3, [pc, #200]	@ (8000a98 <mem_manage_fault+0xd8>)
 80009d0:	6a9b      	ldr	r3, [r3, #40]	@ 0x28
 80009d2:	f013 0f10 	tst.w	r3, #16
 80009d6:	d131      	bne.n	8000a3c <mem_manage_fault+0x7c>
	uint32_t reason = K_ERR_ARM_MEM_GENERIC;
 80009d8:	2610      	movs	r6, #16
	if ((SCB->CFSR & SCB_CFSR_MUNSTKERR_Msk) != 0) {
 80009da:	4b2f      	ldr	r3, [pc, #188]	@ (8000a98 <mem_manage_fault+0xd8>)
 80009dc:	6a9b      	ldr	r3, [r3, #40]	@ 0x28
 80009de:	f013 0f08 	tst.w	r3, #8
 80009e2:	d130      	bne.n	8000a46 <mem_manage_fault+0x86>
	if ((SCB->CFSR & SCB_CFSR_DACCVIOL_Msk) != 0) {
 80009e4:	4b2c      	ldr	r3, [pc, #176]	@ (8000a98 <mem_manage_fault+0xd8>)
 80009e6:	6a9b      	ldr	r3, [r3, #40]	@ 0x28
 80009e8:	f013 0f02 	tst.w	r3, #2
 80009ec:	d130      	bne.n	8000a50 <mem_manage_fault+0x90>
	if ((SCB->CFSR & SCB_CFSR_IACCVIOL_Msk) != 0) {
 80009ee:	4b2a      	ldr	r3, [pc, #168]	@ (8000a98 <mem_manage_fault+0xd8>)
 80009f0:	6a9b      	ldr	r3, [r3, #40]	@ 0x28
 80009f2:	f013 0f01 	tst.w	r3, #1
 80009f6:	d143      	bne.n	8000a80 <mem_manage_fault+0xc0>
	if ((SCB->CFSR & SCB_CFSR_MLSPERR_Msk) != 0) {
 80009f8:	4b27      	ldr	r3, [pc, #156]	@ (8000a98 <mem_manage_fault+0xd8>)
 80009fa:	6a9b      	ldr	r3, [r3, #40]	@ 0x28
 80009fc:	f013 0f20 	tst.w	r3, #32
 8000a00:	d143      	bne.n	8000a8a <mem_manage_fault+0xca>
	if ((SCB->CFSR & SCB_CFSR_MSTKERR_Msk) || (SCB->CFSR & SCB_CFSR_DACCVIOL_Msk)) {
 8000a02:	4b25      	ldr	r3, [pc, #148]	@ (8000a98 <mem_manage_fault+0xd8>)
 8000a04:	6a9b      	ldr	r3, [r3, #40]	@ 0x28
 8000a06:	f013 0f10 	tst.w	r3, #16
 8000a0a:	d101      	bne.n	8000a10 <mem_manage_fault+0x50>
 8000a0c:	4b22      	ldr	r3, [pc, #136]	@ (8000a98 <mem_manage_fault+0xd8>)
 8000a0e:	6a9b      	ldr	r3, [r3, #40]	@ 0x28
	if ((SCB->CFSR & SCB_CFSR_MLSPERR_Msk) != 0) {
 8000a10:	4b21      	ldr	r3, [pc, #132]	@ (8000a98 <mem_manage_fault+0xd8>)
 8000a12:	6a9b      	ldr	r3, [r3, #40]	@ 0x28
 8000a14:	f013 0f20 	tst.w	r3, #32
 8000a18:	d004      	beq.n	8000a24 <mem_manage_fault+0x64>
		SCB->SHCSR &= ~SCB_SHCSR_MEMFAULTPENDED_Msk;
 8000a1a:	4a1f      	ldr	r2, [pc, #124]	@ (8000a98 <mem_manage_fault+0xd8>)
 8000a1c:	6a53      	ldr	r3, [r2, #36]	@ 0x24
 8000a1e:	f423 5300 	bic.w	r3, r3, #8192	@ 0x2000
 8000a22:	6253      	str	r3, [r2, #36]	@ 0x24
	SCB->CFSR |= SCB_CFSR_MEMFAULTSR_Msk;
 8000a24:	4a1c      	ldr	r2, [pc, #112]	@ (8000a98 <mem_manage_fault+0xd8>)
 8000a26:	6a93      	ldr	r3, [r2, #40]	@ 0x28
 8000a28:	f043 03ff 	orr.w	r3, r3, #255	@ 0xff
 8000a2c:	6293      	str	r3, [r2, #40]	@ 0x28
	*recoverable = memory_fault_recoverable(esf, true);
 8000a2e:	2101      	movs	r1, #1
 8000a30:	4628      	mov	r0, r5
 8000a32:	f003 fceb 	bl	800440c <memory_fault_recoverable>
 8000a36:	7020      	strb	r0, [r4, #0]
}
 8000a38:	4630      	mov	r0, r6
 8000a3a:	bdf8      	pop	{r3, r4, r5, r6, r7, pc}
		PR_FAULT_INFO("  Stacking error (context area might be"
 8000a3c:	4817      	ldr	r0, [pc, #92]	@ (8000a9c <mem_manage_fault+0xdc>)
 8000a3e:	f003 fbd4 	bl	80041ea <printk>
		reason = K_ERR_ARM_MEM_STACKING;
 8000a42:	2611      	movs	r6, #17
 8000a44:	e7c9      	b.n	80009da <mem_manage_fault+0x1a>
		PR_FAULT_INFO("  Unstacking error");
 8000a46:	4816      	ldr	r0, [pc, #88]	@ (8000aa0 <mem_manage_fault+0xe0>)
 8000a48:	f003 fbcf 	bl	80041ea <printk>
		reason = K_ERR_ARM_MEM_UNSTACKING;
 8000a4c:	2612      	movs	r6, #18
 8000a4e:	e7c9      	b.n	80009e4 <mem_manage_fault+0x24>
		PR_FAULT_INFO("  Data Access Violation");
 8000a50:	4814      	ldr	r0, [pc, #80]	@ (8000aa4 <mem_manage_fault+0xe4>)
 8000a52:	f003 fbca 	bl	80041ea <printk>
		uint32_t temp = SCB->MMFAR;
 8000a56:	4b10      	ldr	r3, [pc, #64]	@ (8000a98 <mem_manage_fault+0xd8>)
 8000a58:	6b59      	ldr	r1, [r3, #52]	@ 0x34
		if ((SCB->CFSR & SCB_CFSR_MMARVALID_Msk) != 0) {
 8000a5a:	6a9b      	ldr	r3, [r3, #40]	@ 0x28
 8000a5c:	f013 0f80 	tst.w	r3, #128	@ 0x80
 8000a60:	d101      	bne.n	8000a66 <mem_manage_fault+0xa6>
		reason = K_ERR_ARM_MEM_DATA_ACCESS;
 8000a62:	2613      	movs	r6, #19
 8000a64:	e7c3      	b.n	80009ee <mem_manage_fault+0x2e>
			PR_EXC("  MMFAR Address: 0x%x", mmfar);
 8000a66:	4810      	ldr	r0, [pc, #64]	@ (8000aa8 <mem_manage_fault+0xe8>)
 8000a68:	f003 fbbf 	bl	80041ea <printk>
			if (from_hard_fault != 0) {
 8000a6c:	b137      	cbz	r7, 8000a7c <mem_manage_fault+0xbc>
				SCB->CFSR &= ~SCB_CFSR_MMARVALID_Msk;
 8000a6e:	4a0a      	ldr	r2, [pc, #40]	@ (8000a98 <mem_manage_fault+0xd8>)
 8000a70:	6a93      	ldr	r3, [r2, #40]	@ 0x28
 8000a72:	f023 0380 	bic.w	r3, r3, #128	@ 0x80
 8000a76:	6293      	str	r3, [r2, #40]	@ 0x28
		reason = K_ERR_ARM_MEM_DATA_ACCESS;
 8000a78:	2613      	movs	r6, #19
 8000a7a:	e7b8      	b.n	80009ee <mem_manage_fault+0x2e>
 8000a7c:	2613      	movs	r6, #19
 8000a7e:	e7b6      	b.n	80009ee <mem_manage_fault+0x2e>
		PR_FAULT_INFO("  Instruction Access Violation");
 8000a80:	480a      	ldr	r0, [pc, #40]	@ (8000aac <mem_manage_fault+0xec>)
 8000a82:	f003 fbb2 	bl	80041ea <printk>
		reason = K_ERR_ARM_MEM_INSTRUCTION_ACCESS;
 8000a86:	2614      	movs	r6, #20
 8000a88:	e7b6      	b.n	80009f8 <mem_manage_fault+0x38>
		PR_FAULT_INFO("  Floating-point lazy state preservation error");
 8000a8a:	4809      	ldr	r0, [pc, #36]	@ (8000ab0 <mem_manage_fault+0xf0>)
 8000a8c:	f003 fbad 	bl	80041ea <printk>
		reason = K_ERR_ARM_MEM_FP_LAZY_STATE_PRESERVATION;
 8000a90:	2615      	movs	r6, #21
 8000a92:	e7b6      	b.n	8000a02 <mem_manage_fault+0x42>
 8000a94:	08005d04 	.word	0x08005d04
 8000a98:	e000ed00 	.word	0xe000ed00
 8000a9c:	08005d1c 	.word	0x08005d1c
 8000aa0:	08005d50 	.word	0x08005d50
 8000aa4:	08005d64 	.word	0x08005d64
 8000aa8:	08005d80 	.word	0x08005d80
 8000aac:	08005d98 	.word	0x08005d98
 8000ab0:	08005db8 	.word	0x08005db8

08000ab4 <bus_fault>:
{
 8000ab4:	b5f8      	push	{r3, r4, r5, r6, r7, lr}
 8000ab6:	4605      	mov	r5, r0
 8000ab8:	460f      	mov	r7, r1
 8000aba:	4614      	mov	r4, r2
	PR_FAULT_INFO("***** BUS FAULT *****");
 8000abc:	482f      	ldr	r0, [pc, #188]	@ (8000b7c <bus_fault+0xc8>)
 8000abe:	f003 fb94 	bl	80041ea <printk>
	if (SCB->CFSR & SCB_CFSR_STKERR_Msk) {
 8000ac2:	4b2f      	ldr	r3, [pc, #188]	@ (8000b80 <bus_fault+0xcc>)
 8000ac4:	6a9b      	ldr	r3, [r3, #40]	@ 0x28
 8000ac6:	f413 5f80 	tst.w	r3, #4096	@ 0x1000
 8000aca:	d125      	bne.n	8000b18 <bus_fault+0x64>
	uint32_t reason = K_ERR_ARM_BUS_GENERIC;
 8000acc:	2616      	movs	r6, #22
	if (SCB->CFSR & SCB_CFSR_UNSTKERR_Msk) {
 8000ace:	4b2c      	ldr	r3, [pc, #176]	@ (8000b80 <bus_fault+0xcc>)
 8000ad0:	6a9b      	ldr	r3, [r3, #40]	@ 0x28
 8000ad2:	f413 6f00 	tst.w	r3, #2048	@ 0x800
 8000ad6:	d124      	bne.n	8000b22 <bus_fault+0x6e>
	if (SCB->CFSR & SCB_CFSR_PRECISERR_Msk) {
 8000ad8:	4b29      	ldr	r3, [pc, #164]	@ (8000b80 <bus_fault+0xcc>)
 8000ada:	6a9b      	ldr	r3, [r3, #40]	@ 0x28
 8000adc:	f413 7f00 	tst.w	r3, #512	@ 0x200
 8000ae0:	d124      	bne.n	8000b2c <bus_fault+0x78>
	if (SCB->CFSR & SCB_CFSR_IMPRECISERR_Msk) {
 8000ae2:	4b27      	ldr	r3, [pc, #156]	@ (8000b80 <bus_fault+0xcc>)
 8000ae4:	6a9b      	ldr	r3, [r3, #40]	@ 0x28
 8000ae6:	f413 6f80 	tst.w	r3, #1024	@ 0x400
 8000aea:	d137      	bne.n	8000b5c <bus_fault+0xa8>
	if ((SCB->CFSR & SCB_CFSR_IBUSERR_Msk) != 0) {
 8000aec:	4b24      	ldr	r3, [pc, #144]	@ (8000b80 <bus_fault+0xcc>)
 8000aee:	6a9b      	ldr	r3, [r3, #40]	@ 0x28
 8000af0:	f413 7f80 	tst.w	r3, #256	@ 0x100
 8000af4:	d137      	bne.n	8000b66 <bus_fault+0xb2>
	} else if (SCB->CFSR & SCB_CFSR_LSPERR_Msk) {
 8000af6:	4b22      	ldr	r3, [pc, #136]	@ (8000b80 <bus_fault+0xcc>)
 8000af8:	6a9b      	ldr	r3, [r3, #40]	@ 0x28
 8000afa:	f413 5f00 	tst.w	r3, #8192	@ 0x2000
 8000afe:	d137      	bne.n	8000b70 <bus_fault+0xbc>
	SCB->CFSR |= SCB_CFSR_BUSFAULTSR_Msk;
 8000b00:	4a1f      	ldr	r2, [pc, #124]	@ (8000b80 <bus_fault+0xcc>)
 8000b02:	6a93      	ldr	r3, [r2, #40]	@ 0x28
 8000b04:	f443 437f 	orr.w	r3, r3, #65280	@ 0xff00
 8000b08:	6293      	str	r3, [r2, #40]	@ 0x28
	*recoverable = memory_fault_recoverable(esf, true);
 8000b0a:	2101      	movs	r1, #1
 8000b0c:	4628      	mov	r0, r5
 8000b0e:	f003 fc7d 	bl	800440c <memory_fault_recoverable>
 8000b12:	7020      	strb	r0, [r4, #0]
}
 8000b14:	4630      	mov	r0, r6
 8000b16:	bdf8      	pop	{r3, r4, r5, r6, r7, pc}
		PR_FAULT_INFO("  Stacking error");
 8000b18:	481a      	ldr	r0, [pc, #104]	@ (8000b84 <bus_fault+0xd0>)
 8000b1a:	f003 fb66 	bl	80041ea <printk>
		reason = K_ERR_ARM_BUS_STACKING;
 8000b1e:	2617      	movs	r6, #23
 8000b20:	e7d5      	b.n	8000ace <bus_fault+0x1a>
		PR_FAULT_INFO("  Unstacking error");
 8000b22:	4819      	ldr	r0, [pc, #100]	@ (8000b88 <bus_fault+0xd4>)
 8000b24:	f003 fb61 	bl	80041ea <printk>
		reason = K_ERR_ARM_BUS_UNSTACKING;
 8000b28:	2618      	movs	r6, #24
 8000b2a:	e7d5      	b.n	8000ad8 <bus_fault+0x24>
		PR_FAULT_INFO("  Precise data bus error");
 8000b2c:	4817      	ldr	r0, [pc, #92]	@ (8000b8c <bus_fault+0xd8>)
 8000b2e:	f003 fb5c 	bl	80041ea <printk>
		STORE_xFAR(bfar, SCB->BFAR);
 8000b32:	4b13      	ldr	r3, [pc, #76]	@ (8000b80 <bus_fault+0xcc>)
 8000b34:	6b99      	ldr	r1, [r3, #56]	@ 0x38
		if ((SCB->CFSR & SCB_CFSR_BFARVALID_Msk) != 0) {
 8000b36:	6a9b      	ldr	r3, [r3, #40]	@ 0x28
 8000b38:	f413 4f00 	tst.w	r3, #32768	@ 0x8000
 8000b3c:	d101      	bne.n	8000b42 <bus_fault+0x8e>
		reason = K_ERR_ARM_BUS_PRECISE_DATA_BUS;
 8000b3e:	2619      	movs	r6, #25
 8000b40:	e7cf      	b.n	8000ae2 <bus_fault+0x2e>
			PR_EXC("  BFAR Address: 0x%x", bfar);
 8000b42:	4813      	ldr	r0, [pc, #76]	@ (8000b90 <bus_fault+0xdc>)
 8000b44:	f003 fb51 	bl	80041ea <printk>
			if (from_hard_fault != 0) {
 8000b48:	b137      	cbz	r7, 8000b58 <bus_fault+0xa4>
				SCB->CFSR &= ~SCB_CFSR_BFARVALID_Msk;
 8000b4a:	4a0d      	ldr	r2, [pc, #52]	@ (8000b80 <bus_fault+0xcc>)
 8000b4c:	6a93      	ldr	r3, [r2, #40]	@ 0x28
 8000b4e:	f423 4300 	bic.w	r3, r3, #32768	@ 0x8000
 8000b52:	6293      	str	r3, [r2, #40]	@ 0x28
		reason = K_ERR_ARM_BUS_PRECISE_DATA_BUS;
 8000b54:	2619      	movs	r6, #25
 8000b56:	e7c4      	b.n	8000ae2 <bus_fault+0x2e>
 8000b58:	2619      	movs	r6, #25
 8000b5a:	e7c2      	b.n	8000ae2 <bus_fault+0x2e>
		PR_FAULT_INFO("  Imprecise data bus error");
 8000b5c:	480d      	ldr	r0, [pc, #52]	@ (8000b94 <bus_fault+0xe0>)
 8000b5e:	f003 fb44 	bl	80041ea <printk>
		reason = K_ERR_ARM_BUS_IMPRECISE_DATA_BUS;
 8000b62:	261a      	movs	r6, #26
 8000b64:	e7c2      	b.n	8000aec <bus_fault+0x38>
		PR_FAULT_INFO("  Instruction bus error");
 8000b66:	480c      	ldr	r0, [pc, #48]	@ (8000b98 <bus_fault+0xe4>)
 8000b68:	f003 fb3f 	bl	80041ea <printk>
		reason = K_ERR_ARM_BUS_INSTRUCTION_BUS;
 8000b6c:	261b      	movs	r6, #27
 8000b6e:	e7c7      	b.n	8000b00 <bus_fault+0x4c>
		PR_FAULT_INFO("  Floating-point lazy state preservation error");
 8000b70:	480a      	ldr	r0, [pc, #40]	@ (8000b9c <bus_fault+0xe8>)
 8000b72:	f003 fb3a 	bl	80041ea <printk>
		reason = K_ERR_ARM_BUS_FP_LAZY_STATE_PRESERVATION;
 8000b76:	261c      	movs	r6, #28
 8000b78:	e7c2      	b.n	8000b00 <bus_fault+0x4c>
 8000b7a:	bf00      	nop
 8000b7c:	08005de8 	.word	0x08005de8
 8000b80:	e000ed00 	.word	0xe000ed00
 8000b84:	08005e00 	.word	0x08005e00
 8000b88:	08005d50 	.word	0x08005d50
 8000b8c:	08005e14 	.word	0x08005e14
 8000b90:	08005e30 	.word	0x08005e30
 8000b94:	08005e48 	.word	0x08005e48
 8000b98:	08005e64 	.word	0x08005e64
 8000b9c:	08005db8 	.word	0x08005db8

08000ba0 <usage_fault>:
{
 8000ba0:	b508      	push	{r3, lr}
	PR_FAULT_INFO("***** USAGE FAULT *****");
 8000ba2:	4829      	ldr	r0, [pc, #164]	@ (8000c48 <usage_fault+0xa8>)
 8000ba4:	f003 fb21 	bl	80041ea <printk>
	if ((SCB->CFSR & SCB_CFSR_DIVBYZERO_Msk) != 0) {
 8000ba8:	4b28      	ldr	r3, [pc, #160]	@ (8000c4c <usage_fault+0xac>)
 8000baa:	6a9b      	ldr	r3, [r3, #40]	@ 0x28
 8000bac:	f013 7f00 	tst.w	r3, #33554432	@ 0x2000000
 8000bb0:	d126      	bne.n	8000c00 <usage_fault+0x60>
	uint32_t reason = K_ERR_ARM_USAGE_GENERIC;
 8000bb2:	201d      	movs	r0, #29
	if ((SCB->CFSR & SCB_CFSR_UNALIGNED_Msk) != 0) {
 8000bb4:	4b25      	ldr	r3, [pc, #148]	@ (8000c4c <usage_fault+0xac>)
 8000bb6:	6a9b      	ldr	r3, [r3, #40]	@ 0x28
 8000bb8:	f013 7f80 	tst.w	r3, #16777216	@ 0x1000000
 8000bbc:	d125      	bne.n	8000c0a <usage_fault+0x6a>
	if ((SCB->CFSR & SCB_CFSR_STKOF_Msk) != 0) {
 8000bbe:	4b23      	ldr	r3, [pc, #140]	@ (8000c4c <usage_fault+0xac>)
 8000bc0:	6a9b      	ldr	r3, [r3, #40]	@ 0x28
 8000bc2:	f413 1f80 	tst.w	r3, #1048576	@ 0x100000
 8000bc6:	d125      	bne.n	8000c14 <usage_fault+0x74>
	if ((SCB->CFSR & SCB_CFSR_NOCP_Msk) != 0) {
 8000bc8:	4b20      	ldr	r3, [pc, #128]	@ (8000c4c <usage_fault+0xac>)
 8000bca:	6a9b      	ldr	r3, [r3, #40]	@ 0x28
 8000bcc:	f413 2f00 	tst.w	r3, #524288	@ 0x80000
 8000bd0:	d125      	bne.n	8000c1e <usage_fault+0x7e>
	if ((SCB->CFSR & SCB_CFSR_INVPC_Msk) != 0) {
 8000bd2:	4b1e      	ldr	r3, [pc, #120]	@ (8000c4c <usage_fault+0xac>)
 8000bd4:	6a9b      	ldr	r3, [r3, #40]	@ 0x28
 8000bd6:	f413 2f80 	tst.w	r3, #262144	@ 0x40000
 8000bda:	d125      	bne.n	8000c28 <usage_fault+0x88>
	if ((SCB->CFSR & SCB_CFSR_INVSTATE_Msk) != 0) {
 8000bdc:	4b1b      	ldr	r3, [pc, #108]	@ (8000c4c <usage_fault+0xac>)
 8000bde:	6a9b      	ldr	r3, [r3, #40]	@ 0x28
 8000be0:	f413 3f00 	tst.w	r3, #131072	@ 0x20000
 8000be4:	d125      	bne.n	8000c32 <usage_fault+0x92>
	if ((SCB->CFSR & SCB_CFSR_UNDEFINSTR_Msk) != 0) {
 8000be6:	4b19      	ldr	r3, [pc, #100]	@ (8000c4c <usage_fault+0xac>)
 8000be8:	6a9b      	ldr	r3, [r3, #40]	@ 0x28
 8000bea:	f413 3f80 	tst.w	r3, #65536	@ 0x10000
 8000bee:	d125      	bne.n	8000c3c <usage_fault+0x9c>
	SCB->CFSR |= SCB_CFSR_USGFAULTSR_Msk;
 8000bf0:	4a16      	ldr	r2, [pc, #88]	@ (8000c4c <usage_fault+0xac>)
 8000bf2:	6a93      	ldr	r3, [r2, #40]	@ 0x28
 8000bf4:	ea6f 4303 	mvn.w	r3, r3, lsl #16
 8000bf8:	ea6f 4313 	mvn.w	r3, r3, lsr #16
 8000bfc:	6293      	str	r3, [r2, #40]	@ 0x28
}
 8000bfe:	bd08      	pop	{r3, pc}
		PR_FAULT_INFO("  Division by zero");
 8000c00:	4813      	ldr	r0, [pc, #76]	@ (8000c50 <usage_fault+0xb0>)
 8000c02:	f003 faf2 	bl	80041ea <printk>
		reason = K_ERR_ARM_USAGE_DIV_0;
 8000c06:	201e      	movs	r0, #30
 8000c08:	e7d4      	b.n	8000bb4 <usage_fault+0x14>
		PR_FAULT_INFO("  Unaligned memory access");
 8000c0a:	4812      	ldr	r0, [pc, #72]	@ (8000c54 <usage_fault+0xb4>)
 8000c0c:	f003 faed 	bl	80041ea <printk>
		reason = K_ERR_ARM_USAGE_UNALIGNED_ACCESS;
 8000c10:	201f      	movs	r0, #31
 8000c12:	e7d4      	b.n	8000bbe <usage_fault+0x1e>
		PR_FAULT_INFO("  Stack overflow (context area not valid)");
 8000c14:	4810      	ldr	r0, [pc, #64]	@ (8000c58 <usage_fault+0xb8>)
 8000c16:	f003 fae8 	bl	80041ea <printk>
		reason = K_ERR_STACK_CHK_FAIL;
 8000c1a:	2002      	movs	r0, #2
 8000c1c:	e7d4      	b.n	8000bc8 <usage_fault+0x28>
		PR_FAULT_INFO("  No coprocessor instructions");
 8000c1e:	480f      	ldr	r0, [pc, #60]	@ (8000c5c <usage_fault+0xbc>)
 8000c20:	f003 fae3 	bl	80041ea <printk>
		reason = K_ERR_ARM_USAGE_NO_COPROCESSOR;
 8000c24:	2021      	movs	r0, #33	@ 0x21
 8000c26:	e7d4      	b.n	8000bd2 <usage_fault+0x32>
		PR_FAULT_INFO("  Illegal load of EXC_RETURN into PC");
 8000c28:	480d      	ldr	r0, [pc, #52]	@ (8000c60 <usage_fault+0xc0>)
 8000c2a:	f003 fade 	bl	80041ea <printk>
		reason = K_ERR_ARM_USAGE_ILLEGAL_EXC_RETURN;
 8000c2e:	2022      	movs	r0, #34	@ 0x22
 8000c30:	e7d4      	b.n	8000bdc <usage_fault+0x3c>
		PR_FAULT_INFO("  Illegal use of the EPSR");
 8000c32:	480c      	ldr	r0, [pc, #48]	@ (8000c64 <usage_fault+0xc4>)
 8000c34:	f003 fad9 	bl	80041ea <printk>
		reason = K_ERR_ARM_USAGE_ILLEGAL_EPSR;
 8000c38:	2023      	movs	r0, #35	@ 0x23
 8000c3a:	e7d4      	b.n	8000be6 <usage_fault+0x46>
		PR_FAULT_INFO("  Attempt to execute undefined instruction");
 8000c3c:	480a      	ldr	r0, [pc, #40]	@ (8000c68 <usage_fault+0xc8>)
 8000c3e:	f003 fad4 	bl	80041ea <printk>
		reason = K_ERR_ARM_USAGE_UNDEFINED_INSTRUCTION;
 8000c42:	2024      	movs	r0, #36	@ 0x24
 8000c44:	e7d4      	b.n	8000bf0 <usage_fault+0x50>
 8000c46:	bf00      	nop
 8000c48:	08005e80 	.word	0x08005e80
 8000c4c:	e000ed00 	.word	0xe000ed00
 8000c50:	08005e9c 	.word	0x08005e9c
 8000c54:	08005eb0 	.word	0x08005eb0
 8000c58:	08005ecc 	.word	0x08005ecc
 8000c5c:	08005ef8 	.word	0x08005ef8
 8000c60:	08005f18 	.word	0x08005f18
 8000c64:	08005f40 	.word	0x08005f40
 8000c68:	08005f5c 	.word	0x08005f5c

08000c6c <hard_fault>:
{
 8000c6c:	b570      	push	{r4, r5, r6, lr}
 8000c6e:	4606      	mov	r6, r0
 8000c70:	460d      	mov	r5, r1
	PR_FAULT_INFO("***** HARD FAULT *****");
 8000c72:	4826      	ldr	r0, [pc, #152]	@ (8000d0c <hard_fault+0xa0>)
 8000c74:	f003 fab9 	bl	80041ea <printk>
	*recoverable = false;
 8000c78:	2300      	movs	r3, #0
 8000c7a:	702b      	strb	r3, [r5, #0]
	if ((SCB->HFSR & SCB_HFSR_VECTTBL_Msk) != 0) {
 8000c7c:	4b24      	ldr	r3, [pc, #144]	@ (8000d10 <hard_fault+0xa4>)
 8000c7e:	6adc      	ldr	r4, [r3, #44]	@ 0x2c
 8000c80:	f014 0402 	ands.w	r4, r4, #2
 8000c84:	d10a      	bne.n	8000c9c <hard_fault+0x30>
	} else if ((SCB->HFSR & SCB_HFSR_DEBUGEVT_Msk) != 0) {
 8000c86:	4b22      	ldr	r3, [pc, #136]	@ (8000d10 <hard_fault+0xa4>)
 8000c88:	6adb      	ldr	r3, [r3, #44]	@ 0x2c
 8000c8a:	2b00      	cmp	r3, #0
 8000c8c:	db0b      	blt.n	8000ca6 <hard_fault+0x3a>
	} else if ((SCB->HFSR & SCB_HFSR_FORCED_Msk) != 0) {
 8000c8e:	4b20      	ldr	r3, [pc, #128]	@ (8000d10 <hard_fault+0xa4>)
 8000c90:	6adc      	ldr	r4, [r3, #44]	@ 0x2c
 8000c92:	f014 4480 	ands.w	r4, r4, #1073741824	@ 0x40000000
 8000c96:	d10a      	bne.n	8000cae <hard_fault+0x42>
}
 8000c98:	4620      	mov	r0, r4
 8000c9a:	bd70      	pop	{r4, r5, r6, pc}
		PR_EXC("  Bus fault on vector table read");
 8000c9c:	481d      	ldr	r0, [pc, #116]	@ (8000d14 <hard_fault+0xa8>)
 8000c9e:	f003 faa4 	bl	80041ea <printk>
	uint32_t reason = K_ERR_CPU_EXCEPTION;
 8000ca2:	2400      	movs	r4, #0
 8000ca4:	e7f8      	b.n	8000c98 <hard_fault+0x2c>
		PR_EXC("  Debug event");
 8000ca6:	481c      	ldr	r0, [pc, #112]	@ (8000d18 <hard_fault+0xac>)
 8000ca8:	f003 fa9f 	bl	80041ea <printk>
 8000cac:	e7f4      	b.n	8000c98 <hard_fault+0x2c>
		PR_EXC("  Fault escalation (see below)");
 8000cae:	481b      	ldr	r0, [pc, #108]	@ (8000d1c <hard_fault+0xb0>)
 8000cb0:	f003 fa9b 	bl	80041ea <printk>
		if (z_arm_is_synchronous_svc(esf)) {
 8000cb4:	4630      	mov	r0, r6
 8000cb6:	f7ff fe3f 	bl	8000938 <z_arm_is_synchronous_svc>
 8000cba:	b998      	cbnz	r0, 8000ce4 <hard_fault+0x78>
		} else if ((SCB->CFSR & SCB_CFSR_MEMFAULTSR_Msk) != 0) {
 8000cbc:	4b14      	ldr	r3, [pc, #80]	@ (8000d10 <hard_fault+0xa4>)
 8000cbe:	6a9b      	ldr	r3, [r3, #40]	@ 0x28
 8000cc0:	f013 0fff 	tst.w	r3, #255	@ 0xff
 8000cc4:	d114      	bne.n	8000cf0 <hard_fault+0x84>
		} else if ((SCB->CFSR & SCB_CFSR_BUSFAULTSR_Msk) != 0) {
 8000cc6:	4b12      	ldr	r3, [pc, #72]	@ (8000d10 <hard_fault+0xa4>)
 8000cc8:	6a9c      	ldr	r4, [r3, #40]	@ 0x28
 8000cca:	f414 447f 	ands.w	r4, r4, #65280	@ 0xff00
 8000cce:	d116      	bne.n	8000cfe <hard_fault+0x92>
		} else if ((SCB->CFSR & SCB_CFSR_USGFAULTSR_Msk) != 0) {
 8000cd0:	4b0f      	ldr	r3, [pc, #60]	@ (8000d10 <hard_fault+0xa4>)
 8000cd2:	6a9b      	ldr	r3, [r3, #40]	@ 0x28
 8000cd4:	f5b3 3f80 	cmp.w	r3, #65536	@ 0x10000
 8000cd8:	d3de      	bcc.n	8000c98 <hard_fault+0x2c>
			reason = usage_fault(esf);
 8000cda:	4630      	mov	r0, r6
 8000cdc:	f7ff ff60 	bl	8000ba0 <usage_fault>
 8000ce0:	4604      	mov	r4, r0
	return reason;
 8000ce2:	e7d9      	b.n	8000c98 <hard_fault+0x2c>
			PR_EXC("ARCH_EXCEPT with reason %x\n", esf->basic.r0);
 8000ce4:	6831      	ldr	r1, [r6, #0]
 8000ce6:	480e      	ldr	r0, [pc, #56]	@ (8000d20 <hard_fault+0xb4>)
 8000ce8:	f003 fa7f 	bl	80041ea <printk>
			reason = esf->basic.r0;
 8000cec:	6834      	ldr	r4, [r6, #0]
 8000cee:	e7d3      	b.n	8000c98 <hard_fault+0x2c>
			reason = mem_manage_fault(esf, 1, recoverable);
 8000cf0:	462a      	mov	r2, r5
 8000cf2:	2101      	movs	r1, #1
 8000cf4:	4630      	mov	r0, r6
 8000cf6:	f7ff fe63 	bl	80009c0 <mem_manage_fault>
 8000cfa:	4604      	mov	r4, r0
 8000cfc:	e7cc      	b.n	8000c98 <hard_fault+0x2c>
			reason = bus_fault(esf, 1, recoverable);
 8000cfe:	462a      	mov	r2, r5
 8000d00:	2101      	movs	r1, #1
 8000d02:	4630      	mov	r0, r6
 8000d04:	f7ff fed6 	bl	8000ab4 <bus_fault>
 8000d08:	4604      	mov	r4, r0
 8000d0a:	e7c5      	b.n	8000c98 <hard_fault+0x2c>
 8000d0c:	08005f88 	.word	0x08005f88
 8000d10:	e000ed00 	.word	0xe000ed00
 8000d14:	08005fa0 	.word	0x08005fa0
 8000d18:	08005fc4 	.word	0x08005fc4
 8000d1c:	08005fd4 	.word	0x08005fd4
 8000d20:	08005ff4 	.word	0x08005ff4

08000d24 <debug_monitor>:
{
 8000d24:	b508      	push	{r3, lr}
	*recoverable = false;
 8000d26:	2300      	movs	r3, #0
 8000d28:	700b      	strb	r3, [r1, #0]
	PR_FAULT_INFO("***** Debug monitor exception *****");
 8000d2a:	4802      	ldr	r0, [pc, #8]	@ (8000d34 <debug_monitor+0x10>)
 8000d2c:	f003 fa5d 	bl	80041ea <printk>
}
 8000d30:	bd08      	pop	{r3, pc}
 8000d32:	bf00      	nop
 8000d34:	08006014 	.word	0x08006014

08000d38 <reserved_exception>:
{
 8000d38:	b508      	push	{r3, lr}
 8000d3a:	460a      	mov	r2, r1
	PR_FAULT_INFO("***** %s %d) *****",
 8000d3c:	290f      	cmp	r1, #15
 8000d3e:	dc05      	bgt.n	8000d4c <reserved_exception+0x14>
 8000d40:	4903      	ldr	r1, [pc, #12]	@ (8000d50 <reserved_exception+0x18>)
 8000d42:	3a10      	subs	r2, #16
 8000d44:	4803      	ldr	r0, [pc, #12]	@ (8000d54 <reserved_exception+0x1c>)
 8000d46:	f003 fa50 	bl	80041ea <printk>
}
 8000d4a:	bd08      	pop	{r3, pc}
	PR_FAULT_INFO("***** %s %d) *****",
 8000d4c:	4902      	ldr	r1, [pc, #8]	@ (8000d58 <reserved_exception+0x20>)
 8000d4e:	e7f8      	b.n	8000d42 <reserved_exception+0xa>
 8000d50:	0800603c 	.word	0x0800603c
 8000d54:	08006070 	.word	0x08006070
 8000d58:	08006054 	.word	0x08006054

08000d5c <z_arm_fault>:
 * @param exc_return EXC_RETURN value present in LR after exception entry.
 * @param callee_regs Callee-saved registers (R4-R11, PSP)
 *
 */
void z_arm_fault(uint32_t msp, uint32_t psp, uint32_t exc_return, _callee_saved_t *callee_regs)
{
 8000d5c:	b530      	push	{r4, r5, lr}
 8000d5e:	b08b      	sub	sp, #44	@ 0x2c
	uint32_t reason = K_ERR_CPU_EXCEPTION;
	int fault = SCB->ICSR & SCB_ICSR_VECTACTIVE_Msk;
 8000d60:	4b1e      	ldr	r3, [pc, #120]	@ (8000ddc <z_arm_fault+0x80>)
 8000d62:	685d      	ldr	r5, [r3, #4]
 8000d64:	f3c5 0508 	ubfx	r5, r5, #0, #9
  __ASM volatile ("MSR basepri, %0" : : "r" (basePri) : "memory");
 8000d68:	2300      	movs	r3, #0
 8000d6a:	f383 8811 	msr	BASEPRI, r3
 8000d6e:	f3bf 8f6f 	isb	sy
	arch_irq_unlock(0);

	/* Retrieve the Exception Stack Frame (ESF) to be supplied
	 * as argument to the remainder of the fault handling process.
	 */
	esf = get_esf(msp, psp, exc_return, &nested_exc);
 8000d72:	f10d 0326 	add.w	r3, sp, #38	@ 0x26
 8000d76:	f7ff fe03 	bl	8000980 <get_esf>
 8000d7a:	4604      	mov	r4, r0
	__ASSERT(esf != NULL, "ESF could not be retrieved successfully. Shall never occur.");

	z_arm_set_fault_sp(esf, exc_return);

	reason = fault_handle(esf, fault, &recoverable);
 8000d7c:	f10d 0227 	add.w	r2, sp, #39	@ 0x27
 8000d80:	4629      	mov	r1, r5
 8000d82:	f003 fb45 	bl	8004410 <fault_handle>
	if (recoverable) {
 8000d86:	f89d 3027 	ldrb.w	r3, [sp, #39]	@ 0x27
 8000d8a:	b10b      	cbz	r3, 8000d90 <z_arm_fault+0x34>
	 */
	if ((exc_return & 0xf000000f) == 0xf000000d) {
		arm_m_exc_tail();
	}
#endif
}
 8000d8c:	b00b      	add	sp, #44	@ 0x2c
 8000d8e:	bd30      	pop	{r4, r5, pc}
 8000d90:	4605      	mov	r5, r0
	memcpy(&esf_copy, esf, sizeof(struct arch_esf));
 8000d92:	f10d 0c04 	add.w	ip, sp, #4
 8000d96:	6820      	ldr	r0, [r4, #0]
 8000d98:	6861      	ldr	r1, [r4, #4]
 8000d9a:	68a2      	ldr	r2, [r4, #8]
 8000d9c:	68e3      	ldr	r3, [r4, #12]
 8000d9e:	e8ac 000f 	stmia.w	ip!, {r0, r1, r2, r3}
 8000da2:	6920      	ldr	r0, [r4, #16]
 8000da4:	6961      	ldr	r1, [r4, #20]
 8000da6:	69a2      	ldr	r2, [r4, #24]
 8000da8:	69e3      	ldr	r3, [r4, #28]
 8000daa:	e8ac 000f 	stmia.w	ip!, {r0, r1, r2, r3}
	if (nested_exc) {
 8000dae:	f89d 3026 	ldrb.w	r3, [sp, #38]	@ 0x26
 8000db2:	b14b      	cbz	r3, 8000dc8 <z_arm_fault+0x6c>
		if ((esf_copy.basic.xpsr & IPSR_ISR_Msk) == 0) {
 8000db4:	9b08      	ldr	r3, [sp, #32]
 8000db6:	f3c3 0208 	ubfx	r2, r3, #0, #9
 8000dba:	b94a      	cbnz	r2, 8000dd0 <z_arm_fault+0x74>
			esf_copy.basic.xpsr |= IPSR_ISR_Msk;
 8000dbc:	ea6f 2353 	mvn.w	r3, r3, lsr #9
 8000dc0:	ea6f 2343 	mvn.w	r3, r3, lsl #9
 8000dc4:	9308      	str	r3, [sp, #32]
 8000dc6:	e003      	b.n	8000dd0 <z_arm_fault+0x74>
		esf_copy.basic.xpsr &= ~(IPSR_ISR_Msk);
 8000dc8:	9b08      	ldr	r3, [sp, #32]
 8000dca:	f36f 0308 	bfc	r3, #0, #9
 8000dce:	9308      	str	r3, [sp, #32]
	z_arm_fatal_error(reason, &esf_copy);
 8000dd0:	a901      	add	r1, sp, #4
 8000dd2:	4628      	mov	r0, r5
 8000dd4:	f7ff fd6c 	bl	80008b0 <z_arm_fatal_error>
 8000dd8:	e7d8      	b.n	8000d8c <z_arm_fault+0x30>
 8000dda:	bf00      	nop
 8000ddc:	e000ed00 	.word	0xe000ed00

08000de0 <z_arm_fault_init>:
 */
void z_arm_fault_init(void)
{
#if defined(CONFIG_ARMV6_M_ARMV8_M_BASELINE)
#elif defined(CONFIG_ARMV7_M_ARMV8_M_MAINLINE)
	SCB->CCR |= SCB_CCR_DIV_0_TRP_Msk;
 8000de0:	4b06      	ldr	r3, [pc, #24]	@ (8000dfc <z_arm_fault_init+0x1c>)
 8000de2:	695a      	ldr	r2, [r3, #20]
 8000de4:	f042 0210 	orr.w	r2, r2, #16
 8000de8:	615a      	str	r2, [r3, #20]
	 *
	 * For Non-Secure Firmware this could allow the Non-Secure Main
	 * Stack to attempt to descend into secure region, in which case a
	 * Secure Hard Fault will occur and we can track the fault from there.
	 */
	SCB->CCR |= SCB_CCR_STKOFHFNMIGN_Msk;
 8000dea:	695a      	ldr	r2, [r3, #20]
 8000dec:	f442 6280 	orr.w	r2, r2, #1024	@ 0x400
 8000df0:	615a      	str	r2, [r3, #20]
#endif /* CONFIG_BUILTIN_STACK_GUARD */
#ifdef CONFIG_TRAP_UNALIGNED_ACCESS
	SCB->CCR |= SCB_CCR_UNALIGN_TRP_Msk;
#else
	SCB->CCR &= ~SCB_CCR_UNALIGN_TRP_Msk;
 8000df2:	695a      	ldr	r2, [r3, #20]
 8000df4:	f022 0208 	bic.w	r2, r2, #8
 8000df8:	615a      	str	r2, [r3, #20]
#endif /* CONFIG_TRAP_UNALIGNED_ACCESS */
}
 8000dfa:	4770      	bx	lr
 8000dfc:	e000ed00 	.word	0xe000ed00

08000e00 <z_arm_bus_fault>:
#else
#error Unknown ARM architecture
#endif /* CONFIG_ARMV6_M_ARMV8_M_BASELINE */
SECTION_SUBSEC_FUNC(TEXT,__fault,z_arm_exc_spurious)

	mrs r0, MSP
 8000e00:	f3ef 8008 	mrs	r0, MSP
	mrs r1, PSP
 8000e04:	f3ef 8109 	mrs	r1, PSP
	push {r0, lr}
 8000e08:	b501      	push	{r0, lr}
#elif defined(CONFIG_ARMV7_M_ARMV8_M_MAINLINE)
	push {r4-r11}
#endif
	mov  r3, sp /* pointer to _callee_saved_t */
#endif /* CONFIG_EXTRA_EXCEPTION_INFO */
	mov r2, lr /* EXC_RETURN */
 8000e0a:	4672      	mov	r2, lr
	bl z_arm_fault
 8000e0c:	f7ff ffa6 	bl	8000d5c <z_arm_fault>
	 * in this routine. Therefore, we can just reset
	 * the MSP to its value prior to entering the function
	 */
	add sp, #40
#endif
	pop {r0, pc}
 8000e10:	bd01      	pop	{r0, pc}
 8000e12:	bf00      	nop

08000e14 <__start>:
     *
     * Since these scenarios cover most of the cases, we set MSP to
     * z_main_stack here.
     *
     */
    ldr r0, =z_main_stack + CONFIG_MAIN_STACK_SIZE
 8000e14:	480c      	ldr	r0, [pc, #48]	@ (8000e48 <__start+0x34>)
    msr msp, r0
 8000e16:	f380 8808 	msr	MSP, r0
     *       to avoid any issues with suspend/resume path.
     *       Refer issue #83660 for more details.
     */
#if defined(CONFIG_DEBUG_THREAD_INFO)
    /* Clear z_sys_post_kernel flag for RTOS aware debuggers */
    movs.n r0, #0
 8000e1a:	2000      	movs	r0, #0
    ldr r1, =z_sys_post_kernel
 8000e1c:	490b      	ldr	r1, [pc, #44]	@ (8000e4c <__start+0x38>)
    strb r0, [r1]
 8000e1e:	7008      	strb	r0, [r1, #0]

    /* lock interrupts: will get unlocked when switch to main task */
#if defined(CONFIG_ARMV6_M_ARMV8_M_BASELINE)
    cpsid i
#elif defined(CONFIG_ARMV7_M_ARMV8_M_MAINLINE)
    movs.n r0, #_EXC_IRQ_DEFAULT_PRIO
 8000e20:	2010      	movs	r0, #16
    msr BASEPRI, r0
 8000e22:	f380 8811 	msr	BASEPRI, r0

    /*
     * Set PSP and use it to boot without using MSP, so that it
     * gets set to z_interrupt_stacks during initialization.
     */
    ldr r0, =z_interrupt_stacks
 8000e26:	480a      	ldr	r0, [pc, #40]	@ (8000e50 <__start+0x3c>)
    ldr r1, =CONFIG_ISR_STACK_SIZE + MPU_GUARD_ALIGN_AND_SIZE
 8000e28:	f44f 6100 	mov.w	r1, #2048	@ 0x800
    adds r0, r0, r1
 8000e2c:	1840      	adds	r0, r0, r1
    msr PSP, r0
 8000e2e:	f380 8809 	msr	PSP, r0
    mrs r0, CONTROL
 8000e32:	f3ef 8014 	mrs	r0, CONTROL
    movs r1, #(2 | CONTROL_ARM_PAC_MASK | CONTROL_ARM_BTI_MASK)
 8000e36:	2102      	movs	r1, #2
    orrs r0, r1 /* CONTROL_SPSEL_Msk */
 8000e38:	4308      	orrs	r0, r1
    msr CONTROL, r0
 8000e3a:	f380 8814 	msr	CONTROL, r0
    /*
     * When changing the stack pointer, software must use an ISB instruction
     * immediately after the MSR instruction. This ensures that instructions
     * after the ISB instruction execute using the new stack pointer.
     */
    isb
 8000e3e:	f3bf 8f6f 	isb	sy
    /*
     * 'bl' jumps the furthest of the branch instructions that are
     * supported on all platforms. So it is used when jumping to z_prep_c
     * (even though we do not intend to return).
     */
    bl z_prep_c
 8000e42:	f000 f849 	bl	8000ed8 <z_prep_c>
 8000e46:	0000      	.short	0x0000
    ldr r0, =z_main_stack + CONFIG_MAIN_STACK_SIZE
 8000e48:	20001178 	.word	0x20001178
    ldr r1, =z_sys_post_kernel
 8000e4c:	20000435 	.word	0x20000435
    ldr r0, =z_interrupt_stacks
 8000e50:	20000438 	.word	0x20000438

08000e54 <z_arm_svc>:
  bne .L_stack_frame_endif
.L_stack_frame_msp:
  mrs r0, MSP
.L_stack_frame_endif:
#elif defined(CONFIG_ARMV7_M_ARMV8_M_MAINLINE)
    tst lr, #_EXC_RETURN_SPSEL_Msk /* did we come from thread mode ? */
 8000e54:	f01e 0f04 	tst.w	lr, #4
    ite eq  /* if zero (equal), came from handler mode */
 8000e58:	bf0c      	ite	eq
        mrseq r0, MSP   /* handler mode, stack frame is on MSP */
 8000e5a:	f3ef 8008 	mrseq	r0, MSP
        mrsne r0, PSP   /* thread mode, stack frame is on PSP */
 8000e5e:	f3ef 8009 	mrsne	r0, PSP
#endif


    /* Figure out what SVC call number was invoked */

    ldr r1, [r0, #24]   /* grab address of PC from stack frame */
 8000e62:	6981      	ldr	r1, [r0, #24]
     */
#if defined(CONFIG_ARMV6_M_ARMV8_M_BASELINE)
    subs r1, r1, #2
    ldrb r1, [r1]
#elif defined(CONFIG_ARMV7_M_ARMV8_M_MAINLINE)
    ldrb r1, [r1, #-2]
 8000e64:	f811 1c02 	ldrb.w	r1, [r1, #-2]
#endif
    bne .L_oops

#endif /* CONFIG_USERSPACE */

    cmp r1, #2
 8000e68:	2902      	cmp	r1, #2
    beq .L_oops
 8000e6a:	d0ff      	beq.n	8000e6c <z_arm_svc+0x18>
#endif

#endif

.L_oops:
    push {r0, lr}
 8000e6c:	b501      	push	{r0, lr}
#else
#error Unknown ARM architecture
#endif
    mov  r1, sp /* pointer to _callee_saved_t */
#endif /* CONFIG_EXTRA_EXCEPTION_INFO */
    mov r2, lr /* EXC_RETURN */
 8000e6e:	4672      	mov	r2, lr
    bl z_do_kernel_oops
 8000e70:	f003 fac0 	bl	80043f4 <z_do_kernel_oops>

#ifdef CONFIG_USE_SWITCH
    bl arm_m_legacy_exit
#endif

    pop {r0, pc}
 8000e74:	bd01      	pop	{r0, pc}
 8000e76:	bf00      	nop

08000e78 <__NVIC_EnableIRQ>:
  \param [in]      IRQn  Device specific interrupt number.
  \note    IRQn must not be negative.
 */
__STATIC_INLINE void __NVIC_EnableIRQ(IRQn_Type IRQn)
{
  if ((int32_t)(IRQn) >= 0)
 8000e78:	2800      	cmp	r0, #0
 8000e7a:	db07      	blt.n	8000e8c <__NVIC_EnableIRQ+0x14>
  {
    __COMPILER_BARRIER();
    NVIC->ISER[(((uint32_t)IRQn) >> 5UL)] = (uint32_t)(1UL << (((uint32_t)IRQn) & 0x1FUL));
 8000e7c:	f000 021f 	and.w	r2, r0, #31
 8000e80:	0940      	lsrs	r0, r0, #5
 8000e82:	2301      	movs	r3, #1
 8000e84:	4093      	lsls	r3, r2
 8000e86:	4a02      	ldr	r2, [pc, #8]	@ (8000e90 <__NVIC_EnableIRQ+0x18>)
 8000e88:	f842 3020 	str.w	r3, [r2, r0, lsl #2]
    __COMPILER_BARRIER();
  }
}
 8000e8c:	4770      	bx	lr
 8000e8e:	bf00      	nop
 8000e90:	e000e100 	.word	0xe000e100

08000e94 <__NVIC_SetPriority>:
  \param [in]  priority  Priority to set.
  \note    The priority cannot be set for every processor exception.
 */
__STATIC_INLINE void __NVIC_SetPriority(IRQn_Type IRQn, uint32_t priority)
{
  if ((int32_t)(IRQn) >= 0)
 8000e94:	2800      	cmp	r0, #0
 8000e96:	db08      	blt.n	8000eaa <__NVIC_SetPriority+0x16>
  {
    NVIC->IPR[((uint32_t)IRQn)]               = (uint8_t)((priority << (8U - __NVIC_PRIO_BITS)) & (uint32_t)0xFFUL);
 8000e98:	0109      	lsls	r1, r1, #4
 8000e9a:	b2c9      	uxtb	r1, r1
 8000e9c:	f100 4060 	add.w	r0, r0, #3758096384	@ 0xe0000000
 8000ea0:	f500 4061 	add.w	r0, r0, #57600	@ 0xe100
 8000ea4:	f880 1300 	strb.w	r1, [r0, #768]	@ 0x300
 8000ea8:	4770      	bx	lr
  }
  else
  {
    SCB->SHPR[(((uint32_t)IRQn) & 0xFUL)-4UL] = (uint8_t)((priority << (8U - __NVIC_PRIO_BITS)) & (uint32_t)0xFFUL);
 8000eaa:	f000 000f 	and.w	r0, r0, #15
 8000eae:	0109      	lsls	r1, r1, #4
 8000eb0:	b2c9      	uxtb	r1, r1
 8000eb2:	4b01      	ldr	r3, [pc, #4]	@ (8000eb8 <__NVIC_SetPriority+0x24>)
 8000eb4:	5419      	strb	r1, [r3, r0]
  }
}
 8000eb6:	4770      	bx	lr
 8000eb8:	e000ed14 	.word	0xe000ed14

08000ebc <relocate_vector_table>:
	/* Copy vector table to its location in SRAM */
	size_t vector_size = (size_t)_vector_end - (size_t)_vector_start;

	arch_early_memcpy(_sram_vector_start, _vector_start, vector_size);
#endif
	SCB->VTOR = VECTOR_ADDRESS & VTOR_MASK;
 8000ebc:	4b04      	ldr	r3, [pc, #16]	@ (8000ed0 <relocate_vector_table+0x14>)
 8000ebe:	f023 037f 	bic.w	r3, r3, #127	@ 0x7f
 8000ec2:	4a04      	ldr	r2, [pc, #16]	@ (8000ed4 <relocate_vector_table+0x18>)
 8000ec4:	6093      	str	r3, [r2, #8]
  __ASM volatile ("dsb 0xF":::"memory");
 8000ec6:	f3bf 8f4f 	dsb	sy
  __ASM volatile ("isb 0xF":::"memory");
 8000eca:	f3bf 8f6f 	isb	sy
	barrier_dsync_fence_full();
	barrier_isync_fence_full();
}
 8000ece:	4770      	bx	lr
 8000ed0:	08000000 	.word	0x08000000
 8000ed4:	e000ed00 	.word	0xe000ed00

08000ed8 <z_prep_c>:
 *
 * This routine prepares for the execution of and runs C code.
 *
 */
FUNC_NORETURN void z_prep_c(void)
{
 8000ed8:	b508      	push	{r3, lr}
	soc_prep_hook();

	relocate_vector_table();
 8000eda:	f7ff ffef 	bl	8000ebc <relocate_vector_table>
	SCB->CPACR &= (~(CPACR_CP10_Msk | CPACR_CP11_Msk));
 8000ede:	4a0b      	ldr	r2, [pc, #44]	@ (8000f0c <z_prep_c+0x34>)
 8000ee0:	f8d2 3088 	ldr.w	r3, [r2, #136]	@ 0x88
 8000ee4:	f423 0370 	bic.w	r3, r3, #15728640	@ 0xf00000
 8000ee8:	f8c2 3088 	str.w	r3, [r2, #136]	@ 0x88
  __ASM volatile ("MRS %0, control" : "=r" (result) );
 8000eec:	f3ef 8314 	mrs	r3, CONTROL
	__set_CONTROL(__get_CONTROL() & (~(CONTROL_FPCA_Msk)));
 8000ef0:	f023 0304 	bic.w	r3, r3, #4
  __ASM volatile ("MSR control, %0" : : "r" (control) : "memory");
 8000ef4:	f383 8814 	msr	CONTROL, r3
 8000ef8:	f3bf 8f6f 	isb	sy
#if defined(CONFIG_CPU_HAS_FPU)
	z_arm_floating_point_init();
#endif
	arch_bss_zero();
 8000efc:	f7ff fc92 	bl	8000824 <arch_bss_zero>
	arch_data_copy();
 8000f00:	f7ff fc9c 	bl	800083c <arch_data_copy>
#if defined(CONFIG_ARM_CUSTOM_INTERRUPT_CONTROLLER)
	/* Invoke SoC-specific interrupt controller initialization */
	z_soc_irq_init();
#else
	z_arm_interrupt_init();
 8000f04:	f000 f8ac 	bl	8001060 <z_arm_interrupt_init>
#endif

#ifdef CONFIG_NULL_POINTER_EXCEPTION_DETECTION_DWT
	z_arm_debug_enable_null_pointer_detection();
#endif
	z_cstart();
 8000f08:	f001 fdc2 	bl	8002a90 <z_cstart>
 8000f0c:	e000ed00 	.word	0xe000ed00

08000f10 <arch_new_thread>:
 * addresses, we have to unset it manually before storing it in the 'pc' field
 * of the ESF.
 */
void arch_new_thread(struct k_thread *thread, k_thread_stack_t *stack, char *stack_ptr,
		     k_thread_entry_t entry, void *p1, void *p2, void *p3)
{
 8000f10:	b410      	push	{r4}
#ifdef CONFIG_USE_SWITCH
	thread->switch_handle = arm_m_new_stack((char *)stack, stack_ptr - (char *)stack,
						entry_wrapper, entry, p1, p2, p3);
	thread->arch.iciit_pc = 0;
#else
	struct __basic_sf *iframe = Z_STACK_PTR_TO_FRAME(struct __basic_sf, stack_ptr);
 8000f12:	f1a2 0420 	sub.w	r4, r2, #32
	if ((thread->base.user_options & K_USER) != 0) {
		setup_priv_stack(thread);
		iframe = Z_STACK_PTR_TO_FRAME(struct __basic_sf, thread->arch.priv_stack_end);
	}
#endif
	iframe->pc = (uint32_t)entry_wrapper;
 8000f16:	490e      	ldr	r1, [pc, #56]	@ (8000f50 <arch_new_thread+0x40>)
 8000f18:	f842 1c08 	str.w	r1, [r2, #-8]

	/* force ARM mode by clearing LSB of address */
	iframe->pc &= 0xfffffffe;
 8000f1c:	f021 0101 	bic.w	r1, r1, #1
 8000f20:	f842 1c08 	str.w	r1, [r2, #-8]
	iframe->a1 = (uint32_t)entry;
 8000f24:	f842 3c20 	str.w	r3, [r2, #-32]
	iframe->a2 = (uint32_t)p1;
 8000f28:	9b01      	ldr	r3, [sp, #4]
 8000f2a:	f842 3c1c 	str.w	r3, [r2, #-28]
	iframe->a3 = (uint32_t)p2;
 8000f2e:	9b02      	ldr	r3, [sp, #8]
 8000f30:	f842 3c18 	str.w	r3, [r2, #-24]
	iframe->a4 = (uint32_t)p3;
 8000f34:	9b03      	ldr	r3, [sp, #12]
 8000f36:	f842 3c14 	str.w	r3, [r2, #-20]

	iframe->xpsr = 0x01000000UL; /* clear all, thumb bit is 1, even if RO */
 8000f3a:	f04f 7380 	mov.w	r3, #16777216	@ 0x1000000
 8000f3e:	f842 3c04 	str.w	r3, [r2, #-4]

	thread->callee_saved.psp = (uint32_t)iframe;
 8000f42:	6504      	str	r4, [r0, #80]	@ 0x50
#endif

#ifndef CONFIG_USE_SWITCH
	thread->arch.basepri = 0;
 8000f44:	2300      	movs	r3, #0
 8000f46:	f8c0 30a8 	str.w	r3, [r0, #168]	@ 0xa8
#endif
	/*
	 * initial values in all other registers/thread entries are
	 * irrelevant.
	 */
}
 8000f4a:	bc10      	pop	{r4}
 8000f4c:	4770      	bx	lr
 8000f4e:	bf00      	nop
 8000f50:	08000685 	.word	0x08000685

08000f54 <arch_switch_to_main_thread>:
#endif /* CONFIG_FPU */
}

void arch_switch_to_main_thread(struct k_thread *main_thread, char *stack_ptr,
				k_thread_entry_t _main)
{
 8000f54:	b500      	push	{lr}
 8000f56:	460e      	mov	r6, r1
 8000f58:	4615      	mov	r5, r2
	z_arm_prepare_switch_to_main();

	z_current_thread_set(main_thread);
 8000f5a:	4b0d      	ldr	r3, [pc, #52]	@ (8000f90 <arch_switch_to_main_thread+0x3c>)
 8000f5c:	6098      	str	r0, [r3, #8]
	 * thread for the first time, as the pointer is only set
	 * during context switching.
	 */
	extern uintptr_t z_arm_tls_ptr;

	z_arm_tls_ptr = main_thread->tls;
 8000f5e:	f8d0 20a4 	ldr.w	r2, [r0, #164]	@ 0xa4
 8000f62:	4b0c      	ldr	r3, [pc, #48]	@ (8000f94 <arch_switch_to_main_thread+0x40>)
 8000f64:	601a      	str	r2, [r3, #0]
#endif

#if defined(CONFIG_BUILTIN_STACK_GUARD)
	/* Set PSPLIM register for built-in stack guarding of main thread. */
#if defined(CONFIG_CPU_CORTEX_M_HAS_SPLIM)
	__set_PSPLIM(main_thread->stack_info.start);
 8000f66:	f8d0 3094 	ldr.w	r3, [r0, #148]	@ 0x94
     !(defined (__ARM_ARCH_8_1M_MAIN__ ) && (__ARM_ARCH_8_1M_MAIN__ == 1)) && \
     (!defined (__ARM_FEATURE_CMSE  ) || (__ARM_FEATURE_CMSE   < 3)))
  /* without main extensions, the non-secure PSPLIM is RAZ/WI */
  (void)ProcStackPtrLimit;
#else
  __ASM volatile ("MSR psplim, %0" : : "r" (ProcStackPtrLimit));
 8000f6a:	f383 880b 	msr	PSPLIM, r3
	 * with the thread entry process.
	 *
	 * When calling arch_irq_unlock_outlined, LR is lost which is fine since
	 * we do not intend to return after calling z_thread_entry.
	 */
	__asm__ volatile("mov   r4,  %0\n" /* force _main to be stored in a register */
 8000f6e:	462c      	mov	r4, r5
 8000f70:	f386 8809 	msr	PSP, r6
 8000f74:	2000      	movs	r0, #0
 8000f76:	4b04      	ldr	r3, [pc, #16]	@ (8000f88 <arch_switch_to_main_thread+0x34>)
 8000f78:	4798      	blx	r3
 8000f7a:	4620      	mov	r0, r4
 8000f7c:	2100      	movs	r1, #0
 8000f7e:	2200      	movs	r2, #0
 8000f80:	2300      	movs	r3, #0
 8000f82:	4c02      	ldr	r4, [pc, #8]	@ (8000f8c <arch_switch_to_main_thread+0x38>)
 8000f84:	4720      	bx	r4
 8000f86:	0000      	.short	0x0000
 8000f88:	0800448d 	.word	0x0800448d
 8000f8c:	08000685 	.word	0x08000685
#endif
			 :
			 : "r"(_main), "r"(stack_ptr)
			 : "r0", "r1", "r2", "r3", "r4", "ip", "lr", "memory");

	CODE_UNREACHABLE;
 8000f90:	20000400 	.word	0x20000400
 8000f94:	20000350 	.word	0x20000350

08000f98 <z_arm_cpu_idle_init>:
 * Only called by arch_kernel_init(). Sets SEVONPEND bit once for the system's
 * duration.
 */
void z_arm_cpu_idle_init(void)
{
	SCB->SCR = SCB_SCR_SEVONPEND_Msk;
 8000f98:	4b01      	ldr	r3, [pc, #4]	@ (8000fa0 <z_arm_cpu_idle_init+0x8>)
 8000f9a:	2210      	movs	r2, #16
 8000f9c:	611a      	str	r2, [r3, #16]
}
 8000f9e:	4770      	bx	lr
 8000fa0:	e000ed00 	.word	0xe000ed00

08000fa4 <z_arm_exc_exit>:
 *
 */
Z_GENERIC_SECTION(.text._HandlerModeExit) void z_arm_exc_exit(void)
{
#ifdef CONFIG_PREEMPT_ENABLED
	if (_kernel.ready_q.cache != _kernel.cpus->current) {
 8000fa4:	4b05      	ldr	r3, [pc, #20]	@ (8000fbc <z_arm_exc_exit+0x18>)
 8000fa6:	695a      	ldr	r2, [r3, #20]
 8000fa8:	689b      	ldr	r3, [r3, #8]
 8000faa:	429a      	cmp	r2, r3
 8000fac:	d004      	beq.n	8000fb8 <z_arm_exc_exit+0x14>
		SCB->ICSR |= SCB_ICSR_PENDSVSET_Msk;
 8000fae:	4a04      	ldr	r2, [pc, #16]	@ (8000fc0 <z_arm_exc_exit+0x1c>)
 8000fb0:	6853      	ldr	r3, [r2, #4]
 8000fb2:	f043 5380 	orr.w	r3, r3, #268435456	@ 0x10000000
 8000fb6:	6053      	str	r3, [r2, #4]
#endif /* CONFIG_PREEMPT_ENABLED */

#ifdef CONFIG_STACK_SENTINEL
	z_check_stack_sentinel();
#endif /* CONFIG_STACK_SENTINEL */
}
 8000fb8:	4770      	bx	lr
 8000fba:	bf00      	nop
 8000fbc:	20000400 	.word	0x20000400
 8000fc0:	e000ed00 	.word	0xe000ed00

08000fc4 <z_impl_k_thread_abort>:
#include <zephyr/linker/sections.h>
#include <kswap.h>
#include <zephyr/sys/__assert.h>

void z_impl_k_thread_abort(k_tid_t thread)
{
 8000fc4:	b508      	push	{r3, lr}
	SYS_PORT_TRACING_OBJ_FUNC_ENTER(k_thread, abort, thread);

	if (_current == thread) {
 8000fc6:	4b0a      	ldr	r3, [pc, #40]	@ (8000ff0 <z_impl_k_thread_abort+0x2c>)
 8000fc8:	689b      	ldr	r3, [r3, #8]
 8000fca:	4283      	cmp	r3, r0
 8000fcc:	d002      	beq.n	8000fd4 <z_impl_k_thread_abort+0x10>
			 */
			SCB->SHCSR &= ~SCB_SHCSR_SVCALLPENDED_Msk;
		}
	}

	z_thread_abort(thread);
 8000fce:	f002 f81b 	bl	8003008 <z_thread_abort>

	SYS_PORT_TRACING_OBJ_FUNC_EXIT(k_thread, abort, thread);
}
 8000fd2:	bd08      	pop	{r3, pc}
  __ASM volatile ("MRS %0, ipsr" : "=r" (result) );
 8000fd4:	f3ef 8305 	mrs	r3, IPSR
		if (arch_is_in_isr()) {
 8000fd8:	2b00      	cmp	r3, #0
 8000fda:	d0f8      	beq.n	8000fce <z_impl_k_thread_abort+0xa>
			SCB->ICSR |= SCB_ICSR_PENDSVSET_Msk;
 8000fdc:	4b05      	ldr	r3, [pc, #20]	@ (8000ff4 <z_impl_k_thread_abort+0x30>)
 8000fde:	685a      	ldr	r2, [r3, #4]
 8000fe0:	f042 5280 	orr.w	r2, r2, #268435456	@ 0x10000000
 8000fe4:	605a      	str	r2, [r3, #4]
			SCB->SHCSR &= ~SCB_SHCSR_SVCALLPENDED_Msk;
 8000fe6:	6a5a      	ldr	r2, [r3, #36]	@ 0x24
 8000fe8:	f422 4200 	bic.w	r2, r2, #32768	@ 0x8000
 8000fec:	625a      	str	r2, [r3, #36]	@ 0x24
 8000fee:	e7ee      	b.n	8000fce <z_impl_k_thread_abort+0xa>
 8000ff0:	20000400 	.word	0x20000400
 8000ff4:	e000ed00 	.word	0xe000ed00

08000ff8 <z_arm_pendsv>:
    /* load _kernel into r1 and current k_thread into r2 */
#if defined(CONFIG_SLOW_FLASH_DATA)
    movw r1, #:lower16:_kernel
    movt r1, #:upper16:_kernel
#else
    ldr r1, =_kernel
 8000ff8:	4916      	ldr	r1, [pc, #88]	@ (8001054 <z_arm_pendsv+0x5c>)
#endif
    ldr r2, [r1, #_kernel_offset_to_current]
 8000ffa:	688a      	ldr	r2, [r1, #8]
    /* Store LSB of LR (EXC_RETURN) to the thread's 'mode' word. */
    strb lr, [r2, #_thread_offset_to_mode_exc_return]
#endif

    /* addr of callee-saved regs in thread in r0 */
    ldr r0, =_thread_offset_to_callee_saved
 8000ffc:	f04f 0030 	mov.w	r0, #48	@ 0x30
    add r0, r2
 8001000:	4410      	add	r0, r2

    /* save callee-saved + psp in thread */
    mrs ip, PSP
 8001002:	f3ef 8c09 	mrs	ip, PSP
    mov r6, r11
    mov r7, ip
    /* store r8-12 */
    stmea r0!, {r3-r7}
#elif defined(CONFIG_ARMV7_M_ARMV8_M_MAINLINE)
    stmia r0, {r4-r11, ip}
 8001006:	e880 1ff0 	stmia.w	r0, {r4, r5, r6, r7, r8, r9, sl, fp, ip}

    /* Protect the kernel state while we play with the thread lists */
#if defined(CONFIG_ARMV6_M_ARMV8_M_BASELINE)
    cpsid i
#elif defined(CONFIG_ARMV7_M_ARMV8_M_MAINLINE)
    movs.n r0, #_EXC_IRQ_DEFAULT_PRIO
 800100a:	2010      	movs	r0, #16
    msr BASEPRI_MAX, r0
 800100c:	f380 8812 	msr	BASEPRI_MAX, r0
    isb /* Make the effect of disabling interrupts be realized immediately */
 8001010:	f3bf 8f6f 	isb	sy
     */
#if defined(CONFIG_SLOW_FLASH_DATA)
    movw r7, #:lower16:_SCS_ICSR
    movt r7, #:upper16:_SCS_ICSR
#else
    ldr r7, =_SCS_ICSR
 8001014:	4f10      	ldr	r7, [pc, #64]	@ (8001058 <z_arm_pendsv+0x60>)
#endif
    ldr r6, =_SCS_ICSR_UNPENDSV
 8001016:	f04f 6600 	mov.w	r6, #134217728	@ 0x8000000

    /* _kernel is still in r1 */

    /* fetch the thread to run from the ready queue cache */
    ldr r2, [r1, #_kernel_offset_to_ready_q_cache]
 800101a:	694a      	ldr	r2, [r1, #20]

    str r2, [r1, #_kernel_offset_to_current]
 800101c:	608a      	str	r2, [r1, #8]
     * since they were based on the previous kernel state and this
     * has been handled.
     */

    /* _SCS_ICSR is still in r7 and _SCS_ICSR_UNPENDSV in r6 */
    str r6, [r7, #0]
 800101e:	603e      	str	r6, [r7, #0]
#if defined(CONFIG_ARMV6_M_ARMV8_M_BASELINE)
    ldr r4, =_thread_offset_to_tls
    adds r4, r2, r4
    ldr r0, [r4]
#else
    ldr r0, [r2, #_thread_offset_to_tls]
 8001020:	f8d2 00a4 	ldr.w	r0, [r2, #164]	@ 0xa4

    /* For Cortex-M, store TLS pointer in a global variable,
     * as it lacks the process ID or thread ID register
     * to be used by toolchain to access thread data.
     */
    ldr r4, =z_arm_tls_ptr
 8001024:	4c0d      	ldr	r4, [pc, #52]	@ (800105c <z_arm_pendsv+0x64>)
    str r0, [r4]
 8001026:	6020      	str	r0, [r4, #0]

    ldr r0, [r4]
    movs.n r3, #0
    str r3, [r4]
#else
    ldr r0, [r2, #_thread_offset_to_basepri]
 8001028:	f8d2 00a8 	ldr.w	r0, [r2, #168]	@ 0xa8
    movs r3, #0
 800102c:	2300      	movs	r3, #0
    str r3, [r2, #_thread_offset_to_basepri]
 800102e:	f8c2 30a8 	str.w	r3, [r2, #168]	@ 0xa8
    /* restore r4-r7, go back 9*4 bytes to the start of the stored block */
    subs r0, #36
    ldmia r0!, {r4-r7}
#elif defined(CONFIG_ARMV7_M_ARMV8_M_MAINLINE)
    /* restore BASEPRI for the incoming thread */
    msr BASEPRI, r0
 8001032:	f380 8811 	msr	BASEPRI, r0
    msr  PAC_KEY_P_3, r6
    clrm {r3-r6}
#endif /* CONFIG_ARM_PAC_PER_THREAD */

    /* load callee-saved + psp from thread */
    add r0, r2, #_thread_offset_to_callee_saved
 8001036:	f102 0030 	add.w	r0, r2, #48	@ 0x30
    ldmia r0, {r4-r11, ip}
 800103a:	e890 1ff0 	ldmia.w	r0, {r4, r5, r6, r7, r8, r9, sl, fp, ip}
#else
#error Unknown ARM architecture
#endif /* CONFIG_ARMV6_M_ARMV8_M_BASELINE */

    msr PSP, ip
 800103e:	f38c 8809 	msr	PSP, ip

#ifdef CONFIG_BUILTIN_STACK_GUARD
    /* r2 contains k_thread */
    add r0, r2, #0
 8001042:	f102 0000 	add.w	r0, r2, #0
    push {r2, lr}
 8001046:	b504      	push	{r2, lr}
    bl configure_builtin_stack_guard
 8001048:	f003 fa18 	bl	800447c <configure_builtin_stack_guard>
    pop {r2, lr}
 800104c:	e8bd 4004 	ldmia.w	sp!, {r2, lr}
#endif /* CONFIG_INSTRUMENT_THREAD_SWITCHING */

    /*
     * Cortex-M: return from PendSV exception
     */
    bx lr
 8001050:	4770      	bx	lr
 8001052:	0000      	.short	0x0000
    ldr r1, =_kernel
 8001054:	20000400 	.word	0x20000400
    ldr r7, =_SCS_ICSR
 8001058:	e000ed04 	.word	0xe000ed04
    ldr r4, =z_arm_tls_ptr
 800105c:	20000350 	.word	0x20000350

08001060 <z_arm_interrupt_init>:
 *
 */

void z_arm_interrupt_init(void)
{
	int irq = 0;
 8001060:	2200      	movs	r2, #0

/* CONFIG_2ND_LVL_ISR_TBL_OFFSET could be treated as total number of level1 interrupts */
#if defined(CONFIG_MULTI_LEVEL_INTERRUPTS) && defined(CONFIG_2ND_LVL_ISR_TBL_OFFSET)
	for (; irq < CONFIG_2ND_LVL_ISR_TBL_OFFSET; irq++) {
#else
	for (; irq < CONFIG_NUM_IRQS; irq++) {
 8001062:	e006      	b.n	8001072 <z_arm_interrupt_init+0x12>
    SCB->SHPR[(((uint32_t)IRQn) & 0xFUL)-4UL] = (uint8_t)((priority << (8U - __NVIC_PRIO_BITS)) & (uint32_t)0xFFUL);
 8001064:	f003 030f 	and.w	r3, r3, #15
 8001068:	4909      	ldr	r1, [pc, #36]	@ (8001090 <z_arm_interrupt_init+0x30>)
 800106a:	4419      	add	r1, r3
 800106c:	2310      	movs	r3, #16
 800106e:	760b      	strb	r3, [r1, #24]
 8001070:	3201      	adds	r2, #1
 8001072:	2a80      	cmp	r2, #128	@ 0x80
 8001074:	dc0a      	bgt.n	800108c <z_arm_interrupt_init+0x2c>
#endif
		NVIC_SetPriority((IRQn_Type)irq, _IRQ_PRIO_OFFSET);
 8001076:	b213      	sxth	r3, r2
  if ((int32_t)(IRQn) >= 0)
 8001078:	2b00      	cmp	r3, #0
 800107a:	dbf3      	blt.n	8001064 <z_arm_interrupt_init+0x4>
    NVIC->IPR[((uint32_t)IRQn)]               = (uint8_t)((priority << (8U - __NVIC_PRIO_BITS)) & (uint32_t)0xFFUL);
 800107c:	f103 4360 	add.w	r3, r3, #3758096384	@ 0xe0000000
 8001080:	f503 4361 	add.w	r3, r3, #57600	@ 0xe100
 8001084:	2110      	movs	r1, #16
 8001086:	f883 1300 	strb.w	r1, [r3, #768]	@ 0x300
 800108a:	e7f1      	b.n	8001070 <z_arm_interrupt_init+0x10>
	}
}
 800108c:	4770      	bx	lr
 800108e:	bf00      	nop
 8001090:	e000ecfc 	.word	0xe000ecfc

08001094 <_isr_wrapper>:
 * z_arm_pendsv()) and pends the PendSV exception if so: the latter will
 * perform the context switch itself.
 *
 */
void _isr_wrapper(void)
{
 8001094:	b508      	push	{r3, lr}
 8001096:	f3ef 8305 	mrs	r3, IPSR
#endif
	/* _sw_isr_table does not map the core system exceptions,
	 * which take first 16 interrupt numbers, only the external
	 * interrupts.
	 */
	irq_number -= 16;
 800109a:	3b10      	subs	r3, #16

	const struct _isr_table_entry *entry = &_sw_isr_table[irq_number];
	(entry->isr)(entry->arg);
 800109c:	4a04      	ldr	r2, [pc, #16]	@ (80010b0 <_isr_wrapper+0x1c>)
 800109e:	eb02 01c3 	add.w	r1, r2, r3, lsl #3
 80010a2:	6849      	ldr	r1, [r1, #4]
 80010a4:	f852 0033 	ldr.w	r0, [r2, r3, lsl #3]
 80010a8:	4788      	blx	r1

#ifdef CONFIG_TRACING_ISR
	sys_trace_isr_exit();
#endif /* CONFIG_TRACING_ISR */

	z_arm_exc_exit();
 80010aa:	f7ff ff7b 	bl	8000fa4 <z_arm_exc_exit>
}
 80010ae:	bd08      	pop	{r3, pc}
 80010b0:	080056ac 	.word	0x080056ac

080010b4 <__aeabi_read_tp>:
 *
 * This can only be guaranteed by either implementing a naked C function with
 * inline assembly, or plain assembly.
 */
SECTION_FUNC(TEXT, __aeabi_read_tp)
	ldr r0, =z_arm_tls_ptr
 80010b4:	4801      	ldr	r0, [pc, #4]	@ (80010bc <__aeabi_read_tp+0x8>)
	ldr r0, [r0]
 80010b6:	6800      	ldr	r0, [r0, #0]
	bx lr
 80010b8:	4770      	bx	lr
 80010ba:	0000      	.short	0x0000
	ldr r0, =z_arm_tls_ptr
 80010bc:	20000350 	.word	0x20000350

080010c0 <z_arm_configure_static_mpu_regions>:
 *
 * For some MPU architectures, such as the unmodified ARMv8-M MPU,
 * the function must execute with MPU enabled.
 */
void z_arm_configure_static_mpu_regions(void)
{
 80010c0:	b510      	push	{r4, lr}
 80010c2:	b084      	sub	sp, #16
	 * into account the unused SRAM area, as well.
	 */
#ifdef CONFIG_AARCH32_ARMV8_R
	arm_core_mpu_disable();
#endif
	arm_core_mpu_configure_static_mpu_regions(static_regions,
 80010c4:	4c0a      	ldr	r4, [pc, #40]	@ (80010f0 <z_arm_configure_static_mpu_regions+0x30>)
 80010c6:	4623      	mov	r3, r4
 80010c8:	4a0a      	ldr	r2, [pc, #40]	@ (80010f4 <z_arm_configure_static_mpu_regions+0x34>)
 80010ca:	2101      	movs	r1, #1
 80010cc:	480a      	ldr	r0, [pc, #40]	@ (80010f8 <z_arm_configure_static_mpu_regions+0x38>)
 80010ce:	f003 fb24 	bl	800471a <arm_core_mpu_configure_static_mpu_regions>
	/* Define a constant array of z_arm_mpu_partition objects that holds the
	 * boundaries of the areas, inside which dynamic region programming
	 * is allowed. The information is passed to the underlying driver at
	 * initialization.
	 */
	const struct z_arm_mpu_partition dyn_region_areas[] = {
 80010d2:	a801      	add	r0, sp, #4
 80010d4:	2300      	movs	r3, #0
 80010d6:	9301      	str	r3, [sp, #4]
 80010d8:	6043      	str	r3, [r0, #4]
 80010da:	6083      	str	r3, [r0, #8]
		{
		.start = _MPU_DYNAMIC_REGIONS_AREA_START,
 80010dc:	4b07      	ldr	r3, [pc, #28]	@ (80010fc <z_arm_configure_static_mpu_regions+0x3c>)
	const struct z_arm_mpu_partition dyn_region_areas[] = {
 80010de:	9301      	str	r3, [sp, #4]
		.size =  _MPU_DYNAMIC_REGIONS_AREA_SIZE,
 80010e0:	1ae4      	subs	r4, r4, r3
	const struct z_arm_mpu_partition dyn_region_areas[] = {
 80010e2:	9402      	str	r4, [sp, #8]
		}
	};

	arm_core_mpu_mark_areas_for_dynamic_regions(dyn_region_areas,
 80010e4:	2101      	movs	r1, #1
 80010e6:	f003 fb1c 	bl	8004722 <arm_core_mpu_mark_areas_for_dynamic_regions>
		ARRAY_SIZE(dyn_region_areas));
#endif /* CONFIG_MPU_REQUIRES_NON_OVERLAPPING_REGIONS */
}
 80010ea:	b004      	add	sp, #16
 80010ec:	bd10      	pop	{r4, pc}
 80010ee:	bf00      	nop
 80010f0:	20040000 	.word	0x20040000
 80010f4:	20000000 	.word	0x20000000
 80010f8:	08006260 	.word	0x08006260
 80010fc:	20000078 	.word	0x20000078

08001100 <mpu_init>:
#if defined(CONFIG_CPU_CORTEX_M23) || defined(CONFIG_CPU_CORTEX_M33) || \
	defined(CONFIG_CPU_CORTEX_M52) || defined(CONFIG_CPU_CORTEX_M55) || \
	defined(CONFIG_CPU_CORTEX_M85)
static inline void mpu_set_mair0(uint32_t mair0)
{
	MPU->MAIR0 = mair0;
 8001100:	4b02      	ldr	r3, [pc, #8]	@ (800110c <mpu_init+0xc>)
 8001102:	4a03      	ldr	r2, [pc, #12]	@ (8001110 <mpu_init+0x10>)
 8001104:	f8c3 20c0 	str.w	r2, [r3, #192]	@ 0xc0
{
	/* Configure the cache-ability attributes for all the
	 * different types of memory regions.
	 */
	mpu_set_mair0(MPU_MAIR_ATTRS);
}
 8001108:	4770      	bx	lr
 800110a:	bf00      	nop
 800110c:	e000ed00 	.word	0xe000ed00
 8001110:	0044ffaa 	.word	0x0044ffaa

08001114 <mpu_set_region>:
	MPU->RNR = rnr;
 8001114:	4b03      	ldr	r3, [pc, #12]	@ (8001124 <mpu_set_region+0x10>)
 8001116:	f8c3 0098 	str.w	r0, [r3, #152]	@ 0x98
	MPU->RBAR = rbar;
 800111a:	f8c3 109c 	str.w	r1, [r3, #156]	@ 0x9c
	MPU->RLAR = rlar;
 800111e:	f8c3 20a0 	str.w	r2, [r3, #160]	@ 0xa0
static void mpu_set_region(uint32_t rnr, uint32_t rbar, uint32_t rlar)
{
	mpu_set_rnr(rnr);
	mpu_set_rbar(rbar);
	mpu_set_rlar(rlar);
}
 8001122:	4770      	bx	lr
 8001124:	e000ed00 	.word	0xe000ed00

08001128 <mpu_region_get_conf>:
	MPU->RNR = rnr;
 8001128:	4b0e      	ldr	r3, [pc, #56]	@ (8001164 <mpu_region_get_conf+0x3c>)
 800112a:	f8c3 0098 	str.w	r0, [r3, #152]	@ 0x98
 800112e:	f8c3 0098 	str.w	r0, [r3, #152]	@ 0x98
	return MPU->RBAR;
 8001132:	f8d3 009c 	ldr.w	r0, [r3, #156]	@ 0x9c
static inline void mpu_region_get_access_attr(const uint32_t index,
	arm_mpu_region_attr_t *attr)
{
	mpu_set_rnr(index);

	attr->rbar = mpu_get_rbar() &
 8001136:	7a0a      	ldrb	r2, [r1, #8]
 8001138:	f360 0204 	bfi	r2, r0, #0, #5
 800113c:	720a      	strb	r2, [r1, #8]
	return MPU->RLAR;
 800113e:	f8d3 20a0 	ldr.w	r2, [r3, #160]	@ 0xa0
		(MPU_RBAR_XN_Msk | MPU_RBAR_AP_Msk | MPU_RBAR_SH_Msk);
	attr->mair_idx = (mpu_get_rlar() & MPU_RLAR_AttrIndx_Msk) >>
 8001142:	f3c2 0242 	ubfx	r2, r2, #1, #3
 8001146:	7a08      	ldrb	r0, [r1, #8]
 8001148:	f362 1047 	bfi	r0, r2, #5, #3
 800114c:	7208      	strb	r0, [r1, #8]
	return MPU->RBAR;
 800114e:	f8d3 209c 	ldr.w	r2, [r3, #156]	@ 0x9c
	 * - Access Permissions
	 */
	mpu_region_get_access_attr(index, &region_conf->attr);

	/* Region base address */
	region_conf->base = mpu_get_rbar() & MPU_RBAR_BASE_Msk;
 8001152:	f022 021f 	bic.w	r2, r2, #31
 8001156:	600a      	str	r2, [r1, #0]
	return MPU->RLAR;
 8001158:	f8d3 30a0 	ldr.w	r3, [r3, #160]	@ 0xa0

	/* Region limit address */
	region_conf->attr.r_limit = mpu_get_rlar() & MPU_RLAR_LIMIT_Msk;
 800115c:	f023 031f 	bic.w	r3, r3, #31
 8001160:	60cb      	str	r3, [r1, #12]
}
 8001162:	4770      	bx	lr
 8001164:	e000ed00 	.word	0xe000ed00

08001168 <region_allocate_and_init>:
	uint32_t type = MPU->TYPE;
 8001168:	4b08      	ldr	r3, [pc, #32]	@ (800118c <region_allocate_and_init+0x24>)
 800116a:	f8d3 3090 	ldr.w	r3, [r3, #144]	@ 0x90

static int region_allocate_and_init(const uint8_t index,
	const struct arm_mpu_region *region_conf)
{
	/* Attempt to allocate new region index. */
	if (index > (get_num_regions() - 1U)) {
 800116e:	f3c3 2307 	ubfx	r3, r3, #8, #8
 8001172:	3b01      	subs	r3, #1
 8001174:	4298      	cmp	r0, r3
 8001176:	d805      	bhi.n	8001184 <region_allocate_and_init+0x1c>
{
 8001178:	b510      	push	{r4, lr}
 800117a:	4604      	mov	r4, r0
	}

	LOG_DBG("Program MPU region at index 0x%x", index);

	/* Program region */
	region_init(index, region_conf);
 800117c:	f003 f9a4 	bl	80044c8 <region_init>

	return index;
 8001180:	4620      	mov	r0, r4
}
 8001182:	bd10      	pop	{r4, pc}
		return -EINVAL;
 8001184:	f06f 0015 	mvn.w	r0, #21
}
 8001188:	4770      	bx	lr
 800118a:	bf00      	nop
 800118c:	e000ed00 	.word	0xe000ed00

08001190 <mpu_configure_regions_and_partition>:
 * area, effectively, leaving no space in this area uncovered by MPU.
 */
static int mpu_configure_regions_and_partition(const struct z_arm_mpu_partition
	regions[], uint8_t regions_num, uint8_t start_reg_index,
	bool do_coherence_check)
{
 8001190:	e92d 4ff0 	stmdb	sp!, {r4, r5, r6, r7, r8, r9, sl, fp, lr}
 8001194:	b087      	sub	sp, #28
 8001196:	4681      	mov	r9, r0
 8001198:	9100      	str	r1, [sp, #0]
 800119a:	9301      	str	r3, [sp, #4]
	int i;
	int reg_index = start_reg_index;
 800119c:	4614      	mov	r4, r2

	for (i = 0; i < regions_num; i++) {
 800119e:	2700      	movs	r7, #0
 80011a0:	e035      	b.n	800120e <mpu_configure_regions_and_partition+0x7e>
		 */
		uint32_t u_reg_base = mpu_region_get_base(u_reg_index);
		uint32_t u_reg_last = mpu_region_get_last_addr(u_reg_index);
		uint32_t reg_last = regions[i].start + regions[i].size - 1;

		if ((regions[i].start == u_reg_base) &&
 80011a2:	45c3      	cmp	fp, r8
 80011a4:	d166      	bne.n	8001274 <mpu_configure_regions_and_partition+0xe4>
			 * underlying region. In this case we simply
			 * update the partition attributes of the
			 * underlying region with those of the new
			 * region.
			 */
			mpu_configure_region(u_reg_index, &regions[i]);
 80011a6:	4629      	mov	r1, r5
 80011a8:	b2c0      	uxtb	r0, r0
 80011aa:	f003 f9b3 	bl	8004514 <mpu_configure_region>
 80011ae:	e02d      	b.n	800120c <mpu_configure_regions_and_partition+0x7c>
	MPU->RNR = rnr;
 80011b0:	4a5a      	ldr	r2, [pc, #360]	@ (800131c <mpu_configure_regions_and_partition+0x18c>)
 80011b2:	f8c2 6098 	str.w	r6, [r2, #152]	@ 0x98
	return MPU->RBAR;
 80011b6:	f8d2 309c 	ldr.w	r3, [r2, #156]	@ 0x9c
	mpu_set_rbar((mpu_get_rbar() & (~MPU_RBAR_BASE_Msk))
 80011ba:	f003 031f 	and.w	r3, r3, #31
		     | (base & MPU_RBAR_BASE_Msk));
 80011be:	f021 011f 	bic.w	r1, r1, #31
 80011c2:	430b      	orrs	r3, r1
	MPU->RBAR = rbar;
 80011c4:	f8c2 309c 	str.w	r3, [r2, #156]	@ 0x9c
			 */
			mpu_region_set_base(u_reg_index,
				regions[i].start + regions[i].size);

			reg_index =
				mpu_configure_region(reg_index, &regions[i]);
 80011c8:	4629      	mov	r1, r5
 80011ca:	b2e0      	uxtb	r0, r4
 80011cc:	f003 f9a2 	bl	8004514 <mpu_configure_region>
 80011d0:	4604      	mov	r4, r0

			if (reg_index == -EINVAL) {
 80011d2:	f110 0f16 	cmn.w	r0, #22
 80011d6:	f000 809a 	beq.w	800130e <mpu_configure_regions_and_partition+0x17e>
				return reg_index;
			}

			reg_index++;
 80011da:	3401      	adds	r4, #1
 80011dc:	e016      	b.n	800120c <mpu_configure_regions_and_partition+0x7c>
			 * underlying region; the end of the underlying
			 * region needs to be set to the start of the
			 * new region.
			 */
			mpu_region_set_limit(u_reg_index,
				regions[i].start - 1);
 80011de:	3b01      	subs	r3, #1
	MPU->RNR = rnr;
 80011e0:	494e      	ldr	r1, [pc, #312]	@ (800131c <mpu_configure_regions_and_partition+0x18c>)
 80011e2:	f8c1 6098 	str.w	r6, [r1, #152]	@ 0x98
	return MPU->RLAR;
 80011e6:	f8d1 20a0 	ldr.w	r2, [r1, #160]	@ 0xa0
	mpu_set_rlar((mpu_get_rlar() & (~MPU_RLAR_LIMIT_Msk))
 80011ea:	f002 021f 	and.w	r2, r2, #31
		     | (limit & MPU_RLAR_LIMIT_Msk));
 80011ee:	f023 031f 	bic.w	r3, r3, #31
 80011f2:	4313      	orrs	r3, r2
	MPU->RLAR = rlar;
 80011f4:	f8c1 30a0 	str.w	r3, [r1, #160]	@ 0xa0

			reg_index =
				mpu_configure_region(reg_index, &regions[i]);
 80011f8:	4629      	mov	r1, r5
 80011fa:	b2e0      	uxtb	r0, r4
 80011fc:	f003 f98a 	bl	8004514 <mpu_configure_region>
 8001200:	4604      	mov	r4, r0

			if (reg_index == -EINVAL) {
 8001202:	f110 0f16 	cmn.w	r0, #22
 8001206:	f000 8082 	beq.w	800130e <mpu_configure_regions_and_partition+0x17e>
				return reg_index;
			}

			reg_index++;
 800120a:	3401      	adds	r4, #1
	for (i = 0; i < regions_num; i++) {
 800120c:	3701      	adds	r7, #1
 800120e:	9b00      	ldr	r3, [sp, #0]
 8001210:	429f      	cmp	r7, r3
 8001212:	da7c      	bge.n	800130e <mpu_configure_regions_and_partition+0x17e>
		if (regions[i].size == 0U) {
 8001214:	eb07 0547 	add.w	r5, r7, r7, lsl #1
 8001218:	ea4f 0a85 	mov.w	sl, r5, lsl #2
 800121c:	eb09 0585 	add.w	r5, r9, r5, lsl #2
 8001220:	686e      	ldr	r6, [r5, #4]
 8001222:	2e00      	cmp	r6, #0
 8001224:	d0f2      	beq.n	800120c <mpu_configure_regions_and_partition+0x7c>
		if (do_coherence_check &&
 8001226:	9b01      	ldr	r3, [sp, #4]
 8001228:	b123      	cbz	r3, 8001234 <mpu_configure_regions_and_partition+0xa4>
			(!mpu_partition_is_valid(&regions[i]))) {
 800122a:	4628      	mov	r0, r5
 800122c:	f003 f960 	bl	80044f0 <mpu_partition_is_valid>
		if (do_coherence_check &&
 8001230:	2800      	cmp	r0, #0
 8001232:	d068      	beq.n	8001306 <mpu_configure_regions_and_partition+0x176>
			get_region_index(regions[i].start, regions[i].size);
 8001234:	4631      	mov	r1, r6
 8001236:	f859 000a 	ldr.w	r0, [r9, sl]
 800123a:	f003 f98d 	bl	8004558 <get_region_index>
 800123e:	4606      	mov	r6, r0
		if ((u_reg_index == -EINVAL) ||
 8001240:	f110 0f16 	cmn.w	r0, #22
 8001244:	d062      	beq.n	800130c <mpu_configure_regions_and_partition+0x17c>
 8001246:	4284      	cmp	r4, r0
 8001248:	dd65      	ble.n	8001316 <mpu_configure_regions_and_partition+0x186>
	MPU->RNR = rnr;
 800124a:	4b34      	ldr	r3, [pc, #208]	@ (800131c <mpu_configure_regions_and_partition+0x18c>)
 800124c:	f8c3 0098 	str.w	r0, [r3, #152]	@ 0x98
	return MPU->RBAR;
 8001250:	f8d3 209c 	ldr.w	r2, [r3, #156]	@ 0x9c
	return mpu_get_rbar() & MPU_RBAR_BASE_Msk;
 8001254:	f022 021f 	bic.w	r2, r2, #31
	MPU->RNR = rnr;
 8001258:	f8c3 0098 	str.w	r0, [r3, #152]	@ 0x98
	return MPU->RLAR;
 800125c:	f8d3 30a0 	ldr.w	r3, [r3, #160]	@ 0xa0
	return (mpu_get_rlar() & MPU_RLAR_LIMIT_Msk) | (~MPU_RLAR_LIMIT_Msk);
 8001260:	f043 081f 	orr.w	r8, r3, #31
		uint32_t reg_last = regions[i].start + regions[i].size - 1;
 8001264:	f859 300a 	ldr.w	r3, [r9, sl]
 8001268:	6869      	ldr	r1, [r5, #4]
 800126a:	4419      	add	r1, r3
 800126c:	f101 3bff 	add.w	fp, r1, #4294967295
		if ((regions[i].start == u_reg_base) &&
 8001270:	4293      	cmp	r3, r2
 8001272:	d096      	beq.n	80011a2 <mpu_configure_regions_and_partition+0x12>
		} else if (regions[i].start == u_reg_base) {
 8001274:	4293      	cmp	r3, r2
 8001276:	d09b      	beq.n	80011b0 <mpu_configure_regions_and_partition+0x20>
		} else if (reg_last == u_reg_last) {
 8001278:	45c3      	cmp	fp, r8
 800127a:	d0b0      	beq.n	80011de <mpu_configure_regions_and_partition+0x4e>
			/* The new regions lies strictly inside the
			 * underlying region, which needs to split
			 * into two regions.
			 */
			mpu_region_set_limit(u_reg_index,
				regions[i].start - 1);
 800127c:	3b01      	subs	r3, #1
	MPU->RNR = rnr;
 800127e:	4927      	ldr	r1, [pc, #156]	@ (800131c <mpu_configure_regions_and_partition+0x18c>)
 8001280:	f8c1 6098 	str.w	r6, [r1, #152]	@ 0x98
	return MPU->RLAR;
 8001284:	f8d1 20a0 	ldr.w	r2, [r1, #160]	@ 0xa0
	mpu_set_rlar((mpu_get_rlar() & (~MPU_RLAR_LIMIT_Msk))
 8001288:	f002 021f 	and.w	r2, r2, #31
		     | (limit & MPU_RLAR_LIMIT_Msk));
 800128c:	f023 031f 	bic.w	r3, r3, #31
 8001290:	4313      	orrs	r3, r2
	MPU->RLAR = rlar;
 8001292:	f8c1 30a0 	str.w	r3, [r1, #160]	@ 0xa0

			reg_index =
				mpu_configure_region(reg_index, &regions[i]);
 8001296:	4629      	mov	r1, r5
 8001298:	b2e0      	uxtb	r0, r4
 800129a:	f003 f93b 	bl	8004514 <mpu_configure_region>
 800129e:	4604      	mov	r4, r0

			if (reg_index == -EINVAL) {
 80012a0:	f110 0f16 	cmn.w	r0, #22
 80012a4:	d033      	beq.n	800130e <mpu_configure_regions_and_partition+0x17e>
				return reg_index;
			}
			reg_index++;
 80012a6:	3001      	adds	r0, #1
	MPU->RNR = rnr;
 80012a8:	4b1c      	ldr	r3, [pc, #112]	@ (800131c <mpu_configure_regions_and_partition+0x18c>)
 80012aa:	f8c3 6098 	str.w	r6, [r3, #152]	@ 0x98
	return MPU->RBAR;
 80012ae:	f8d3 109c 	ldr.w	r1, [r3, #156]	@ 0x9c
	attr->rbar = mpu_get_rbar() &
 80012b2:	f89d 2010 	ldrb.w	r2, [sp, #16]
 80012b6:	f361 0204 	bfi	r2, r1, #0, #5
 80012ba:	f88d 2010 	strb.w	r2, [sp, #16]
	return MPU->RLAR;
 80012be:	f8d3 30a0 	ldr.w	r3, [r3, #160]	@ 0xa0
	attr->mair_idx = (mpu_get_rlar() & MPU_RLAR_AttrIndx_Msk) >>
 80012c2:	f3c3 0342 	ubfx	r3, r3, #1, #3
 80012c6:	b2d2      	uxtb	r2, r2
 80012c8:	f363 1247 	bfi	r2, r3, #5, #3
 80012cc:	f88d 2010 	strb.w	r2, [sp, #16]
			 */
			struct arm_mpu_region fill_region;

			mpu_region_get_access_attr(u_reg_index,
				&fill_region.attr);
			fill_region.base = regions[i].start +
 80012d0:	f859 200a 	ldr.w	r2, [r9, sl]
				regions[i].size;
 80012d4:	686b      	ldr	r3, [r5, #4]
			fill_region.base = regions[i].start +
 80012d6:	441a      	add	r2, r3
 80012d8:	9202      	str	r2, [sp, #8]
			fill_region.attr.r_limit =
			REGION_LIMIT_ADDR((regions[i].start +
 80012da:	f859 200a 	ldr.w	r2, [r9, sl]
 80012de:	4413      	add	r3, r2
 80012e0:	f023 031f 	bic.w	r3, r3, #31
 80012e4:	eba8 080b 	sub.w	r8, r8, fp
 80012e8:	4443      	add	r3, r8
 80012ea:	3b01      	subs	r3, #1
 80012ec:	f023 031f 	bic.w	r3, r3, #31
			fill_region.attr.r_limit =
 80012f0:	9305      	str	r3, [sp, #20]
				regions[i].size), (u_reg_last - reg_last));

			reg_index =
				region_allocate_and_init(reg_index,
 80012f2:	a902      	add	r1, sp, #8
 80012f4:	b2c0      	uxtb	r0, r0
 80012f6:	f7ff ff37 	bl	8001168 <region_allocate_and_init>
 80012fa:	4604      	mov	r4, r0
					(const struct arm_mpu_region *)
						&fill_region);

			if (reg_index == -EINVAL) {
 80012fc:	f110 0f16 	cmn.w	r0, #22
 8001300:	d005      	beq.n	800130e <mpu_configure_regions_and_partition+0x17e>
				return reg_index;
			}

			reg_index++;
 8001302:	3401      	adds	r4, #1
 8001304:	e782      	b.n	800120c <mpu_configure_regions_and_partition+0x7c>
			return -EINVAL;
 8001306:	f06f 0415 	mvn.w	r4, #21
 800130a:	e000      	b.n	800130e <mpu_configure_regions_and_partition+0x17e>
			return -EINVAL;
 800130c:	4604      	mov	r4, r0
		}
	}

	return reg_index;
}
 800130e:	4620      	mov	r0, r4
 8001310:	b007      	add	sp, #28
 8001312:	e8bd 8ff0 	ldmia.w	sp!, {r4, r5, r6, r7, r8, r9, sl, fp, pc}
			return -EINVAL;
 8001316:	f06f 0415 	mvn.w	r4, #21
 800131a:	e7f8      	b.n	800130e <mpu_configure_regions_and_partition+0x17e>
 800131c:	e000ed00 	.word	0xe000ed00

08001320 <mpu_configure_static_mpu_regions>:
 */
static int mpu_configure_static_mpu_regions(const struct z_arm_mpu_partition
	static_regions[], const uint8_t regions_num,
	const uint32_t background_area_base,
	const uint32_t background_area_end)
{
 8001320:	b510      	push	{r4, lr}
	int mpu_reg_index = static_regions_num;
 8001322:	4c03      	ldr	r4, [pc, #12]	@ (8001330 <mpu_configure_static_mpu_regions+0x10>)
	 * given boundaries.
	 */
	ARG_UNUSED(background_area_base);
	ARG_UNUSED(background_area_end);

	mpu_reg_index = mpu_configure_regions_and_partition(static_regions,
 8001324:	2301      	movs	r3, #1
 8001326:	7822      	ldrb	r2, [r4, #0]
 8001328:	f7ff ff32 	bl	8001190 <mpu_configure_regions_and_partition>
		regions_num, mpu_reg_index, true);

	static_regions_num = mpu_reg_index;
 800132c:	7020      	strb	r0, [r4, #0]

	return mpu_reg_index;
}
 800132e:	bd10      	pop	{r4, pc}
 8001330:	20000434 	.word	0x20000434

08001334 <mpu_mark_areas_for_dynamic_regions>:
 * -EINVAL on error.
 */
static int mpu_mark_areas_for_dynamic_regions(
		const struct z_arm_mpu_partition dyn_region_areas[],
		const uint8_t dyn_region_areas_num)
{
 8001334:	b570      	push	{r4, r5, r6, lr}
 8001336:	4605      	mov	r5, r0
 8001338:	460e      	mov	r6, r1
	/* In ARMv8-M architecture we need to store the index values
	 * and the default configuration of the MPU regions, inside
	 * which dynamic memory regions may be programmed at run-time.
	 */
	for (int i = 0; i < dyn_region_areas_num; i++) {
 800133a:	2400      	movs	r4, #0
 800133c:	e000      	b.n	8001340 <mpu_mark_areas_for_dynamic_regions+0xc>
 800133e:	3401      	adds	r4, #1
 8001340:	42a6      	cmp	r6, r4
 8001342:	dd1e      	ble.n	8001382 <mpu_mark_areas_for_dynamic_regions+0x4e>
		if (dyn_region_areas[i].size == 0U) {
 8001344:	eb04 0344 	add.w	r3, r4, r4, lsl #1
 8001348:	009a      	lsls	r2, r3, #2
 800134a:	eb05 0383 	add.w	r3, r5, r3, lsl #2
 800134e:	6859      	ldr	r1, [r3, #4]
 8001350:	2900      	cmp	r1, #0
 8001352:	d0f4      	beq.n	800133e <mpu_mark_areas_for_dynamic_regions+0xa>
		}
		/* Non-empty area */

		/* Retrieve HW MPU region index */
		dyn_reg_info[i].index =
			get_region_index(dyn_region_areas[i].start,
 8001354:	58a8      	ldr	r0, [r5, r2]
 8001356:	f003 f8ff 	bl	8004558 <get_region_index>
		dyn_reg_info[i].index =
 800135a:	eb04 0384 	add.w	r3, r4, r4, lsl #2
 800135e:	4a0b      	ldr	r2, [pc, #44]	@ (800138c <mpu_mark_areas_for_dynamic_regions+0x58>)
 8001360:	f842 0023 	str.w	r0, [r2, r3, lsl #2]
					dyn_region_areas[i].size);

		if (dyn_reg_info[i].index == -EINVAL) {
 8001364:	f110 0f16 	cmn.w	r0, #22
 8001368:	d00c      	beq.n	8001384 <mpu_mark_areas_for_dynamic_regions+0x50>

			return -EINVAL;
		}

		if (dyn_reg_info[i].index >= static_regions_num) {
 800136a:	4b09      	ldr	r3, [pc, #36]	@ (8001390 <mpu_mark_areas_for_dynamic_regions+0x5c>)
 800136c:	781b      	ldrb	r3, [r3, #0]
 800136e:	4298      	cmp	r0, r3
 8001370:	da09      	bge.n	8001386 <mpu_mark_areas_for_dynamic_regions+0x52>

			return -EINVAL;
		}

		/* Store default configuration */
		mpu_region_get_conf(dyn_reg_info[i].index,
 8001372:	eb04 0384 	add.w	r3, r4, r4, lsl #2
 8001376:	eb02 0183 	add.w	r1, r2, r3, lsl #2
 800137a:	3104      	adds	r1, #4
 800137c:	f7ff fed4 	bl	8001128 <mpu_region_get_conf>
 8001380:	e7dd      	b.n	800133e <mpu_mark_areas_for_dynamic_regions+0xa>
			&dyn_reg_info[i].region_conf);
	}

	return 0;
 8001382:	2000      	movs	r0, #0
}
 8001384:	bd70      	pop	{r4, r5, r6, pc}
			return -EINVAL;
 8001386:	f06f 0015 	mvn.w	r0, #21
 800138a:	e7fb      	b.n	8001384 <mpu_mark_areas_for_dynamic_regions+0x50>
 800138c:	20000354 	.word	0x20000354
 8001390:	20000434 	.word	0x20000434

08001394 <arm_core_mpu_enable>:
	 * background region for privileged software access if desired.
	 */
#if defined(CONFIG_MPU_DISABLE_BACKGROUND_MAP)
	MPU->CTRL = MPU_CTRL_ENABLE_Msk;
#else
	MPU->CTRL = MPU_CTRL_ENABLE_Msk | MPU_CTRL_PRIVDEFENA_Msk;
 8001394:	4b04      	ldr	r3, [pc, #16]	@ (80013a8 <arm_core_mpu_enable+0x14>)
 8001396:	2205      	movs	r2, #5
 8001398:	f8c3 2094 	str.w	r2, [r3, #148]	@ 0x94
  __ASM volatile ("dsb 0xF":::"memory");
 800139c:	f3bf 8f4f 	dsb	sy
  __ASM volatile ("isb 0xF":::"memory");
 80013a0:	f3bf 8f6f 	isb	sy
#endif

	/* Make sure that all the registers are set before proceeding */
	barrier_dsync_fence_full();
	barrier_isync_fence_full();
}
 80013a4:	4770      	bx	lr
 80013a6:	bf00      	nop
 80013a8:	e000ed00 	.word	0xe000ed00

080013ac <arm_core_mpu_disable>:
  \details Ensures the apparent order of the explicit memory operations before
           and after the instruction, without ensuring their completion.
 */
__STATIC_FORCEINLINE void __DMB(void)
{
  __ASM volatile ("dmb 0xF":::"memory");
 80013ac:	f3bf 8f5f 	dmb	sy
{
	/* Force any outstanding transfers to complete before disabling MPU */
	barrier_dmem_fence_full();

	/* Disable MPU */
	MPU->CTRL = 0;
 80013b0:	4b02      	ldr	r3, [pc, #8]	@ (80013bc <arm_core_mpu_disable+0x10>)
 80013b2:	2200      	movs	r2, #0
 80013b4:	f8c3 2094 	str.w	r2, [r3, #148]	@ 0x94
}
 80013b8:	4770      	bx	lr
 80013ba:	bf00      	nop
 80013bc:	e000ed00 	.word	0xe000ed00

080013c0 <z_arm_mpu_init>:
 *
 * This function provides the default configuration mechanism for the Memory
 * Protection Unit (MPU).
 */
int z_arm_mpu_init(void)
{
 80013c0:	b538      	push	{r3, r4, r5, lr}
	uint32_t r_index;

	if (mpu_config.num_regions > get_num_regions()) {
 80013c2:	4b1c      	ldr	r3, [pc, #112]	@ (8001434 <z_arm_mpu_init+0x74>)
 80013c4:	681d      	ldr	r5, [r3, #0]
	uint32_t type = MPU->TYPE;
 80013c6:	4b1c      	ldr	r3, [pc, #112]	@ (8001438 <z_arm_mpu_init+0x78>)
 80013c8:	f8d3 3090 	ldr.w	r3, [r3, #144]	@ 0x90
 80013cc:	f3c3 2307 	ubfx	r3, r3, #8, #8
 80013d0:	429d      	cmp	r5, r3
 80013d2:	d82b      	bhi.n	800142c <z_arm_mpu_init+0x6c>
		return -1;
	}

	LOG_DBG("total region count: %d", get_num_regions());

	arm_core_mpu_disable();
 80013d4:	f7ff ffea 	bl	80013ac <arm_core_mpu_disable>
#endif
#endif
#endif /* CONFIG_NOCACHE_MEMORY */

	/* Architecture-specific configuration */
	mpu_init();
 80013d8:	f7ff fe92 	bl	8001100 <mpu_init>

	/* Program fixed regions configured at SOC definition. */
	for (r_index = 0U; r_index < mpu_config.num_regions; r_index++) {
 80013dc:	2400      	movs	r4, #0
 80013de:	e007      	b.n	80013f0 <z_arm_mpu_init+0x30>
		region_init(r_index, &mpu_config.mpu_regions[r_index]);
 80013e0:	4b14      	ldr	r3, [pc, #80]	@ (8001434 <z_arm_mpu_init+0x74>)
 80013e2:	6859      	ldr	r1, [r3, #4]
 80013e4:	eb01 1104 	add.w	r1, r1, r4, lsl #4
 80013e8:	4620      	mov	r0, r4
 80013ea:	f003 f86d 	bl	80044c8 <region_init>
	for (r_index = 0U; r_index < mpu_config.num_regions; r_index++) {
 80013ee:	3401      	adds	r4, #1
 80013f0:	42a5      	cmp	r5, r4
 80013f2:	d8f5      	bhi.n	80013e0 <z_arm_mpu_init+0x20>
	}

	/* Update the number of programmed MPU regions. */
	static_regions_num = mpu_config.num_regions;
 80013f4:	4811      	ldr	r0, [pc, #68]	@ (800143c <z_arm_mpu_init+0x7c>)
 80013f6:	7005      	strb	r5, [r0, #0]
#ifdef CONFIG_MEM_ATTR
	/* DT-defined MPU regions. */
	if (mpu_configure_regions_from_dt(&static_regions_num) == -EINVAL) {
 80013f8:	f003 f8bf 	bl	800457a <mpu_configure_regions_from_dt>
 80013fc:	f110 0f16 	cmn.w	r0, #22
 8001400:	d013      	beq.n	800142a <z_arm_mpu_init+0x6a>
		__ASSERT(0, "Failed to allocate MPU regions from DT\n");
		return -EINVAL;
	}
#endif /* CONFIG_MEM_ATTR */
	/* Clear all regions before enabling MPU */
	for (int i = static_regions_num; i < get_num_regions(); i++) {
 8001402:	4b0e      	ldr	r3, [pc, #56]	@ (800143c <z_arm_mpu_init+0x7c>)
 8001404:	781a      	ldrb	r2, [r3, #0]
 8001406:	4b0c      	ldr	r3, [pc, #48]	@ (8001438 <z_arm_mpu_init+0x78>)
 8001408:	f8d3 3090 	ldr.w	r3, [r3, #144]	@ 0x90
 800140c:	f3c3 2307 	ubfx	r3, r3, #8, #8
 8001410:	429a      	cmp	r2, r3
 8001412:	da07      	bge.n	8001424 <z_arm_mpu_init+0x64>
* \param mpu Pointer to MPU to be used.
* \param rnr Region number to be cleared.
*/
__STATIC_INLINE void ARM_MPU_ClrRegionEx(MPU_Type* mpu, uint32_t rnr)
{
  mpu->RNR = rnr;
 8001414:	4b08      	ldr	r3, [pc, #32]	@ (8001438 <z_arm_mpu_init+0x78>)
 8001416:	f8c3 2098 	str.w	r2, [r3, #152]	@ 0x98
  mpu->RLAR = 0U;
 800141a:	2100      	movs	r1, #0
 800141c:	f8c3 10a0 	str.w	r1, [r3, #160]	@ 0xa0
 8001420:	3201      	adds	r2, #1
 8001422:	e7f0      	b.n	8001406 <z_arm_mpu_init+0x46>
		mpu_clear_region(i);
	}

	arm_core_mpu_enable();
 8001424:	f7ff ffb6 	bl	8001394 <arm_core_mpu_enable>
	__ASSERT(
		(MPU->TYPE & MPU_TYPE_DREGION_Msk) >> MPU_TYPE_DREGION_Pos == 8,
		"Invalid number of MPU regions\n");
#endif /* CORTEX_M0PLUS || CPU_CORTEX_M3 || CPU_CORTEX_M4 */

	return 0;
 8001428:	2000      	movs	r0, #0
}
 800142a:	bd38      	pop	{r3, r4, r5, pc}
		return -1;
 800142c:	f04f 30ff 	mov.w	r0, #4294967295
 8001430:	e7fb      	b.n	800142a <z_arm_mpu_init+0x6a>
 8001432:	bf00      	nop
 8001434:	0800626c 	.word	0x0800626c
 8001438:	e000ed00 	.word	0xe000ed00
 800143c:	20000434 	.word	0x20000434

08001440 <z_impl_zephyr_fputc>:
#include "picolibc-hooks.h"

static LIBC_DATA int (*_stdout_hook)(int);

int z_impl_zephyr_fputc(int a, FILE *out)
{
 8001440:	b508      	push	{r3, lr}
	(*_stdout_hook)(a);
 8001442:	4b02      	ldr	r3, [pc, #8]	@ (800144c <z_impl_zephyr_fputc+0xc>)
 8001444:	681b      	ldr	r3, [r3, #0]
 8001446:	4798      	blx	r3
	return 0;
}
 8001448:	2000      	movs	r0, #0
 800144a:	bd08      	pop	{r3, pc}
 800144c:	20000368 	.word	0x20000368

08001450 <__stdout_hook_install>:
FILE *const stdout = &__stdout;
STDIO_ALIAS(stderr);

void __stdout_hook_install(int (*hook)(int))
{
	_stdout_hook = hook;
 8001450:	4b03      	ldr	r3, [pc, #12]	@ (8001460 <__stdout_hook_install+0x10>)
 8001452:	6018      	str	r0, [r3, #0]
	__stdout.flags |= _FDEV_SETUP_WRITE;
 8001454:	4a03      	ldr	r2, [pc, #12]	@ (8001464 <__stdout_hook_install+0x14>)
 8001456:	7893      	ldrb	r3, [r2, #2]
 8001458:	f043 0302 	orr.w	r3, r3, #2
 800145c:	7093      	strb	r3, [r2, #2]
}
 800145e:	4770      	bx	lr
 8001460:	20000368 	.word	0x20000368
 8001464:	20000004 	.word	0x20000004

08001468 <malloc_prepare>:
	return aligned_alloc(alignment, size);
}
#endif

static int malloc_prepare(void)
{
 8001468:	b508      	push	{r3, lr}
			break;
		}
		heap_size >>= 1;
	}
#else
	heap_base = UINT_TO_POINTER(HEAP_BASE);
 800146a:	4906      	ldr	r1, [pc, #24]	@ (8001484 <malloc_prepare+0x1c>)
 800146c:	f021 0107 	bic.w	r1, r1, #7
	z_malloc_partition.start = POINTER_TO_UINT(heap_base);
	z_malloc_partition.size = heap_size;
	z_malloc_partition.attr = K_MEM_PARTITION_P_RW_U_RW;
#endif

	sys_heap_init(&z_malloc_heap, heap_base, heap_size);
 8001470:	f1c1 5200 	rsb	r2, r1, #536870912	@ 0x20000000
 8001474:	f502 2280 	add.w	r2, r2, #262144	@ 0x40000
 8001478:	4803      	ldr	r0, [pc, #12]	@ (8001488 <malloc_prepare+0x20>)
 800147a:	f002 fe6f 	bl	800415c <sys_heap_init>

	return 0;
}
 800147e:	2000      	movs	r0, #0
 8001480:	bd08      	pop	{r3, pc}
 8001482:	bf00      	nop
 8001484:	2000117f 	.word	0x2000117f
 8001488:	2000036c 	.word	0x2000036c

0800148c <stm32_exti_enable_clocks>:
	return 0;
}

/** Enables the peripheral clock required to access EXTI registers */
static int stm32_exti_enable_clocks(void)
{
 800148c:	b500      	push	{lr}
 800148e:	b083      	sub	sp, #12
	/* Initialize to 0 for series where there is nothing to do. */
	int ret = 0;

#if DT_NODE_HAS_PROP(EXTI_NODE, clocks)
	const struct device *const clk = DEVICE_DT_GET(STM32_CLOCK_CONTROL_NODE);
	const struct stm32_pclken pclken = STM32_CLOCK_INFO(0, EXTI_NODE);
 8001490:	4b09      	ldr	r3, [pc, #36]	@ (80014b8 <stm32_exti_enable_clocks+0x2c>)
 8001492:	e893 0003 	ldmia.w	r3, {r0, r1}
 8001496:	ab02      	add	r3, sp, #8
 8001498:	e903 0003 	stmdb	r3, {r0, r1}
	const struct clock_control_driver_api *api =
 800149c:	4b07      	ldr	r3, [pc, #28]	@ (80014bc <stm32_exti_enable_clocks+0x30>)
 800149e:	689b      	ldr	r3, [r3, #8]
	if (api->on == NULL) {
 80014a0:	681b      	ldr	r3, [r3, #0]
 80014a2:	b12b      	cbz	r3, 80014b0 <stm32_exti_enable_clocks+0x24>
	return api->on(dev, sys);
 80014a4:	4669      	mov	r1, sp
 80014a6:	4805      	ldr	r0, [pc, #20]	@ (80014bc <stm32_exti_enable_clocks+0x30>)
 80014a8:	4798      	blx	r3

	ret = clock_control_on(clk, (clock_control_subsys_t) &pclken);
#endif
	return ret;
}
 80014aa:	b003      	add	sp, #12
 80014ac:	f85d fb04 	ldr.w	pc, [sp], #4
		return -ENOSYS;
 80014b0:	f06f 0057 	mvn.w	r0, #87	@ 0x57
	return ret;
 80014b4:	e7f9      	b.n	80014aa <stm32_exti_enable_clocks+0x1e>
 80014b6:	bf00      	nop
 80014b8:	08005b5c 	.word	0x08005b5c
 80014bc:	08005524 	.word	0x08005524

080014c0 <stm32_exti_is_pending>:
/**
 * @returns LL_EXTI_LINE_n define corresponding to EXTI line number
 */
static inline uint32_t exti_linenum_to_ll_exti_line(uint32_t line_num)
{
	return BIT(line_num % 32);
 80014c0:	f000 021f 	and.w	r2, r0, #31
 80014c4:	2301      	movs	r3, #1
 80014c6:	4093      	lsls	r3, r2
	if (!IS_VALID_EXTI_LINE_NUM(line_num)) {
 80014c8:	283f      	cmp	r0, #63	@ 0x3f
 80014ca:	d81f      	bhi.n	800150c <stm32_exti_is_pending+0x4c>
	EXTI_FN_RET_HANDLER(EXTI_IS_ACTIVE_FLAG, &ret, line_num, line);
 80014cc:	281f      	cmp	r0, #31
 80014ce:	d80e      	bhi.n	80014ee <stm32_exti_is_pending+0x2e>
  * @note   Please check each device line mapping for EXTI Line availability
  * @retval State of bit (1 or 0).
  */
__STATIC_INLINE uint32_t LL_EXTI_IsActiveRisingFlag_0_31(uint32_t ExtiLine)
{
  return ((READ_BIT(EXTI->RPR1, ExtiLine) == (ExtiLine)) ? 1UL : 0UL);
 80014d0:	4a0f      	ldr	r2, [pc, #60]	@ (8001510 <stm32_exti_is_pending+0x50>)
 80014d2:	68d2      	ldr	r2, [r2, #12]
 80014d4:	ea33 0202 	bics.w	r2, r3, r2
 80014d8:	d005      	beq.n	80014e6 <stm32_exti_is_pending+0x26>
  return ((READ_BIT(EXTI->FPR1, ExtiLine) == (ExtiLine)) ? 1UL : 0UL);
 80014da:	4a0d      	ldr	r2, [pc, #52]	@ (8001510 <stm32_exti_is_pending+0x50>)
 80014dc:	6912      	ldr	r2, [r2, #16]
 80014de:	4393      	bics	r3, r2
 80014e0:	d003      	beq.n	80014ea <stm32_exti_is_pending+0x2a>
 80014e2:	2000      	movs	r0, #0
 80014e4:	4770      	bx	lr
 80014e6:	2001      	movs	r0, #1
 80014e8:	4770      	bx	lr
 80014ea:	2001      	movs	r0, #1
 80014ec:	4770      	bx	lr
  * @note   Please check each device line mapping for EXTI Line availability
  * @retval State of bit (1 or 0).
  */
__STATIC_INLINE uint32_t LL_EXTI_IsActiveRisingFlag_32_63(uint32_t ExtiLine)
{
  return ((READ_BIT(EXTI->RPR2, ExtiLine) == (ExtiLine)) ? 1UL : 0UL);
 80014ee:	4a08      	ldr	r2, [pc, #32]	@ (8001510 <stm32_exti_is_pending+0x50>)
 80014f0:	6ad2      	ldr	r2, [r2, #44]	@ 0x2c
 80014f2:	ea33 0202 	bics.w	r2, r3, r2
 80014f6:	d005      	beq.n	8001504 <stm32_exti_is_pending+0x44>
  return ((READ_BIT(EXTI->FPR2, ExtiLine) == (ExtiLine)) ? 1UL : 0UL);
 80014f8:	4a05      	ldr	r2, [pc, #20]	@ (8001510 <stm32_exti_is_pending+0x50>)
 80014fa:	6b12      	ldr	r2, [r2, #48]	@ 0x30
 80014fc:	4393      	bics	r3, r2
 80014fe:	d003      	beq.n	8001508 <stm32_exti_is_pending+0x48>
 8001500:	2000      	movs	r0, #0
 8001502:	4770      	bx	lr
 8001504:	2001      	movs	r0, #1
 8001506:	4770      	bx	lr
 8001508:	2001      	movs	r0, #1
 800150a:	4770      	bx	lr
		return false;
 800150c:	2000      	movs	r0, #0
}
 800150e:	4770      	bx	lr
 8001510:	44022000 	.word	0x44022000

08001514 <stm32_exti_clear_pending>:
 8001514:	f000 021f 	and.w	r2, r0, #31
 8001518:	2301      	movs	r3, #1
 800151a:	4093      	lsls	r3, r2
	if (!IS_VALID_EXTI_LINE_NUM(line_num)) {
 800151c:	283f      	cmp	r0, #63	@ 0x3f
 800151e:	d80b      	bhi.n	8001538 <stm32_exti_clear_pending+0x24>
	EXTI_FN_HANDLER(EXTI_CLEAR_FLAG, line_num, line);
 8001520:	281f      	cmp	r0, #31
 8001522:	d804      	bhi.n	800152e <stm32_exti_clear_pending+0x1a>
  * @note   Please check each device line mapping for EXTI Line availability
  * @retval None
  */
__STATIC_INLINE void LL_EXTI_ClearRisingFlag_0_31(uint32_t ExtiLine)
{
  WRITE_REG(EXTI->RPR1, ExtiLine);
 8001524:	4a06      	ldr	r2, [pc, #24]	@ (8001540 <stm32_exti_clear_pending+0x2c>)
 8001526:	60d3      	str	r3, [r2, #12]
  WRITE_REG(EXTI->FPR1, ExtiLine);
 8001528:	6113      	str	r3, [r2, #16]
	return 0;
 800152a:	2000      	movs	r0, #0
}
 800152c:	4770      	bx	lr
  * @note   Please check each device line mapping for EXTI Line availability
  * @retval None
  */
__STATIC_INLINE void LL_EXTI_ClearRisingFlag_32_63(uint32_t ExtiLine)
{
  WRITE_REG(EXTI->RPR2, ExtiLine);
 800152e:	4a04      	ldr	r2, [pc, #16]	@ (8001540 <stm32_exti_clear_pending+0x2c>)
 8001530:	62d3      	str	r3, [r2, #44]	@ 0x2c
  WRITE_REG(EXTI->FPR2, ExtiLine);
 8001532:	6313      	str	r3, [r2, #48]	@ 0x30
 8001534:	2000      	movs	r0, #0
}
 8001536:	4770      	bx	lr
		return -EINVAL;
 8001538:	f06f 0015 	mvn.w	r0, #21
}
 800153c:	4770      	bx	lr
 800153e:	bf00      	nop
 8001540:	44022000 	.word	0x44022000

08001544 <LL_EXTI_SetEXTISource>:
  *         @arg @ref LL_EXTI_EXTI_LINE14
  *         @arg @ref LL_EXTI_EXTI_LINE15
  * @retval None
  */
__STATIC_INLINE void LL_EXTI_SetEXTISource(uint32_t Port, uint32_t Line)
{
 8001544:	b410      	push	{r4}
  MODIFY_REG(EXTI->EXTICR[Line & 0x03U], EXTI_EXTICR1_EXTI0 << (Line >> LL_EXTI_REGISTER_PINPOS_SHFT), \
 8001546:	f001 0203 	and.w	r2, r1, #3
 800154a:	4c08      	ldr	r4, [pc, #32]	@ (800156c <LL_EXTI_SetEXTISource+0x28>)
 800154c:	3218      	adds	r2, #24
 800154e:	f854 3022 	ldr.w	r3, [r4, r2, lsl #2]
 8001552:	0c09      	lsrs	r1, r1, #16
 8001554:	f04f 0c0f 	mov.w	ip, #15
 8001558:	fa0c fc01 	lsl.w	ip, ip, r1
 800155c:	ea23 030c 	bic.w	r3, r3, ip
 8001560:	4088      	lsls	r0, r1
 8001562:	4303      	orrs	r3, r0
 8001564:	f844 3022 	str.w	r3, [r4, r2, lsl #2]
             Port << (Line >> LL_EXTI_REGISTER_PINPOS_SHFT));
}
 8001568:	bc10      	pop	{r4}
 800156a:	4770      	bx	lr
 800156c:	44022000 	.word	0x44022000

08001570 <stm32_fill_irq_table>:
	}
}

static void stm32_fill_irq_table(int8_t start, int8_t len, int32_t irqn)
{
	for (int i = 0; i < len; i++) {
 8001570:	2300      	movs	r3, #0
 8001572:	4299      	cmp	r1, r3
 8001574:	dd0a      	ble.n	800158c <stm32_fill_irq_table+0x1c>
{
 8001576:	b410      	push	{r4}
		exti_irq_table[start + i] = irqn;
 8001578:	eb00 0c03 	add.w	ip, r0, r3
 800157c:	4c04      	ldr	r4, [pc, #16]	@ (8001590 <stm32_fill_irq_table+0x20>)
 800157e:	f824 201c 	strh.w	r2, [r4, ip, lsl #1]
	for (int i = 0; i < len; i++) {
 8001582:	3301      	adds	r3, #1
 8001584:	4299      	cmp	r1, r3
 8001586:	dcf7      	bgt.n	8001578 <stm32_fill_irq_table+0x8>
	}
}
 8001588:	bc10      	pop	{r4}
 800158a:	4770      	bx	lr
 800158c:	4770      	bx	lr
 800158e:	bf00      	nop
 8001590:	20000014 	.word	0x20000014

08001594 <stm32_intc_gpio_isr>:
{
 8001594:	b5f8      	push	{r3, r4, r5, r6, r7, lr}
 8001596:	4607      	mov	r7, r0
	for (uint8_t i = 0; i < range->len; i++) {
 8001598:	2400      	movs	r4, #0
 800159a:	e001      	b.n	80015a0 <stm32_intc_gpio_isr+0xc>
 800159c:	3401      	adds	r4, #1
 800159e:	b2e4      	uxtb	r4, r4
 80015a0:	787b      	ldrb	r3, [r7, #1]
 80015a2:	42a3      	cmp	r3, r4
 80015a4:	d917      	bls.n	80015d6 <stm32_intc_gpio_isr+0x42>
		line_num = range->start + i;
 80015a6:	783d      	ldrb	r5, [r7, #0]
 80015a8:	1966      	adds	r6, r4, r5
		if (stm32_exti_is_pending(line_num)) {
 80015aa:	4630      	mov	r0, r6
 80015ac:	f7ff ff88 	bl	80014c0 <stm32_exti_is_pending>
 80015b0:	2800      	cmp	r0, #0
 80015b2:	d0f3      	beq.n	800159c <stm32_intc_gpio_isr+0x8>
			stm32_exti_clear_pending(line_num);
 80015b4:	4630      	mov	r0, r6
 80015b6:	f7ff ffad 	bl	8001514 <stm32_exti_clear_pending>
			if (!data->cb[line_num].cb) {
 80015ba:	4b07      	ldr	r3, [pc, #28]	@ (80015d8 <stm32_intc_gpio_isr+0x44>)
 80015bc:	f853 2036 	ldr.w	r2, [r3, r6, lsl #3]
 80015c0:	2a00      	cmp	r2, #0
 80015c2:	d0eb      	beq.n	800159c <stm32_intc_gpio_isr+0x8>
 80015c4:	f006 051f 	and.w	r5, r6, #31
			data->cb[line_num].cb(line, data->cb[line_num].data);
 80015c8:	eb03 03c6 	add.w	r3, r3, r6, lsl #3
 80015cc:	6859      	ldr	r1, [r3, #4]
 80015ce:	2001      	movs	r0, #1
 80015d0:	40a8      	lsls	r0, r5
 80015d2:	4790      	blx	r2
 80015d4:	e7e2      	b.n	800159c <stm32_intc_gpio_isr+0x8>
}
 80015d6:	bdf8      	pop	{r3, r4, r5, r6, r7, pc}
 80015d8:	20000378 	.word	0x20000378

080015dc <stm32_gpio_intc_enable_line>:
	ARG_UNUSED(port);
	return exti_linenum_to_ll_exti_line(pin);
}

void stm32_gpio_intc_enable_line(stm32_gpio_irq_line_t line)
{
 80015dc:	b508      	push	{r3, lr}
	return LOG2(line);
 80015de:	4603      	mov	r3, r0
 80015e0:	b180      	cbz	r0, 8001604 <stm32_gpio_intc_enable_line+0x28>
 80015e2:	fab0 f280 	clz	r2, r0
 80015e6:	f1c2 021f 	rsb	r2, r2, #31
 80015ea:	b2d2      	uxtb	r2, r2
	unsigned int irqnum;
	uint32_t line_num = ll_exti_line_to_linenum(line);

	/* Get matching exti irq provided line thanks to irq_table */
	irqnum = exti_irq_table[line_num];
 80015ec:	4906      	ldr	r1, [pc, #24]	@ (8001608 <stm32_gpio_intc_enable_line+0x2c>)
 80015ee:	f931 0012 	ldrsh.w	r0, [r1, r2, lsl #1]
  SET_BIT(EXTI->IMR1, ExtiLine);
 80015f2:	4a06      	ldr	r2, [pc, #24]	@ (800160c <stm32_gpio_intc_enable_line+0x30>)
 80015f4:	f8d2 1080 	ldr.w	r1, [r2, #128]	@ 0x80
 80015f8:	430b      	orrs	r3, r1
 80015fa:	f8c2 3080 	str.w	r3, [r2, #128]	@ 0x80

	/* Enable requested line interrupt */
	EXTI_ENABLE_IT(0_31, line);

	/* Enable exti irq interrupt */
	irq_enable(irqnum);
 80015fe:	f002 ff2c 	bl	800445a <arm_irq_enable>
}
 8001602:	bd08      	pop	{r3, pc}
	return LOG2(line);
 8001604:	22ff      	movs	r2, #255	@ 0xff
 8001606:	e7f1      	b.n	80015ec <stm32_gpio_intc_enable_line+0x10>
 8001608:	20000014 	.word	0x20000014
 800160c:	44022000 	.word	0x44022000

08001610 <stm32_gpio_intc_disable_line>:
  CLEAR_BIT(EXTI->IMR1, ExtiLine);
 8001610:	4a03      	ldr	r2, [pc, #12]	@ (8001620 <stm32_gpio_intc_disable_line+0x10>)
 8001612:	f8d2 3080 	ldr.w	r3, [r2, #128]	@ 0x80
 8001616:	ea23 0300 	bic.w	r3, r3, r0
 800161a:	f8c2 3080 	str.w	r3, [r2, #128]	@ 0x80

void stm32_gpio_intc_disable_line(stm32_gpio_irq_line_t line)
{
	EXTI_DISABLE_IT(0_31, line);
}
 800161e:	4770      	bx	lr
 8001620:	44022000 	.word	0x44022000

08001624 <stm32_gpio_intc_select_line_trigger>:

void stm32_gpio_intc_select_line_trigger(stm32_gpio_irq_line_t line, uint32_t trg)
{
	z_stm32_hsem_lock(CFG_HW_EXTI_SEMID, HSEM_LOCK_DEFAULT_RETRY);

	switch (trg) {
 8001624:	2903      	cmp	r1, #3
 8001626:	d826      	bhi.n	8001676 <stm32_gpio_intc_select_line_trigger+0x52>
 8001628:	e8df f001 	tbb	[pc, r1]
 800162c:	1e150c02 	.word	0x1e150c02
  CLEAR_BIT(EXTI->RTSR1, ExtiLine);
 8001630:	4b11      	ldr	r3, [pc, #68]	@ (8001678 <stm32_gpio_intc_select_line_trigger+0x54>)
 8001632:	681a      	ldr	r2, [r3, #0]
 8001634:	ea22 0200 	bic.w	r2, r2, r0
 8001638:	601a      	str	r2, [r3, #0]
  CLEAR_BIT(EXTI->FTSR1, ExtiLine);
 800163a:	685a      	ldr	r2, [r3, #4]
 800163c:	ea22 0200 	bic.w	r2, r2, r0
 8001640:	605a      	str	r2, [r3, #4]
}
 8001642:	4770      	bx	lr
  SET_BIT(EXTI->RTSR1, ExtiLine);
 8001644:	4b0c      	ldr	r3, [pc, #48]	@ (8001678 <stm32_gpio_intc_select_line_trigger+0x54>)
 8001646:	681a      	ldr	r2, [r3, #0]
 8001648:	4302      	orrs	r2, r0
 800164a:	601a      	str	r2, [r3, #0]
  CLEAR_BIT(EXTI->FTSR1, ExtiLine);
 800164c:	685a      	ldr	r2, [r3, #4]
 800164e:	ea22 0200 	bic.w	r2, r2, r0
 8001652:	605a      	str	r2, [r3, #4]
}
 8001654:	4770      	bx	lr
  SET_BIT(EXTI->FTSR1, ExtiLine);
 8001656:	4b08      	ldr	r3, [pc, #32]	@ (8001678 <stm32_gpio_intc_select_line_trigger+0x54>)
 8001658:	685a      	ldr	r2, [r3, #4]
 800165a:	4302      	orrs	r2, r0
 800165c:	605a      	str	r2, [r3, #4]
  CLEAR_BIT(EXTI->RTSR1, ExtiLine);
 800165e:	681a      	ldr	r2, [r3, #0]
 8001660:	ea22 0200 	bic.w	r2, r2, r0
 8001664:	601a      	str	r2, [r3, #0]
}
 8001666:	4770      	bx	lr
  SET_BIT(EXTI->RTSR1, ExtiLine);
 8001668:	4b03      	ldr	r3, [pc, #12]	@ (8001678 <stm32_gpio_intc_select_line_trigger+0x54>)
 800166a:	681a      	ldr	r2, [r3, #0]
 800166c:	4302      	orrs	r2, r0
 800166e:	601a      	str	r2, [r3, #0]
  SET_BIT(EXTI->FTSR1, ExtiLine);
 8001670:	685a      	ldr	r2, [r3, #4]
 8001672:	4310      	orrs	r0, r2
 8001674:	6058      	str	r0, [r3, #4]
	default:
		__ASSERT_NO_MSG(0);
		break;
	}
	z_stm32_hsem_unlock(CFG_HW_EXTI_SEMID);
}
 8001676:	4770      	bx	lr
 8001678:	44022000 	.word	0x44022000

0800167c <stm32_gpio_intc_set_irq_callback>:

int stm32_gpio_intc_set_irq_callback(stm32_gpio_irq_line_t line, stm32_gpio_irq_cb_t cb, void *user)
{
 800167c:	b410      	push	{r4}
	return LOG2(line);
 800167e:	b198      	cbz	r0, 80016a8 <stm32_gpio_intc_set_irq_callback+0x2c>
 8001680:	fab0 f380 	clz	r3, r0
 8001684:	f1c3 031f 	rsb	r3, r3, #31
 8001688:	b2db      	uxtb	r3, r3
	struct stm32_intc_gpio_data *data = &intc_gpio_data;
	uint32_t line_num = ll_exti_line_to_linenum(line);
 800168a:	469c      	mov	ip, r3

	if ((data->cb[line_num].cb == cb) && (data->cb[line_num].data == user)) {
 800168c:	480d      	ldr	r0, [pc, #52]	@ (80016c4 <stm32_gpio_intc_set_irq_callback+0x48>)
 800168e:	f850 0033 	ldr.w	r0, [r0, r3, lsl #3]
 8001692:	4288      	cmp	r0, r1
 8001694:	d00a      	beq.n	80016ac <stm32_gpio_intc_set_irq_callback+0x30>
		return 0;
	}

	/* if callback already exists/is running, return busy */
	if (data->cb[line_num].cb != NULL) {
 8001696:	b988      	cbnz	r0, 80016bc <stm32_gpio_intc_set_irq_callback+0x40>
		return -EBUSY;
	}

	data->cb[line_num].cb = cb;
 8001698:	4b0a      	ldr	r3, [pc, #40]	@ (80016c4 <stm32_gpio_intc_set_irq_callback+0x48>)
 800169a:	f843 103c 	str.w	r1, [r3, ip, lsl #3]
	data->cb[line_num].data = user;
 800169e:	eb03 03cc 	add.w	r3, r3, ip, lsl #3
 80016a2:	605a      	str	r2, [r3, #4]

	return 0;
}
 80016a4:	bc10      	pop	{r4}
 80016a6:	4770      	bx	lr
	return LOG2(line);
 80016a8:	23ff      	movs	r3, #255	@ 0xff
 80016aa:	e7ee      	b.n	800168a <stm32_gpio_intc_set_irq_callback+0xe>
	if ((data->cb[line_num].cb == cb) && (data->cb[line_num].data == user)) {
 80016ac:	4c05      	ldr	r4, [pc, #20]	@ (80016c4 <stm32_gpio_intc_set_irq_callback+0x48>)
 80016ae:	eb04 03c3 	add.w	r3, r4, r3, lsl #3
 80016b2:	685b      	ldr	r3, [r3, #4]
 80016b4:	4293      	cmp	r3, r2
 80016b6:	d1ee      	bne.n	8001696 <stm32_gpio_intc_set_irq_callback+0x1a>
		return 0;
 80016b8:	2000      	movs	r0, #0
 80016ba:	e7f3      	b.n	80016a4 <stm32_gpio_intc_set_irq_callback+0x28>
		return -EBUSY;
 80016bc:	f06f 000f 	mvn.w	r0, #15
 80016c0:	e7f0      	b.n	80016a4 <stm32_gpio_intc_set_irq_callback+0x28>
 80016c2:	bf00      	nop
 80016c4:	20000378 	.word	0x20000378

080016c8 <stm32_gpio_intc_remove_irq_callback>:
	return LOG2(line);
 80016c8:	b160      	cbz	r0, 80016e4 <stm32_gpio_intc_remove_irq_callback+0x1c>
 80016ca:	fab0 f380 	clz	r3, r0
 80016ce:	f1c3 031f 	rsb	r3, r3, #31
 80016d2:	b2db      	uxtb	r3, r3
void stm32_gpio_intc_remove_irq_callback(stm32_gpio_irq_line_t line)
{
	struct stm32_intc_gpio_data *data = &intc_gpio_data;
	uint32_t line_num = ll_exti_line_to_linenum(line);

	data->cb[line_num].cb = NULL;
 80016d4:	4a04      	ldr	r2, [pc, #16]	@ (80016e8 <stm32_gpio_intc_remove_irq_callback+0x20>)
 80016d6:	2100      	movs	r1, #0
 80016d8:	f842 1033 	str.w	r1, [r2, r3, lsl #3]
	data->cb[line_num].data = NULL;
 80016dc:	eb02 02c3 	add.w	r2, r2, r3, lsl #3
 80016e0:	6051      	str	r1, [r2, #4]
}
 80016e2:	4770      	bx	lr
	return LOG2(line);
 80016e4:	23ff      	movs	r3, #255	@ 0xff
 80016e6:	e7f5      	b.n	80016d4 <stm32_gpio_intc_remove_irq_callback+0xc>
 80016e8:	20000378 	.word	0x20000378

080016ec <stm32_exti_get_line_src_port>:
	return ((linenum & 0x3) << (16 + 3)) | (linenum >> 2);
 80016ec:	04c3      	lsls	r3, r0, #19
 80016ee:	f403 13c0 	and.w	r3, r3, #1572864	@ 0x180000
  *
  *         (*) value not defined in all devices
  */
__STATIC_INLINE uint32_t LL_EXTI_GetEXTISource(uint32_t Line)
{
  return (uint32_t)(READ_BIT(EXTI->EXTICR[Line & 0x03U],
 80016f2:	f3c0 0081 	ubfx	r0, r0, #2, #2
 80016f6:	3018      	adds	r0, #24
 80016f8:	4a04      	ldr	r2, [pc, #16]	@ (800170c <stm32_exti_get_line_src_port+0x20>)
 80016fa:	f852 0020 	ldr.w	r0, [r2, r0, lsl #2]
 80016fe:	0c1b      	lsrs	r3, r3, #16
 8001700:	220f      	movs	r2, #15
 8001702:	409a      	lsls	r2, r3
 8001704:	4010      	ands	r0, r2
		port = port + STM32_PORT_GAP;
	}
#endif

	return port;
}
 8001706:	40d8      	lsrs	r0, r3
 8001708:	4770      	bx	lr
 800170a:	bf00      	nop
 800170c:	44022000 	.word	0x44022000

08001710 <cache_instr_enable>:
  *         @arg @ref LL_ICACHE_2WAYS
  * @retval None
  */
__STATIC_INLINE void LL_ICACHE_SetMode(uint32_t Mode)
{
  MODIFY_REG(ICACHE->CR, ICACHE_CR_WAYSEL, Mode);
 8001710:	4a0c      	ldr	r2, [pc, #48]	@ (8001744 <cache_instr_enable+0x34>)
 8001712:	6813      	ldr	r3, [r2, #0]
 8001714:	f023 0304 	bic.w	r3, r3, #4
 8001718:	6013      	str	r3, [r2, #0]
}
 800171a:	e000      	b.n	800171e <cache_instr_enable+0xe>

#endif /* CONFIG_DCACHE */

static inline void wait_for_icache(void)
{
	while (LL_ICACHE_IsActiveFlag_BUSY(STM32_ARG(ICACHE))) {
 800171c:	b133      	cbz	r3, 800172c <cache_instr_enable+0x1c>
  * @rmtoll SR           BUSYF         LL_ICACHE_IsActiveFlag_BUSY
  * @retval State of bit (1 or 0).
  */
__STATIC_INLINE uint32_t LL_ICACHE_IsActiveFlag_BUSY(void)
{
  return ((READ_BIT(ICACHE->SR, ICACHE_SR_BUSYF) == (ICACHE_SR_BUSYF)) ? 1UL : 0UL);
 800171e:	4b09      	ldr	r3, [pc, #36]	@ (8001744 <cache_instr_enable+0x34>)
 8001720:	685b      	ldr	r3, [r3, #4]
 8001722:	f013 0301 	ands.w	r3, r3, #1
 8001726:	d0f9      	beq.n	800171c <cache_instr_enable+0xc>
 8001728:	2301      	movs	r3, #1
 800172a:	e7f7      	b.n	800171c <cache_instr_enable+0xc>
  * @rmtoll FCR          CBSYENDF      LL_ICACHE_ClearFlag_BSYEND
  * @retval None
  */
__STATIC_INLINE void LL_ICACHE_ClearFlag_BSYEND(void)
{
  WRITE_REG(ICACHE->FCR, ICACHE_FCR_CBSYENDF);
 800172c:	f103 4380 	add.w	r3, r3, #1073741824	@ 0x40000000
 8001730:	f503 3341 	add.w	r3, r3, #197632	@ 0x30400
 8001734:	2202      	movs	r2, #2
 8001736:	60da      	str	r2, [r3, #12]
  SET_BIT(ICACHE->CR, ICACHE_CR_EN);
 8001738:	681a      	ldr	r2, [r3, #0]
 800173a:	f042 0201 	orr.w	r2, r2, #1
 800173e:	601a      	str	r2, [r3, #0]
	 * Need to wait until any pending cache invalidation operations finish. This is recommended
	 * in the reference manual to ensure execution timing determinism.
	 */
	wait_for_icache();
	LL_ICACHE_Enable(STM32_ARG(ICACHE));
}
 8001740:	4770      	bx	lr
 8001742:	bf00      	nop
 8001744:	40030400 	.word	0x40030400

08001748 <get_pllsrc_frequency>:

	if ((IS_ENABLED(STM32_PLL_SRC_HSI) && pll_id == PLL1_ID) ||
	    (IS_ENABLED(STM32_PLL2_SRC_HSI) && pll_id == PLL2_ID) ||
	    (IS_ENABLED(STM32_PLL3_SRC_HSI) && pll_id == PLL3_ID)) {
		return STM32_HSI_FREQ;
	} else if ((IS_ENABLED(STM32_PLL_SRC_HSE) && pll_id == PLL1_ID) ||
 8001748:	3801      	subs	r0, #1
 800174a:	2801      	cmp	r0, #1
 800174c:	d901      	bls.n	8001752 <get_pllsrc_frequency+0xa>
		   (IS_ENABLED(STM32_PLL3_SRC_CSI) && pll_id == PLL3_ID)) {
		return STM32_CSI_FREQ;
	}

	__ASSERT(0, "No PLL Source configured");
	return 0;
 800174e:	2000      	movs	r0, #0
 8001750:	4770      	bx	lr
		return STM32_HSE_FREQ;
 8001752:	4801      	ldr	r0, [pc, #4]	@ (8001758 <get_pllsrc_frequency+0x10>)
}
 8001754:	4770      	bx	lr
 8001756:	bf00      	nop
 8001758:	007a1200 	.word	0x007a1200

0800175c <get_startup_frequency>:

static uint32_t get_startup_frequency(void)
{
 800175c:	b508      	push	{r3, lr}
  *         @arg @ref LL_RCC_SYS_CLKSOURCE_STATUS_HSE
  *         @arg @ref LL_RCC_SYS_CLKSOURCE_STATUS_PLL1
  */
__STATIC_INLINE uint32_t LL_RCC_GetSysClkSource(void)
{
  return (uint32_t)(READ_BIT(RCC->CFGR1, RCC_CFGR1_SWS));
 800175e:	4b08      	ldr	r3, [pc, #32]	@ (8001780 <get_startup_frequency+0x24>)
 8001760:	69db      	ldr	r3, [r3, #28]
 8001762:	f003 0318 	and.w	r3, r3, #24
	switch (LL_RCC_GetSysClkSource()) {
 8001766:	2b10      	cmp	r3, #16
 8001768:	d005      	beq.n	8001776 <get_startup_frequency+0x1a>
 800176a:	2b18      	cmp	r3, #24
 800176c:	d105      	bne.n	800177a <get_startup_frequency+0x1e>
	case LL_RCC_SYS_CLKSOURCE_STATUS_HSI:
		return STM32_HSI_FREQ;
	case LL_RCC_SYS_CLKSOURCE_STATUS_HSE:
		return STM32_HSE_FREQ;
	case LL_RCC_SYS_CLKSOURCE_STATUS_PLL1:
		return get_pllsrc_frequency(PLL1_ID);
 800176e:	2001      	movs	r0, #1
 8001770:	f7ff ffea 	bl	8001748 <get_pllsrc_frequency>
	default:
		__ASSERT(0, "Unexpected startup freq");
		return 0;
	}
}
 8001774:	bd08      	pop	{r3, pc}
		return STM32_HSE_FREQ;
 8001776:	4803      	ldr	r0, [pc, #12]	@ (8001784 <get_startup_frequency+0x28>)
 8001778:	e7fc      	b.n	8001774 <get_startup_frequency+0x18>
	switch (LL_RCC_GetSysClkSource()) {
 800177a:	2000      	movs	r0, #0
 800177c:	e7fa      	b.n	8001774 <get_startup_frequency+0x18>
 800177e:	bf00      	nop
 8001780:	44020c00 	.word	0x44020c00
 8001784:	007a1200 	.word	0x007a1200

08001788 <stm32_clock_control_get_subsys_rate>:
}

static int stm32_clock_control_get_subsys_rate(const struct device *dev,
					       clock_control_subsys_t sys,
					       uint32_t *rate)
{
 8001788:	b5f0      	push	{r4, r5, r6, r7, lr}
 800178a:	b083      	sub	sp, #12
 800178c:	460c      	mov	r4, r1
 800178e:	4615      	mov	r5, r2
	 * Get AHB Clock (= SystemCoreClock = SYSCLK/prescaler)
	 * SystemCoreClock is preferred to CONFIG_SYS_CLOCK_HW_CYCLES_PER_SEC
	 * since it will be updated after clock configuration and hence
	 * more likely to contain actual clock speed
	 */
	uint32_t ahb_clock = SystemCoreClock;
 8001790:	4b64      	ldr	r3, [pc, #400]	@ (8001924 <stm32_clock_control_get_subsys_rate+0x19c>)
 8001792:	681e      	ldr	r6, [r3, #0]
	uint32_t apb1_clock = get_bus_clock(ahb_clock, STM32_APB1_PRESCALER);
 8001794:	2102      	movs	r1, #2
 8001796:	4630      	mov	r0, r6
 8001798:	f003 f883 	bl	80048a2 <get_bus_clock>
 800179c:	4607      	mov	r7, r0
	uint32_t apb2_clock = get_bus_clock(ahb_clock, STM32_APB2_PRESCALER);
 800179e:	2101      	movs	r1, #1
 80017a0:	4630      	mov	r0, r6
 80017a2:	f003 f87e 	bl	80048a2 <get_bus_clock>
	uint32_t apb3_clock = get_bus_clock(ahb_clock, STM32_APB3_PRESCALER);

	ARG_UNUSED(dev);

	switch (pclken->bus) {
 80017a6:	8823      	ldrh	r3, [r4, #0]
 80017a8:	f3c3 020b 	ubfx	r2, r3, #0, #12
 80017ac:	4613      	mov	r3, r2
 80017ae:	2a13      	cmp	r2, #19
 80017b0:	d817      	bhi.n	80017e2 <stm32_clock_control_get_subsys_rate+0x5a>
 80017b2:	b212      	sxth	r2, r2
 80017b4:	b17a      	cbz	r2, 80017d6 <stm32_clock_control_get_subsys_rate+0x4e>
 80017b6:	3b01      	subs	r3, #1
 80017b8:	2b12      	cmp	r3, #18
 80017ba:	f200 80ab 	bhi.w	8001914 <stm32_clock_control_get_subsys_rate+0x18c>
 80017be:	e8df f003 	tbb	[pc, r3]
 80017c2:	534c      	.short	0x534c
 80017c4:	a9a95057 	.word	0xa9a95057
 80017c8:	4846315b 	.word	0x4846315b
 80017cc:	5ea4a24a 	.word	0x5ea4a24a
 80017d0:	8b807569 	.word	0x8b807569
 80017d4:	97          	.byte	0x97
 80017d5:	00          	.byte	0x00
 80017d6:	f06f 0085 	mvn.w	r0, #133	@ 0x85
 80017da:	e030      	b.n	800183e <stm32_clock_control_get_subsys_rate+0xb6>
 80017dc:	f06f 0085 	mvn.w	r0, #133	@ 0x85
 80017e0:	e02d      	b.n	800183e <stm32_clock_control_get_subsys_rate+0xb6>
 80017e2:	2a94      	cmp	r2, #148	@ 0x94
 80017e4:	d911      	bls.n	800180a <stm32_clock_control_get_subsys_rate+0x82>
 80017e6:	2aa8      	cmp	r2, #168	@ 0xa8
 80017e8:	f200 8097 	bhi.w	800191a <stm32_clock_control_get_subsys_rate+0x192>
 80017ec:	2a9c      	cmp	r2, #156	@ 0x9c
 80017ee:	d32b      	bcc.n	8001848 <stm32_clock_control_get_subsys_rate+0xc0>
 80017f0:	3b9c      	subs	r3, #156	@ 0x9c
 80017f2:	2b0c      	cmp	r3, #12
 80017f4:	f200 808b 	bhi.w	800190e <stm32_clock_control_get_subsys_rate+0x186>
 80017f8:	e8df f003 	tbb	[pc, r3]
 80017fc:	89898929 	.word	0x89898929
 8001800:	89898929 	.word	0x89898929
 8001804:	8989892b 	.word	0x8989892b
 8001808:	2d          	.byte	0x2d
 8001809:	00          	.byte	0x00
 800180a:	2a88      	cmp	r2, #136	@ 0x88
 800180c:	d319      	bcc.n	8001842 <stm32_clock_control_get_subsys_rate+0xba>
 800180e:	f603 7378 	addw	r3, r3, #3960	@ 0xf78
 8001812:	f3c3 030b 	ubfx	r3, r3, #0, #12
 8001816:	f241 0211 	movw	r2, #4113	@ 0x1011
 800181a:	fa22 f303 	lsr.w	r3, r2, r3
 800181e:	f013 0f01 	tst.w	r3, #1
 8001822:	d0db      	beq.n	80017dc <stm32_clock_control_get_subsys_rate+0x54>
	case STM32_CLOCK_BUS_AHB1:
	case STM32_CLOCK_BUS_AHB2:
	case STM32_CLOCK_BUS_AHB4:
	case STM32_SRC_HCLK:
		*rate = ahb_clock;
 8001824:	602e      	str	r6, [r5, #0]
		break;
	default:
		return -ENOTSUP;
	}

	if (pclken->div) {
 8001826:	6823      	ldr	r3, [r4, #0]
 8001828:	f5b3 5f80 	cmp.w	r3, #4096	@ 0x1000
 800182c:	d378      	bcc.n	8001920 <stm32_clock_control_get_subsys_rate+0x198>
		*rate /= (pclken->div + 1);
 800182e:	682a      	ldr	r2, [r5, #0]
 8001830:	f3c3 3313 	ubfx	r3, r3, #12, #20
 8001834:	3301      	adds	r3, #1
 8001836:	fbb2 f2f3 	udiv	r2, r2, r3
 800183a:	602a      	str	r2, [r5, #0]
	}

	return 0;
 800183c:	2000      	movs	r0, #0
}
 800183e:	b003      	add	sp, #12
 8001840:	bdf0      	pop	{r4, r5, r6, r7, pc}
	switch (pclken->bus) {
 8001842:	f06f 0085 	mvn.w	r0, #133	@ 0x85
 8001846:	e7fa      	b.n	800183e <stm32_clock_control_get_subsys_rate+0xb6>
 8001848:	f06f 0085 	mvn.w	r0, #133	@ 0x85
 800184c:	e7f7      	b.n	800183e <stm32_clock_control_get_subsys_rate+0xb6>
		*rate = apb1_clock;
 800184e:	602f      	str	r7, [r5, #0]
		break;
 8001850:	e7e9      	b.n	8001826 <stm32_clock_control_get_subsys_rate+0x9e>
		*rate = apb2_clock;
 8001852:	6028      	str	r0, [r5, #0]
		break;
 8001854:	e7e7      	b.n	8001826 <stm32_clock_control_get_subsys_rate+0x9e>
		*rate = apb3_clock;
 8001856:	602f      	str	r7, [r5, #0]
		break;
 8001858:	e7e5      	b.n	8001826 <stm32_clock_control_get_subsys_rate+0x9e>
		*rate = get_sysclk_frequency();
 800185a:	f003 f837 	bl	80048cc <get_sysclk_frequency>
 800185e:	6028      	str	r0, [r5, #0]
		break;
 8001860:	e7e1      	b.n	8001826 <stm32_clock_control_get_subsys_rate+0x9e>
		*rate = STM32_HSE_FREQ;
 8001862:	4b31      	ldr	r3, [pc, #196]	@ (8001928 <stm32_clock_control_get_subsys_rate+0x1a0>)
 8001864:	602b      	str	r3, [r5, #0]
		break;
 8001866:	e7de      	b.n	8001826 <stm32_clock_control_get_subsys_rate+0x9e>
		*rate = STM32_LSE_FREQ;
 8001868:	f44f 4300 	mov.w	r3, #32768	@ 0x8000
 800186c:	602b      	str	r3, [r5, #0]
		break;
 800186e:	e7da      	b.n	8001826 <stm32_clock_control_get_subsys_rate+0x9e>
		*rate = STM32_LSI_FREQ;
 8001870:	f44f 43fa 	mov.w	r3, #32000	@ 0x7d00
 8001874:	602b      	str	r3, [r5, #0]
		break;
 8001876:	e7d6      	b.n	8001826 <stm32_clock_control_get_subsys_rate+0x9e>
		*rate = STM32_HSI48_FREQ;
 8001878:	4b2c      	ldr	r3, [pc, #176]	@ (800192c <stm32_clock_control_get_subsys_rate+0x1a4>)
 800187a:	602b      	str	r3, [r5, #0]
		break;
 800187c:	e7d3      	b.n	8001826 <stm32_clock_control_get_subsys_rate+0x9e>
		*rate = get_pllout_frequency(get_pllsrc_frequency(PLL1_ID),
 800187e:	2001      	movs	r0, #1
 8001880:	f7ff ff62 	bl	8001748 <get_pllsrc_frequency>
 8001884:	2102      	movs	r1, #2
 8001886:	9100      	str	r1, [sp, #0]
 8001888:	2300      	movs	r3, #0
 800188a:	2278      	movs	r2, #120	@ 0x78
 800188c:	f003 f80c 	bl	80048a8 <get_pllout_frequency>
 8001890:	6028      	str	r0, [r5, #0]
		break;
 8001892:	e7c8      	b.n	8001826 <stm32_clock_control_get_subsys_rate+0x9e>
		*rate = get_pllout_frequency(get_pllsrc_frequency(PLL1_ID),
 8001894:	2001      	movs	r0, #1
 8001896:	f7ff ff57 	bl	8001748 <get_pllsrc_frequency>
 800189a:	2304      	movs	r3, #4
 800189c:	9300      	str	r3, [sp, #0]
 800189e:	2300      	movs	r3, #0
 80018a0:	2278      	movs	r2, #120	@ 0x78
 80018a2:	2102      	movs	r1, #2
 80018a4:	f003 f800 	bl	80048a8 <get_pllout_frequency>
 80018a8:	6028      	str	r0, [r5, #0]
		break;
 80018aa:	e7bc      	b.n	8001826 <stm32_clock_control_get_subsys_rate+0x9e>
		*rate = get_pllout_frequency(get_pllsrc_frequency(PLL1_ID),
 80018ac:	2001      	movs	r0, #1
 80018ae:	f7ff ff4b 	bl	8001748 <get_pllsrc_frequency>
 80018b2:	2102      	movs	r1, #2
 80018b4:	9100      	str	r1, [sp, #0]
 80018b6:	2300      	movs	r3, #0
 80018b8:	2278      	movs	r2, #120	@ 0x78
 80018ba:	f002 fff5 	bl	80048a8 <get_pllout_frequency>
 80018be:	6028      	str	r0, [r5, #0]
		break;
 80018c0:	e7b1      	b.n	8001826 <stm32_clock_control_get_subsys_rate+0x9e>
		*rate = get_pllout_frequency(get_pllsrc_frequency(PLL2_ID),
 80018c2:	2002      	movs	r0, #2
 80018c4:	f7ff ff40 	bl	8001748 <get_pllsrc_frequency>
 80018c8:	2102      	movs	r1, #2
 80018ca:	9100      	str	r1, [sp, #0]
 80018cc:	2300      	movs	r3, #0
 80018ce:	2278      	movs	r2, #120	@ 0x78
 80018d0:	f002 ffea 	bl	80048a8 <get_pllout_frequency>
 80018d4:	6028      	str	r0, [r5, #0]
		break;
 80018d6:	e7a6      	b.n	8001826 <stm32_clock_control_get_subsys_rate+0x9e>
		*rate = get_pllout_frequency(get_pllsrc_frequency(PLL2_ID),
 80018d8:	2002      	movs	r0, #2
 80018da:	f7ff ff35 	bl	8001748 <get_pllsrc_frequency>
 80018de:	2303      	movs	r3, #3
 80018e0:	9300      	str	r3, [sp, #0]
 80018e2:	2300      	movs	r3, #0
 80018e4:	2278      	movs	r2, #120	@ 0x78
 80018e6:	2102      	movs	r1, #2
 80018e8:	f002 ffde 	bl	80048a8 <get_pllout_frequency>
 80018ec:	6028      	str	r0, [r5, #0]
		break;
 80018ee:	e79a      	b.n	8001826 <stm32_clock_control_get_subsys_rate+0x9e>
		*rate = get_pllout_frequency(get_pllsrc_frequency(PLL2_ID),
 80018f0:	2002      	movs	r0, #2
 80018f2:	f7ff ff29 	bl	8001748 <get_pllsrc_frequency>
 80018f6:	2102      	movs	r1, #2
 80018f8:	9100      	str	r1, [sp, #0]
 80018fa:	2300      	movs	r3, #0
 80018fc:	2278      	movs	r2, #120	@ 0x78
 80018fe:	f002 ffd3 	bl	80048a8 <get_pllout_frequency>
 8001902:	6028      	str	r0, [r5, #0]
		break;
 8001904:	e78f      	b.n	8001826 <stm32_clock_control_get_subsys_rate+0x9e>
			*rate = STM32_APB1_PRESCALER <= 2 ? ahb_clock : apb1_clock * 2;
 8001906:	602e      	str	r6, [r5, #0]
		break;
 8001908:	e78d      	b.n	8001826 <stm32_clock_control_get_subsys_rate+0x9e>
			*rate = STM32_APB2_PRESCALER <= 2 ? ahb_clock : apb2_clock * 2;
 800190a:	602e      	str	r6, [r5, #0]
		break;
 800190c:	e78b      	b.n	8001826 <stm32_clock_control_get_subsys_rate+0x9e>
	switch (pclken->bus) {
 800190e:	f06f 0085 	mvn.w	r0, #133	@ 0x85
 8001912:	e794      	b.n	800183e <stm32_clock_control_get_subsys_rate+0xb6>
 8001914:	f06f 0085 	mvn.w	r0, #133	@ 0x85
 8001918:	e791      	b.n	800183e <stm32_clock_control_get_subsys_rate+0xb6>
 800191a:	f06f 0085 	mvn.w	r0, #133	@ 0x85
 800191e:	e78e      	b.n	800183e <stm32_clock_control_get_subsys_rate+0xb6>
	return 0;
 8001920:	2000      	movs	r0, #0
 8001922:	e78c      	b.n	800183e <stm32_clock_control_get_subsys_rate+0xb6>
 8001924:	2000004c 	.word	0x2000004c
 8001928:	007a1200 	.word	0x007a1200
 800192c:	02dc6c00 	.word	0x02dc6c00

08001930 <get_vco_input_range>:
	.configure = stm32_clock_control_configure,
};

__unused
static int get_vco_input_range(uint32_t m_div, uint32_t *range, size_t pll_id)
{
 8001930:	b538      	push	{r3, r4, r5, lr}
 8001932:	4604      	mov	r4, r0
 8001934:	460d      	mov	r5, r1
	uint32_t vco_freq;

	vco_freq = get_pllsrc_frequency(pll_id) / m_div;
 8001936:	4610      	mov	r0, r2
 8001938:	f7ff ff06 	bl	8001748 <get_pllsrc_frequency>
 800193c:	fbb0 f0f4 	udiv	r0, r0, r4

	if (MHZ(1) <= vco_freq && vco_freq <= MHZ(2)) {
 8001940:	f5a0 2374 	sub.w	r3, r0, #999424	@ 0xf4000
 8001944:	f5a3 7310 	sub.w	r3, r3, #576	@ 0x240
 8001948:	4a13      	ldr	r2, [pc, #76]	@ (8001998 <get_vco_input_range+0x68>)
 800194a:	4293      	cmp	r3, r2
 800194c:	d802      	bhi.n	8001954 <get_vco_input_range+0x24>
		*range = LL_RCC_PLLINPUTRANGE_1_2;
 800194e:	2000      	movs	r0, #0
 8001950:	6028      	str	r0, [r5, #0]
	} else {
		return -ERANGE;
	}

	return 0;
}
 8001952:	bd38      	pop	{r3, r4, r5, pc}
	} else if (MHZ(2) < vco_freq && vco_freq <= MHZ(4)) {
 8001954:	f5a0 13f4 	sub.w	r3, r0, #1998848	@ 0x1e8000
 8001958:	f2a3 4381 	subw	r3, r3, #1153	@ 0x481
 800195c:	4a0f      	ldr	r2, [pc, #60]	@ (800199c <get_vco_input_range+0x6c>)
 800195e:	4293      	cmp	r3, r2
 8001960:	d803      	bhi.n	800196a <get_vco_input_range+0x3a>
		*range = LL_RCC_PLLINPUTRANGE_2_4;
 8001962:	2301      	movs	r3, #1
 8001964:	602b      	str	r3, [r5, #0]
	return 0;
 8001966:	2000      	movs	r0, #0
 8001968:	e7f3      	b.n	8001952 <get_vco_input_range+0x22>
	} else if (MHZ(4) < vco_freq && vco_freq <= MHZ(8)) {
 800196a:	f5a0 1374 	sub.w	r3, r0, #3997696	@ 0x3d0000
 800196e:	f6a3 1301 	subw	r3, r3, #2305	@ 0x901
 8001972:	4a0b      	ldr	r2, [pc, #44]	@ (80019a0 <get_vco_input_range+0x70>)
 8001974:	4293      	cmp	r3, r2
 8001976:	d803      	bhi.n	8001980 <get_vco_input_range+0x50>
		*range = LL_RCC_PLLINPUTRANGE_4_8;
 8001978:	2302      	movs	r3, #2
 800197a:	602b      	str	r3, [r5, #0]
	return 0;
 800197c:	2000      	movs	r0, #0
 800197e:	e7e8      	b.n	8001952 <get_vco_input_range+0x22>
	} else if (MHZ(8) < vco_freq && vco_freq <= MHZ(16)) {
 8001980:	4b08      	ldr	r3, [pc, #32]	@ (80019a4 <get_vco_input_range+0x74>)
 8001982:	4403      	add	r3, r0
 8001984:	4a08      	ldr	r2, [pc, #32]	@ (80019a8 <get_vco_input_range+0x78>)
 8001986:	4293      	cmp	r3, r2
 8001988:	d203      	bcs.n	8001992 <get_vco_input_range+0x62>
		*range = LL_RCC_PLLINPUTRANGE_8_16;
 800198a:	2303      	movs	r3, #3
 800198c:	602b      	str	r3, [r5, #0]
	return 0;
 800198e:	2000      	movs	r0, #0
 8001990:	e7df      	b.n	8001952 <get_vco_input_range+0x22>
		return -ERANGE;
 8001992:	f06f 0021 	mvn.w	r0, #33	@ 0x21
 8001996:	e7dc      	b.n	8001952 <get_vco_input_range+0x22>
 8001998:	000f4240 	.word	0x000f4240
 800199c:	001e847f 	.word	0x001e847f
 80019a0:	003d08ff 	.word	0x003d08ff
 80019a4:	ff85edff 	.word	0xff85edff
 80019a8:	007a1200 	.word	0x007a1200

080019ac <set_regu_voltage>:
	return LL_RCC_PLLVCORANGE_WIDE;
}

static void set_regu_voltage(uint32_t hclk_freq)
{
	if (hclk_freq <= MHZ(100)) {
 80019ac:	4b16      	ldr	r3, [pc, #88]	@ (8001a08 <set_regu_voltage+0x5c>)
 80019ae:	4298      	cmp	r0, r3
 80019b0:	d805      	bhi.n	80019be <set_regu_voltage+0x12>
  MODIFY_REG(PWR->VOSCR, PWR_VOSCR_VOS, VoltageScaling);
 80019b2:	4a16      	ldr	r2, [pc, #88]	@ (8001a0c <set_regu_voltage+0x60>)
 80019b4:	6913      	ldr	r3, [r2, #16]
 80019b6:	f023 0330 	bic.w	r3, r3, #48	@ 0x30
 80019ba:	6113      	str	r3, [r2, #16]
}
 80019bc:	e01c      	b.n	80019f8 <set_regu_voltage+0x4c>
		LL_PWR_SetRegulVoltageScaling(LL_PWR_REGU_VOLTAGE_SCALE3);
	} else if (hclk_freq <= MHZ(150)) {
 80019be:	4b14      	ldr	r3, [pc, #80]	@ (8001a10 <set_regu_voltage+0x64>)
 80019c0:	4298      	cmp	r0, r3
 80019c2:	d807      	bhi.n	80019d4 <set_regu_voltage+0x28>
  MODIFY_REG(PWR->VOSCR, PWR_VOSCR_VOS, VoltageScaling);
 80019c4:	4a11      	ldr	r2, [pc, #68]	@ (8001a0c <set_regu_voltage+0x60>)
 80019c6:	6913      	ldr	r3, [r2, #16]
 80019c8:	f023 0330 	bic.w	r3, r3, #48	@ 0x30
 80019cc:	f043 0310 	orr.w	r3, r3, #16
 80019d0:	6113      	str	r3, [r2, #16]
}
 80019d2:	e011      	b.n	80019f8 <set_regu_voltage+0x4c>
		LL_PWR_SetRegulVoltageScaling(LL_PWR_REGU_VOLTAGE_SCALE2);
	} else if (hclk_freq <= MHZ(200)) {
 80019d4:	4b0f      	ldr	r3, [pc, #60]	@ (8001a14 <set_regu_voltage+0x68>)
 80019d6:	4298      	cmp	r0, r3
 80019d8:	d807      	bhi.n	80019ea <set_regu_voltage+0x3e>
  MODIFY_REG(PWR->VOSCR, PWR_VOSCR_VOS, VoltageScaling);
 80019da:	4a0c      	ldr	r2, [pc, #48]	@ (8001a0c <set_regu_voltage+0x60>)
 80019dc:	6913      	ldr	r3, [r2, #16]
 80019de:	f023 0330 	bic.w	r3, r3, #48	@ 0x30
 80019e2:	f043 0320 	orr.w	r3, r3, #32
 80019e6:	6113      	str	r3, [r2, #16]
}
 80019e8:	e006      	b.n	80019f8 <set_regu_voltage+0x4c>
  MODIFY_REG(PWR->VOSCR, PWR_VOSCR_VOS, VoltageScaling);
 80019ea:	4a08      	ldr	r2, [pc, #32]	@ (8001a0c <set_regu_voltage+0x60>)
 80019ec:	6913      	ldr	r3, [r2, #16]
 80019ee:	f043 0330 	orr.w	r3, r3, #48	@ 0x30
 80019f2:	6113      	str	r3, [r2, #16]
}
 80019f4:	e000      	b.n	80019f8 <set_regu_voltage+0x4c>
		LL_PWR_SetRegulVoltageScaling(LL_PWR_REGU_VOLTAGE_SCALE1);
	} else {
		LL_PWR_SetRegulVoltageScaling(LL_PWR_REGU_VOLTAGE_SCALE0);
	}
	while (LL_PWR_IsActiveFlag_VOS() == 0) {
 80019f6:	b933      	cbnz	r3, 8001a06 <set_regu_voltage+0x5a>
  * @rmtoll VOSSR          VOSRDY          LL_PWR_IsActiveFlag_VOS
  * @retval State of bit (1 or 0).
  */
__STATIC_INLINE uint32_t LL_PWR_IsActiveFlag_VOS(void)
{
  return ((READ_BIT(PWR->VOSSR, PWR_VOSSR_VOSRDY) == (PWR_VOSSR_VOSRDY)) ? 1UL : 0UL);
 80019f8:	4b04      	ldr	r3, [pc, #16]	@ (8001a0c <set_regu_voltage+0x60>)
 80019fa:	695b      	ldr	r3, [r3, #20]
 80019fc:	f013 0308 	ands.w	r3, r3, #8
 8001a00:	d0f9      	beq.n	80019f6 <set_regu_voltage+0x4a>
 8001a02:	2301      	movs	r3, #1
 8001a04:	e7f7      	b.n	80019f6 <set_regu_voltage+0x4a>
	}
}
 8001a06:	4770      	bx	lr
 8001a08:	05f5e100 	.word	0x05f5e100
 8001a0c:	44020800 	.word	0x44020800
 8001a10:	08f0d180 	.word	0x08f0d180
 8001a14:	0bebc200 	.word	0x0bebc200

08001a18 <clock_switch_to_hsi>:
  return ((READ_BIT(RCC->CR, RCC_CR_HSIRDY) == RCC_CR_HSIRDY) ? 1UL : 0UL);
 8001a18:	4b11      	ldr	r3, [pc, #68]	@ (8001a60 <clock_switch_to_hsi+0x48>)
 8001a1a:	681b      	ldr	r3, [r3, #0]
 8001a1c:	f013 0f02 	tst.w	r3, #2
 8001a20:	d10e      	bne.n	8001a40 <clock_switch_to_hsi+0x28>
  SET_BIT(RCC->CR, RCC_CR_HSION);
 8001a22:	4a0f      	ldr	r2, [pc, #60]	@ (8001a60 <clock_switch_to_hsi+0x48>)
 8001a24:	6813      	ldr	r3, [r2, #0]
 8001a26:	f043 0301 	orr.w	r3, r3, #1
 8001a2a:	6013      	str	r3, [r2, #0]
}
 8001a2c:	e001      	b.n	8001a32 <clock_switch_to_hsi+0x1a>
{
	/* Enable HSI if not enabled */
	if (LL_RCC_HSI_IsReady() != 1) {
		/* Enable HSI */
		LL_RCC_HSI_Enable();
		while (LL_RCC_HSI_IsReady() != 1) {
 8001a2e:	2b01      	cmp	r3, #1
 8001a30:	d006      	beq.n	8001a40 <clock_switch_to_hsi+0x28>
  return ((READ_BIT(RCC->CR, RCC_CR_HSIRDY) == RCC_CR_HSIRDY) ? 1UL : 0UL);
 8001a32:	4b0b      	ldr	r3, [pc, #44]	@ (8001a60 <clock_switch_to_hsi+0x48>)
 8001a34:	681b      	ldr	r3, [r3, #0]
 8001a36:	f013 0302 	ands.w	r3, r3, #2
 8001a3a:	d0f8      	beq.n	8001a2e <clock_switch_to_hsi+0x16>
 8001a3c:	2301      	movs	r3, #1
 8001a3e:	e7f6      	b.n	8001a2e <clock_switch_to_hsi+0x16>
  MODIFY_REG(RCC->CFGR1, RCC_CFGR1_SW, Source);
 8001a40:	4a07      	ldr	r2, [pc, #28]	@ (8001a60 <clock_switch_to_hsi+0x48>)
 8001a42:	69d3      	ldr	r3, [r2, #28]
 8001a44:	f023 0303 	bic.w	r3, r3, #3
 8001a48:	61d3      	str	r3, [r2, #28]
  return (uint32_t)(READ_BIT(RCC->CFGR1, RCC_CFGR1_SWS));
 8001a4a:	4b05      	ldr	r3, [pc, #20]	@ (8001a60 <clock_switch_to_hsi+0x48>)
 8001a4c:	69db      	ldr	r3, [r3, #28]
		}
	}

	/* Set HSI as SYSCLCK source */
	LL_RCC_SetSysClkSource(LL_RCC_SYS_CLKSOURCE_HSI);
	while (LL_RCC_GetSysClkSource() != LL_RCC_SYS_CLKSOURCE_STATUS_HSI) {
 8001a4e:	f013 0f18 	tst.w	r3, #24
 8001a52:	d1fa      	bne.n	8001a4a <clock_switch_to_hsi+0x32>
  *         @arg @ref LL_RCC_SYSCLK_DIV_512
  * @retval None
  */
__STATIC_INLINE void LL_RCC_SetAHBPrescaler(uint32_t Prescaler)
{
  MODIFY_REG(RCC->CFGR2, RCC_CFGR2_HPRE, Prescaler);
 8001a54:	4a02      	ldr	r2, [pc, #8]	@ (8001a60 <clock_switch_to_hsi+0x48>)
 8001a56:	6a13      	ldr	r3, [r2, #32]
 8001a58:	f023 030f 	bic.w	r3, r3, #15
 8001a5c:	6213      	str	r3, [r2, #32]
	}

	LL_RCC_SetAHBPrescaler(LL_RCC_SYSCLK_DIV_1);
}
 8001a5e:	4770      	bx	lr
 8001a60:	44020c00 	.word	0x44020c00

08001a64 <set_up_plls>:

__unused
static int set_up_plls(void)
{
 8001a64:	b530      	push	{r4, r5, lr}
 8001a66:	b083      	sub	sp, #12
  return (uint32_t)(READ_BIT(RCC->CFGR1, RCC_CFGR1_SWS));
 8001a68:	4b65      	ldr	r3, [pc, #404]	@ (8001c00 <set_up_plls+0x19c>)
 8001a6a:	69db      	ldr	r3, [r3, #28]
 8001a6c:	f003 0318 	and.w	r3, r3, #24
	 * Switch to HSI and disable the PLL before configuration.
	 * (Switching to HSI makes sure we have a SYSCLK source in
	 * case we're currently running from the PLL we're about to
	 * turn off and reconfigure.)
	 */
	if (LL_RCC_GetSysClkSource() == LL_RCC_SYS_CLKSOURCE_STATUS_PLL1) {
 8001a70:	2b18      	cmp	r3, #24
 8001a72:	d054      	beq.n	8001b1e <set_up_plls+0xba>
  * @rmtoll CR           PLLON         LL_RCC_PLL1_Disable
  * @retval None
  */
__STATIC_INLINE void LL_RCC_PLL1_Disable(void)
{
  CLEAR_BIT(RCC->CR, RCC_CR_PLL1ON);
 8001a74:	4b62      	ldr	r3, [pc, #392]	@ (8001c00 <set_up_plls+0x19c>)
 8001a76:	681a      	ldr	r2, [r3, #0]
 8001a78:	f022 7280 	bic.w	r2, r2, #16777216	@ 0x1000000
 8001a7c:	601a      	str	r2, [r3, #0]
  *         @arg @ref LL_RCC_PLL1SOURCE_HSE
  * @retval None
  */
__STATIC_INLINE void LL_RCC_PLL1_SetSource(uint32_t PLL1Source)
{
  MODIFY_REG(RCC->PLL1CFGR, RCC_PLL1CFGR_PLL1SRC, PLL1Source);
 8001a7e:	6a9a      	ldr	r2, [r3, #40]	@ 0x28
 8001a80:	f042 0203 	orr.w	r2, r2, #3
 8001a84:	629a      	str	r2, [r3, #40]	@ 0x28
		LL_RCC_PLL1_SetSource(LL_RCC_PLL1SOURCE_HSI);
	} else {
		return -ENOTSUP;
	}

	r = get_vco_input_range(STM32_PLL_M_DIVISOR, &vco_input_range, PLL1_ID);
 8001a86:	2201      	movs	r2, #1
 8001a88:	a901      	add	r1, sp, #4
 8001a8a:	2002      	movs	r0, #2
 8001a8c:	f7ff ff50 	bl	8001930 <get_vco_input_range>
	if (r < 0) {
 8001a90:	2800      	cmp	r0, #0
 8001a92:	f2c0 80b3 	blt.w	8001bfc <set_up_plls+0x198>
		return r;
	}

	vco_output_range = get_vco_output_range(vco_input_range);
 8001a96:	9c01      	ldr	r4, [sp, #4]
 8001a98:	4620      	mov	r0, r4
 8001a9a:	f002 ff5e 	bl	800495a <get_vco_output_range>
  * @rmtoll PLL1CFGR      PLL1M          LL_RCC_PLL1_SetM
  * @param PLL1M parameter can be a value between 1 and 63
  */
__STATIC_INLINE void LL_RCC_PLL1_SetM(uint32_t PLL1M)
{
  MODIFY_REG(RCC->PLL1CFGR, RCC_PLL1CFGR_PLL1M, PLL1M  << RCC_PLL1CFGR_PLL1M_Pos);
 8001a9e:	4b58      	ldr	r3, [pc, #352]	@ (8001c00 <set_up_plls+0x19c>)
 8001aa0:	6a9a      	ldr	r2, [r3, #40]	@ 0x28
 8001aa2:	f422 527c 	bic.w	r2, r2, #16128	@ 0x3f00
 8001aa6:	f442 7200 	orr.w	r2, r2, #512	@ 0x200
 8001aaa:	629a      	str	r2, [r3, #40]	@ 0x28
  *         @arg @ref LL_RCC_PLLINPUTRANGE_8_16
  * @retval None
  */
__STATIC_INLINE void LL_RCC_PLL1_SetVCOInputRange(uint32_t InputRange)
{
  MODIFY_REG(RCC->PLL1CFGR, RCC_PLL1CFGR_PLL1RGE, InputRange << RCC_PLL1CFGR_PLL1RGE_Pos);
 8001aac:	6a9a      	ldr	r2, [r3, #40]	@ 0x28
 8001aae:	f022 020c 	bic.w	r2, r2, #12
 8001ab2:	ea42 0284 	orr.w	r2, r2, r4, lsl #2
 8001ab6:	629a      	str	r2, [r3, #40]	@ 0x28
  *         @arg @ref LL_RCC_PLLVCORANGE_MEDIUM
  * @retval None
  */
__STATIC_INLINE void LL_RCC_PLL1_SetVCOOutputRange(uint32_t VCORange)
{
  MODIFY_REG(RCC->PLL1CFGR, RCC_PLL1CFGR_PLL1VCOSEL, VCORange << RCC_PLL1CFGR_PLL1VCOSEL_Pos);
 8001ab8:	6a9a      	ldr	r2, [r3, #40]	@ 0x28
 8001aba:	f022 0220 	bic.w	r2, r2, #32
 8001abe:	ea42 1240 	orr.w	r2, r2, r0, lsl #5
 8001ac2:	629a      	str	r2, [r3, #40]	@ 0x28
  MODIFY_REG(RCC->PLL1DIVR, RCC_PLL1DIVR_PLL1N, (PLL1N - 1UL) << RCC_PLL1DIVR_PLL1N_Pos);
 8001ac4:	6b5a      	ldr	r2, [r3, #52]	@ 0x34
 8001ac6:	f36f 0208 	bfc	r2, #0, #9
 8001aca:	f042 0277 	orr.w	r2, r2, #119	@ 0x77
 8001ace:	635a      	str	r2, [r3, #52]	@ 0x34
  CLEAR_BIT(RCC->PLL1CFGR, RCC_PLL1CFGR_PLL1FRACEN);
 8001ad0:	6a9a      	ldr	r2, [r3, #40]	@ 0x28
 8001ad2:	f022 0210 	bic.w	r2, r2, #16
 8001ad6:	629a      	str	r2, [r3, #40]	@ 0x28
  MODIFY_REG(RCC->PLL1DIVR, RCC_PLL1DIVR_PLL1P, (PLL1P - 1UL) << RCC_PLL1DIVR_PLL1P_Pos);
 8001ad8:	6b5a      	ldr	r2, [r3, #52]	@ 0x34
 8001ada:	f422 427e 	bic.w	r2, r2, #65024	@ 0xfe00
 8001ade:	f442 7200 	orr.w	r2, r2, #512	@ 0x200
 8001ae2:	635a      	str	r2, [r3, #52]	@ 0x34
  SET_BIT(RCC->PLL1CFGR, RCC_PLL1CFGR_PLL1PEN);
 8001ae4:	6a9a      	ldr	r2, [r3, #40]	@ 0x28
 8001ae6:	f442 3280 	orr.w	r2, r2, #65536	@ 0x10000
 8001aea:	629a      	str	r2, [r3, #40]	@ 0x28
  MODIFY_REG(RCC->PLL1DIVR, RCC_PLL1DIVR_PLL1Q, (PLL1Q - 1UL) << RCC_PLL1DIVR_PLL1Q_Pos);
 8001aec:	6b5a      	ldr	r2, [r3, #52]	@ 0x34
 8001aee:	f422 02fe 	bic.w	r2, r2, #8323072	@ 0x7f0000
 8001af2:	f442 3240 	orr.w	r2, r2, #196608	@ 0x30000
 8001af6:	635a      	str	r2, [r3, #52]	@ 0x34
  SET_BIT(RCC->PLL1CFGR, RCC_PLL1CFGR_PLL1QEN);
 8001af8:	6a9a      	ldr	r2, [r3, #40]	@ 0x28
 8001afa:	f442 3200 	orr.w	r2, r2, #131072	@ 0x20000
 8001afe:	629a      	str	r2, [r3, #40]	@ 0x28
  MODIFY_REG(RCC->PLL1DIVR, RCC_PLL1DIVR_PLL1R, (PLL1R - 1UL) << RCC_PLL1DIVR_PLL1R_Pos);
 8001b00:	6b5a      	ldr	r2, [r3, #52]	@ 0x34
 8001b02:	f022 42fe 	bic.w	r2, r2, #2130706432	@ 0x7f000000
 8001b06:	f042 7280 	orr.w	r2, r2, #16777216	@ 0x1000000
 8001b0a:	635a      	str	r2, [r3, #52]	@ 0x34
  SET_BIT(RCC->PLL1CFGR, RCC_PLL1CFGR_PLL1REN);
 8001b0c:	6a9a      	ldr	r2, [r3, #40]	@ 0x28
 8001b0e:	f442 2280 	orr.w	r2, r2, #262144	@ 0x40000
 8001b12:	629a      	str	r2, [r3, #40]	@ 0x28
  SET_BIT(RCC->CR, RCC_CR_PLL1ON);
 8001b14:	681a      	ldr	r2, [r3, #0]
 8001b16:	f042 7280 	orr.w	r2, r2, #16777216	@ 0x1000000
 8001b1a:	601a      	str	r2, [r3, #0]
}
 8001b1c:	e004      	b.n	8001b28 <set_up_plls+0xc4>
		clock_switch_to_hsi();
 8001b1e:	f7ff ff7b 	bl	8001a18 <clock_switch_to_hsi>
 8001b22:	e7a7      	b.n	8001a74 <set_up_plls+0x10>
		LL_RCC_PLL1_SetR(STM32_PLL_R_DIVISOR);
		LL_RCC_PLL1R_Enable();
	}

	LL_RCC_PLL1_Enable();
	while (LL_RCC_PLL1_IsReady() != 1U) {
 8001b24:	2c01      	cmp	r4, #1
 8001b26:	d006      	beq.n	8001b36 <set_up_plls+0xd2>
  return ((READ_BIT(RCC->CR, RCC_CR_PLL1RDY) == RCC_CR_PLL1RDY) ? 1UL : 0UL);
 8001b28:	4b35      	ldr	r3, [pc, #212]	@ (8001c00 <set_up_plls+0x19c>)
 8001b2a:	681c      	ldr	r4, [r3, #0]
 8001b2c:	f014 7400 	ands.w	r4, r4, #33554432	@ 0x2000000
 8001b30:	d0f8      	beq.n	8001b24 <set_up_plls+0xc0>
 8001b32:	2401      	movs	r4, #1
 8001b34:	e7f6      	b.n	8001b24 <set_up_plls+0xc0>
  * @rmtoll CR           PLL2ON     LL_RCC_PLL2_Disable
  * @retval None
  */
__STATIC_INLINE void LL_RCC_PLL2_Disable(void)
{
  CLEAR_BIT(RCC->CR, RCC_CR_PLL2ON);
 8001b36:	4b32      	ldr	r3, [pc, #200]	@ (8001c00 <set_up_plls+0x19c>)
 8001b38:	681a      	ldr	r2, [r3, #0]
 8001b3a:	f022 6280 	bic.w	r2, r2, #67108864	@ 0x4000000
 8001b3e:	601a      	str	r2, [r3, #0]
  *         @arg @ref LL_RCC_PLL2SOURCE_HSE
  * @retval None
  */
__STATIC_INLINE void LL_RCC_PLL2_SetSource(uint32_t PLL2Source)
{
  MODIFY_REG(RCC->PLL2CFGR, RCC_PLL2CFGR_PLL2SRC, PLL2Source);
 8001b40:	6ada      	ldr	r2, [r3, #44]	@ 0x2c
 8001b42:	f042 0203 	orr.w	r2, r2, #3
 8001b46:	62da      	str	r2, [r3, #44]	@ 0x2c
		LL_RCC_PLL2_SetSource(LL_RCC_PLL2SOURCE_HSI);
	} else {
		return -ENOTSUP;
	}

	r = get_vco_input_range(STM32_PLL2_M_DIVISOR, &vco_input_range, PLL2_ID);
 8001b48:	2202      	movs	r2, #2
 8001b4a:	a901      	add	r1, sp, #4
 8001b4c:	4610      	mov	r0, r2
 8001b4e:	f7ff feef 	bl	8001930 <get_vco_input_range>
	if (r < 0) {
 8001b52:	2800      	cmp	r0, #0
 8001b54:	db52      	blt.n	8001bfc <set_up_plls+0x198>
		return r;
	}

	vco_output_range = get_vco_output_range(vco_input_range);
 8001b56:	9d01      	ldr	r5, [sp, #4]
 8001b58:	4628      	mov	r0, r5
 8001b5a:	f002 fefe 	bl	800495a <get_vco_output_range>
  * @rmtoll PLL2CFGR      PLL2M          LL_RCC_PLL2_SetM
  * @param PLL2M parameter can be a value between 1 and 63
  */
__STATIC_INLINE void LL_RCC_PLL2_SetM(uint32_t PLL2M)
{
  MODIFY_REG(RCC->PLL2CFGR, RCC_PLL2CFGR_PLL2M, PLL2M << RCC_PLL2CFGR_PLL2M_Pos);
 8001b5e:	4b28      	ldr	r3, [pc, #160]	@ (8001c00 <set_up_plls+0x19c>)
 8001b60:	6ada      	ldr	r2, [r3, #44]	@ 0x2c
 8001b62:	f422 527c 	bic.w	r2, r2, #16128	@ 0x3f00
 8001b66:	f442 7200 	orr.w	r2, r2, #512	@ 0x200
 8001b6a:	62da      	str	r2, [r3, #44]	@ 0x2c
  *         @arg @ref LL_RCC_PLLINPUTRANGE_8_16
  * @retval None
  */
__STATIC_INLINE void LL_RCC_PLL2_SetVCOInputRange(uint32_t InputRange)
{
  MODIFY_REG(RCC->PLL2CFGR, RCC_PLL2CFGR_PLL2RGE, InputRange << RCC_PLL2CFGR_PLL2RGE_Pos);
 8001b6c:	6ada      	ldr	r2, [r3, #44]	@ 0x2c
 8001b6e:	f022 020c 	bic.w	r2, r2, #12
 8001b72:	ea42 0285 	orr.w	r2, r2, r5, lsl #2
 8001b76:	62da      	str	r2, [r3, #44]	@ 0x2c
  *         @arg @ref LL_RCC_PLLVCORANGE_MEDIUM
  * @retval None
  */
__STATIC_INLINE void LL_RCC_PLL2_SetVCOOutputRange(uint32_t VCORange)
{
  MODIFY_REG(RCC->PLL2CFGR, RCC_PLL2CFGR_PLL2VCOSEL, VCORange << RCC_PLL2CFGR_PLL2VCOSEL_Pos);
 8001b78:	6ada      	ldr	r2, [r3, #44]	@ 0x2c
 8001b7a:	f022 0220 	bic.w	r2, r2, #32
 8001b7e:	ea42 1240 	orr.w	r2, r2, r0, lsl #5
 8001b82:	62da      	str	r2, [r3, #44]	@ 0x2c
  MODIFY_REG(RCC->PLL2DIVR, RCC_PLL2DIVR_PLL2N, (PLL2N - 1UL) << RCC_PLL2DIVR_PLL2N_Pos);
 8001b84:	6bda      	ldr	r2, [r3, #60]	@ 0x3c
 8001b86:	f36f 0208 	bfc	r2, #0, #9
 8001b8a:	f042 0277 	orr.w	r2, r2, #119	@ 0x77
 8001b8e:	63da      	str	r2, [r3, #60]	@ 0x3c
  CLEAR_BIT(RCC->PLL2CFGR, RCC_PLL2CFGR_PLL2FRACEN);
 8001b90:	6ada      	ldr	r2, [r3, #44]	@ 0x2c
 8001b92:	f022 0210 	bic.w	r2, r2, #16
 8001b96:	62da      	str	r2, [r3, #44]	@ 0x2c
  MODIFY_REG(RCC->PLL2DIVR, RCC_PLL2DIVR_PLL2P, (PLL2P - 1UL) << RCC_PLL2DIVR_PLL2P_Pos);
 8001b98:	6bda      	ldr	r2, [r3, #60]	@ 0x3c
 8001b9a:	f422 427e 	bic.w	r2, r2, #65024	@ 0xfe00
 8001b9e:	f442 7200 	orr.w	r2, r2, #512	@ 0x200
 8001ba2:	63da      	str	r2, [r3, #60]	@ 0x3c
  SET_BIT(RCC->PLL2CFGR, RCC_PLL2CFGR_PLL2PEN);
 8001ba4:	6ada      	ldr	r2, [r3, #44]	@ 0x2c
 8001ba6:	f442 3280 	orr.w	r2, r2, #65536	@ 0x10000
 8001baa:	62da      	str	r2, [r3, #44]	@ 0x2c
  MODIFY_REG(RCC->PLL2DIVR, RCC_PLL2DIVR_PLL2Q, (PLL2Q - 1UL) << RCC_PLL2DIVR_PLL2Q_Pos);
 8001bac:	6bda      	ldr	r2, [r3, #60]	@ 0x3c
 8001bae:	f422 02fe 	bic.w	r2, r2, #8323072	@ 0x7f0000
 8001bb2:	f442 3200 	orr.w	r2, r2, #131072	@ 0x20000
 8001bb6:	63da      	str	r2, [r3, #60]	@ 0x3c
  SET_BIT(RCC->PLL2CFGR, RCC_PLL2CFGR_PLL2QEN);
 8001bb8:	6ada      	ldr	r2, [r3, #44]	@ 0x2c
 8001bba:	f442 3200 	orr.w	r2, r2, #131072	@ 0x20000
 8001bbe:	62da      	str	r2, [r3, #44]	@ 0x2c
  MODIFY_REG(RCC->PLL2DIVR, RCC_PLL2DIVR_PLL2R, (PLL2R - 1UL) << RCC_PLL2DIVR_PLL2R_Pos);
 8001bc0:	6bda      	ldr	r2, [r3, #60]	@ 0x3c
 8001bc2:	f022 42fe 	bic.w	r2, r2, #2130706432	@ 0x7f000000
 8001bc6:	f042 7280 	orr.w	r2, r2, #16777216	@ 0x1000000
 8001bca:	63da      	str	r2, [r3, #60]	@ 0x3c
  SET_BIT(RCC->PLL2CFGR, RCC_PLL2CFGR_PLL2REN);
 8001bcc:	6ada      	ldr	r2, [r3, #44]	@ 0x2c
 8001bce:	f442 2280 	orr.w	r2, r2, #262144	@ 0x40000
 8001bd2:	62da      	str	r2, [r3, #44]	@ 0x2c
  SET_BIT(RCC->CR, RCC_CR_PLL2ON);
 8001bd4:	681a      	ldr	r2, [r3, #0]
 8001bd6:	f042 6280 	orr.w	r2, r2, #67108864	@ 0x4000000
 8001bda:	601a      	str	r2, [r3, #0]
}
 8001bdc:	e001      	b.n	8001be2 <set_up_plls+0x17e>
		LL_RCC_PLL2_SetR(STM32_PLL2_R_DIVISOR);
		LL_RCC_PLL2R_Enable();
	}

	LL_RCC_PLL2_Enable();
	while (LL_RCC_PLL2_IsReady() != 1U) {
 8001bde:	2b01      	cmp	r3, #1
 8001be0:	d006      	beq.n	8001bf0 <set_up_plls+0x18c>
  return ((READ_BIT(RCC->CR, RCC_CR_PLL2RDY) == RCC_CR_PLL2RDY) ? 1UL : 0UL);
 8001be2:	4b07      	ldr	r3, [pc, #28]	@ (8001c00 <set_up_plls+0x19c>)
 8001be4:	681b      	ldr	r3, [r3, #0]
 8001be6:	f013 6300 	ands.w	r3, r3, #134217728	@ 0x8000000
 8001bea:	d0f8      	beq.n	8001bde <set_up_plls+0x17a>
 8001bec:	4623      	mov	r3, r4
 8001bee:	e7f6      	b.n	8001bde <set_up_plls+0x17a>
  *         @arg @ref LL_RCC_PLL3SOURCE_HSE
  * @retval None
  */
__STATIC_INLINE void LL_RCC_PLL3_SetSource(uint32_t PLLSource)
{
  MODIFY_REG(RCC->PLL3CFGR, RCC_PLL3CFGR_PLL3SRC, PLLSource);
 8001bf0:	4a03      	ldr	r2, [pc, #12]	@ (8001c00 <set_up_plls+0x19c>)
 8001bf2:	6b13      	ldr	r3, [r2, #48]	@ 0x30
 8001bf4:	f023 0303 	bic.w	r3, r3, #3
 8001bf8:	6313      	str	r3, [r2, #48]	@ 0x30
	/* Init PLL3 source to None */
	LL_RCC_PLL3_SetSource(LL_RCC_PLL3SOURCE_NONE);
#endif /* STM32_PLL3_ENABLED */
#endif /* (RCC_CR_PLL3ON) */

	return 0;
 8001bfa:	2000      	movs	r0, #0
}
 8001bfc:	b003      	add	sp, #12
 8001bfe:	bd30      	pop	{r4, r5, pc}
 8001c00:	44020c00 	.word	0x44020c00

08001c04 <set_up_fixed_clock_sources>:

static void set_up_fixed_clock_sources(void)
{
 8001c04:	b538      	push	{r3, r4, r5, lr}
  SET_BIT(RCC->CR, RCC_CR_HSEBYP);
 8001c06:	4b29      	ldr	r3, [pc, #164]	@ (8001cac <set_up_fixed_clock_sources+0xa8>)
 8001c08:	681a      	ldr	r2, [r3, #0]
 8001c0a:	f442 2280 	orr.w	r2, r2, #262144	@ 0x40000
 8001c0e:	601a      	str	r2, [r3, #0]
  SET_BIT(RCC->CR, RCC_CR_HSEON);
 8001c10:	681a      	ldr	r2, [r3, #0]
 8001c12:	f442 3280 	orr.w	r2, r2, #65536	@ 0x10000
 8001c16:	601a      	str	r2, [r3, #0]
}
 8001c18:	e001      	b.n	8001c1e <set_up_fixed_clock_sources+0x1a>
			LL_RCC_HSE_DisableBypass();
		}

		/* Enable HSE */
		LL_RCC_HSE_Enable();
		while (LL_RCC_HSE_IsReady() != 1) {
 8001c1a:	2d01      	cmp	r5, #1
 8001c1c:	d006      	beq.n	8001c2c <set_up_fixed_clock_sources+0x28>
  return ((READ_BIT(RCC->CR, RCC_CR_HSERDY) == RCC_CR_HSERDY) ? 1UL : 0UL);
 8001c1e:	4b23      	ldr	r3, [pc, #140]	@ (8001cac <set_up_fixed_clock_sources+0xa8>)
 8001c20:	681d      	ldr	r5, [r3, #0]
 8001c22:	f415 3500 	ands.w	r5, r5, #131072	@ 0x20000
 8001c26:	d0f8      	beq.n	8001c1a <set_up_fixed_clock_sources+0x16>
 8001c28:	2501      	movs	r5, #1
 8001c2a:	e7f6      	b.n	8001c1a <set_up_fixed_clock_sources+0x16>
		/* HSI divider configuration */
		LL_RCC_HSI_SetDivider(hsi_divider(STM32_HSI_DIVISOR));
	}

	if (IS_ENABLED(STM32_LSE_ENABLED)) {
		stm32_backup_domain_enable_access();
 8001c2c:	f7fe fd92 	bl	8000754 <stm32_backup_domain_enable_access>
  MODIFY_REG(RCC->BDCR, RCC_BDCR_LSEDRV, LSEDrive);
 8001c30:	4a1e      	ldr	r2, [pc, #120]	@ (8001cac <set_up_fixed_clock_sources+0xa8>)
 8001c32:	f8d2 30f0 	ldr.w	r3, [r2, #240]	@ 0xf0
 8001c36:	f023 0318 	bic.w	r3, r3, #24
 8001c3a:	f043 0310 	orr.w	r3, r3, #16
 8001c3e:	f8c2 30f0 	str.w	r3, [r2, #240]	@ 0xf0
  SET_BIT(RCC->BDCR, RCC_BDCR_LSEON);
 8001c42:	f8d2 30f0 	ldr.w	r3, [r2, #240]	@ 0xf0
 8001c46:	f043 0301 	orr.w	r3, r3, #1
 8001c4a:	f8c2 30f0 	str.w	r3, [r2, #240]	@ 0xf0
}
 8001c4e:	e000      	b.n	8001c52 <set_up_fixed_clock_sources+0x4e>
		}

		/* Enable LSE Oscillator */
		LL_RCC_LSE_Enable();
		/* Wait for LSE ready */
		while (!LL_RCC_LSE_IsReady()) {
 8001c50:	b93c      	cbnz	r4, 8001c62 <set_up_fixed_clock_sources+0x5e>
  return ((READ_BIT(RCC->BDCR, RCC_BDCR_LSERDY) == RCC_BDCR_LSERDY) ? 1UL : 0UL);
 8001c52:	4b16      	ldr	r3, [pc, #88]	@ (8001cac <set_up_fixed_clock_sources+0xa8>)
 8001c54:	f8d3 40f0 	ldr.w	r4, [r3, #240]	@ 0xf0
 8001c58:	f014 0402 	ands.w	r4, r4, #2
 8001c5c:	d0f8      	beq.n	8001c50 <set_up_fixed_clock_sources+0x4c>
 8001c5e:	462c      	mov	r4, r5
 8001c60:	e7f6      	b.n	8001c50 <set_up_fixed_clock_sources+0x4c>
		}

		stm32_backup_domain_disable_access();
 8001c62:	f7fe fd9b 	bl	800079c <stm32_backup_domain_disable_access>
  SET_BIT(RCC->BDCR, RCC_BDCR_LSION);
 8001c66:	4a11      	ldr	r2, [pc, #68]	@ (8001cac <set_up_fixed_clock_sources+0xa8>)
 8001c68:	f8d2 30f0 	ldr.w	r3, [r2, #240]	@ 0xf0
 8001c6c:	f043 6380 	orr.w	r3, r3, #67108864	@ 0x4000000
 8001c70:	f8c2 30f0 	str.w	r3, [r2, #240]	@ 0xf0
}
 8001c74:	e001      	b.n	8001c7a <set_up_fixed_clock_sources+0x76>
	}

	if (IS_ENABLED(STM32_LSI_ENABLED)) {
		/* Enable LSI oscillator */
		LL_RCC_LSI_Enable();
		while (LL_RCC_LSI_IsReady() != 1) {
 8001c76:	2b01      	cmp	r3, #1
 8001c78:	d007      	beq.n	8001c8a <set_up_fixed_clock_sources+0x86>
  return ((READ_BIT(RCC->BDCR, RCC_BDCR_LSIRDY) == RCC_BDCR_LSIRDY) ? 1UL : 0UL);
 8001c7a:	4b0c      	ldr	r3, [pc, #48]	@ (8001cac <set_up_fixed_clock_sources+0xa8>)
 8001c7c:	f8d3 30f0 	ldr.w	r3, [r3, #240]	@ 0xf0
 8001c80:	f013 6300 	ands.w	r3, r3, #134217728	@ 0x8000000
 8001c84:	d0f7      	beq.n	8001c76 <set_up_fixed_clock_sources+0x72>
 8001c86:	4623      	mov	r3, r4
 8001c88:	e7f5      	b.n	8001c76 <set_up_fixed_clock_sources+0x72>
  SET_BIT(RCC->CR, RCC_CR_HSI48ON);
 8001c8a:	4908      	ldr	r1, [pc, #32]	@ (8001cac <set_up_fixed_clock_sources+0xa8>)
 8001c8c:	680a      	ldr	r2, [r1, #0]
 8001c8e:	f442 5280 	orr.w	r2, r2, #4096	@ 0x1000
 8001c92:	600a      	str	r2, [r1, #0]
}
 8001c94:	e001      	b.n	8001c9a <set_up_fixed_clock_sources+0x96>
		}
	}

	if (IS_ENABLED(STM32_HSI48_ENABLED)) {
		LL_RCC_HSI48_Enable();
		while (LL_RCC_HSI48_IsReady() != 1) {
 8001c96:	2a01      	cmp	r2, #1
 8001c98:	d006      	beq.n	8001ca8 <set_up_fixed_clock_sources+0xa4>
  return ((READ_BIT(RCC->CR, RCC_CR_HSI48RDY) == RCC_CR_HSI48RDY) ? 1UL : 0UL);
 8001c9a:	4a04      	ldr	r2, [pc, #16]	@ (8001cac <set_up_fixed_clock_sources+0xa8>)
 8001c9c:	6812      	ldr	r2, [r2, #0]
 8001c9e:	f412 5200 	ands.w	r2, r2, #8192	@ 0x2000
 8001ca2:	d0f8      	beq.n	8001c96 <set_up_fixed_clock_sources+0x92>
 8001ca4:	461a      	mov	r2, r3
 8001ca6:	e7f6      	b.n	8001c96 <set_up_fixed_clock_sources+0x92>
		}
	}

}
 8001ca8:	bd38      	pop	{r3, r4, r5, pc}
 8001caa:	bf00      	nop
 8001cac:	44020c00 	.word	0x44020c00

08001cb0 <stm32_clock_control_init>:

int stm32_clock_control_init(const struct device *dev)
{
 8001cb0:	b538      	push	{r3, r4, r5, lr}
	int r;

	ARG_UNUSED(dev);

	/* Current hclk value */
	old_hclk_freq = __LL_RCC_CALC_HCLK_FREQ(get_startup_frequency(), LL_RCC_GetAHBPrescaler());
 8001cb2:	f7ff fd53 	bl	800175c <get_startup_frequency>
  return (uint32_t)(READ_BIT(RCC->CFGR2, RCC_CFGR2_HPRE));
 8001cb6:	4b24      	ldr	r3, [pc, #144]	@ (8001d48 <stm32_clock_control_init+0x98>)
 8001cb8:	6a1b      	ldr	r3, [r3, #32]
 8001cba:	f003 030f 	and.w	r3, r3, #15
 8001cbe:	4a23      	ldr	r2, [pc, #140]	@ (8001d4c <stm32_clock_control_init+0x9c>)
 8001cc0:	5cd3      	ldrb	r3, [r2, r3]
 8001cc2:	fa20 f403 	lsr.w	r4, r0, r3

	/* Set voltage regulator to comply with targeted system frequency */
	set_regu_voltage(CONFIG_SYS_CLOCK_HW_CYCLES_PER_SEC);
 8001cc6:	4d22      	ldr	r5, [pc, #136]	@ (8001d50 <stm32_clock_control_init+0xa0>)
 8001cc8:	4628      	mov	r0, r5
 8001cca:	f7ff fe6f 	bl	80019ac <set_regu_voltage>

	/* Set flash latency */
	/* If freq increases, set flash latency before any clock setting */
	if (old_hclk_freq < CONFIG_SYS_CLOCK_HW_CYCLES_PER_SEC) {
 8001cce:	42ac      	cmp	r4, r5
 8001cd0:	d331      	bcc.n	8001d36 <stm32_clock_control_init+0x86>
		LL_SetFlashLatency(CONFIG_SYS_CLOCK_HW_CYCLES_PER_SEC);
	}

	/* Set up individual enabled clocks */
	set_up_fixed_clock_sources();
 8001cd2:	f7ff ff97 	bl	8001c04 <set_up_fixed_clock_sources>

	/* Set up PLLs */
	r = set_up_plls();
 8001cd6:	f7ff fec5 	bl	8001a64 <set_up_plls>
	if (r < 0) {
 8001cda:	2800      	cmp	r0, #0
 8001cdc:	db2a      	blt.n	8001d34 <stm32_clock_control_init+0x84>
  MODIFY_REG(RCC->CFGR2, RCC_CFGR2_HPRE, Prescaler);
 8001cde:	4b1a      	ldr	r3, [pc, #104]	@ (8001d48 <stm32_clock_control_init+0x98>)
 8001ce0:	6a1a      	ldr	r2, [r3, #32]
 8001ce2:	f022 020f 	bic.w	r2, r2, #15
 8001ce6:	621a      	str	r2, [r3, #32]
  MODIFY_REG(RCC->CFGR2, RCC_CFGR2_PPRE1, Prescaler);
 8001ce8:	6a1a      	ldr	r2, [r3, #32]
 8001cea:	f022 0270 	bic.w	r2, r2, #112	@ 0x70
 8001cee:	f042 0240 	orr.w	r2, r2, #64	@ 0x40
 8001cf2:	621a      	str	r2, [r3, #32]
  MODIFY_REG(RCC->CFGR2, RCC_CFGR2_PPRE2, Prescaler);
 8001cf4:	6a1a      	ldr	r2, [r3, #32]
 8001cf6:	f422 62e0 	bic.w	r2, r2, #1792	@ 0x700
 8001cfa:	621a      	str	r2, [r3, #32]
  MODIFY_REG(RCC->CFGR2, RCC_CFGR2_PPRE3, Prescaler);
 8001cfc:	6a1a      	ldr	r2, [r3, #32]
 8001cfe:	f422 42e0 	bic.w	r2, r2, #28672	@ 0x7000
 8001d02:	f442 4280 	orr.w	r2, r2, #16384	@ 0x4000
 8001d06:	621a      	str	r2, [r3, #32]
  MODIFY_REG(RCC->CFGR1, RCC_CFGR1_SW, Source);
 8001d08:	69da      	ldr	r2, [r3, #28]
 8001d0a:	f042 0203 	orr.w	r2, r2, #3
 8001d0e:	61da      	str	r2, [r3, #28]
  return (uint32_t)(READ_BIT(RCC->CFGR1, RCC_CFGR1_SWS));
 8001d10:	4b0d      	ldr	r3, [pc, #52]	@ (8001d48 <stm32_clock_control_init+0x98>)
 8001d12:	69db      	ldr	r3, [r3, #28]
 8001d14:	f003 0318 	and.w	r3, r3, #24
	LL_RCC_SetAPB3Prescaler(apb3_prescaler(STM32_APB3_PRESCALER));

	if (IS_ENABLED(STM32_SYSCLK_SRC_PLL)) {
		/* Set PLL1 as System Clock Source */
		LL_RCC_SetSysClkSource(LL_RCC_SYS_CLKSOURCE_PLL1);
		while (LL_RCC_GetSysClkSource() != LL_RCC_SYS_CLKSOURCE_STATUS_PLL1) {
 8001d18:	2b18      	cmp	r3, #24
 8001d1a:	d1f9      	bne.n	8001d10 <stm32_clock_control_init+0x60>
		return -ENOTSUP;
	}

	/* Set FLASH latency */
	/* If freq not increased, set flash latency after all clock setting */
	if (old_hclk_freq >= CONFIG_SYS_CLOCK_HW_CYCLES_PER_SEC) {
 8001d1c:	4b0c      	ldr	r3, [pc, #48]	@ (8001d50 <stm32_clock_control_init+0xa0>)
 8001d1e:	429c      	cmp	r4, r3
 8001d20:	d20d      	bcs.n	8001d3e <stm32_clock_control_init+0x8e>
  MODIFY_REG(RCC->CFGR1, RCC_CFGR1_TIMPRE, Prescaler);
 8001d22:	4a09      	ldr	r2, [pc, #36]	@ (8001d48 <stm32_clock_control_init+0x98>)
 8001d24:	69d3      	ldr	r3, [r2, #28]
 8001d26:	f423 4300 	bic.w	r3, r3, #32768	@ 0x8000
 8001d2a:	61d3      	str	r3, [r2, #28]
	} else {
		LL_RCC_SetTIMPrescaler(LL_RCC_TIM_PRESCALER_TWICE);
	}

	/* Update CMSIS variable */
	SystemCoreClock = CONFIG_SYS_CLOCK_HW_CYCLES_PER_SEC;
 8001d2c:	4b09      	ldr	r3, [pc, #36]	@ (8001d54 <stm32_clock_control_init+0xa4>)
 8001d2e:	4a08      	ldr	r2, [pc, #32]	@ (8001d50 <stm32_clock_control_init+0xa0>)
 8001d30:	601a      	str	r2, [r3, #0]

	return 0;
 8001d32:	2000      	movs	r0, #0
}
 8001d34:	bd38      	pop	{r3, r4, r5, pc}
		LL_SetFlashLatency(CONFIG_SYS_CLOCK_HW_CYCLES_PER_SEC);
 8001d36:	4628      	mov	r0, r5
 8001d38:	f000 fcc0 	bl	80026bc <LL_SetFlashLatency>
 8001d3c:	e7c9      	b.n	8001cd2 <stm32_clock_control_init+0x22>
		LL_SetFlashLatency(CONFIG_SYS_CLOCK_HW_CYCLES_PER_SEC);
 8001d3e:	4618      	mov	r0, r3
 8001d40:	f000 fcbc 	bl	80026bc <LL_SetFlashLatency>
 8001d44:	e7ed      	b.n	8001d22 <stm32_clock_control_init+0x72>
 8001d46:	bf00      	nop
 8001d48:	44020c00 	.word	0x44020c00
 8001d4c:	0800639c 	.word	0x0800639c
 8001d50:	0e4e1c00 	.word	0x0e4e1c00
 8001d54:	2000004c 	.word	0x2000004c

08001d58 <console_out>:
 *
 * @return The character passed as input.
 */

static int console_out(int c)
{
 8001d58:	b510      	push	{r4, lr}
 8001d5a:	4604      	mov	r4, r0
		 * function MUST return the byte output.
		 */
		return c;
	}

	if ('\n' == c) {
 8001d5c:	280a      	cmp	r0, #10
 8001d5e:	d006      	beq.n	8001d6e <console_out+0x16>
		uart_poll_out(uart_console_dev, '\r');
	}
	uart_poll_out(uart_console_dev, c);
 8001d60:	b2e1      	uxtb	r1, r4
#endif
}

static inline void z_impl_uart_poll_out(const struct device *dev, unsigned char out_char)
{
	const struct uart_driver_api *api = (const struct uart_driver_api *)dev->api;
 8001d62:	4806      	ldr	r0, [pc, #24]	@ (8001d7c <console_out+0x24>)
 8001d64:	6883      	ldr	r3, [r0, #8]

	api->poll_out(dev, out_char);
 8001d66:	685b      	ldr	r3, [r3, #4]
 8001d68:	4798      	blx	r3
	 * As errors cannot be returned, ignore the return value
	 */
	(void)pm_device_runtime_put_async(uart_console_dev, K_MSEC(1));

	return c;
}
 8001d6a:	4620      	mov	r0, r4
 8001d6c:	bd10      	pop	{r4, pc}
	const struct uart_driver_api *api = (const struct uart_driver_api *)dev->api;
 8001d6e:	4803      	ldr	r0, [pc, #12]	@ (8001d7c <console_out+0x24>)
 8001d70:	6883      	ldr	r3, [r0, #8]
	api->poll_out(dev, out_char);
 8001d72:	685b      	ldr	r3, [r3, #4]
 8001d74:	210d      	movs	r1, #13
 8001d76:	4798      	blx	r3
		return;
	}
#endif
	compiler_barrier();
	z_impl_uart_poll_out(dev, out_char);
}
 8001d78:	e7f2      	b.n	8001d60 <console_out+0x8>
 8001d7a:	bf00      	nop
 8001d7c:	08005690 	.word	0x08005690

08001d80 <uart_console_hook_install>:
/**
 * @brief Install printk/stdout hook for UART console output
 */

static void uart_console_hook_install(void)
{
 8001d80:	b510      	push	{r4, lr}
#if defined(CONFIG_STDOUT_CONSOLE)
	__stdout_hook_install(console_out);
 8001d82:	4c04      	ldr	r4, [pc, #16]	@ (8001d94 <uart_console_hook_install+0x14>)
 8001d84:	4620      	mov	r0, r4
 8001d86:	f7ff fb63 	bl	8001450 <__stdout_hook_install>
#endif
#if defined(CONFIG_PRINTK)
	__printk_hook_install(console_out);
 8001d8a:	4620      	mov	r0, r4
 8001d8c:	f7fe fc5c 	bl	8000648 <__printk_hook_install>
#endif
}
 8001d90:	bd10      	pop	{r4, pc}
 8001d92:	bf00      	nop
 8001d94:	08001d59 	.word	0x08001d59

08001d98 <uart_console_init>:
 * @brief Initialize one UART as the console/debug port
 *
 * @return 0 if successful, otherwise failed.
 */
static int uart_console_init(void)
{
 8001d98:	b508      	push	{r3, lr}
 8001d9a:	4805      	ldr	r0, [pc, #20]	@ (8001db0 <uart_console_init+0x18>)
 8001d9c:	f003 fa22 	bl	80051e4 <z_impl_device_is_ready>
	if (!device_is_ready(uart_console_dev)) {
 8001da0:	b118      	cbz	r0, 8001daa <uart_console_init+0x12>
		return -ENODEV;
	}

	uart_console_hook_install();
 8001da2:	f7ff ffed 	bl	8001d80 <uart_console_hook_install>

	return 0;
 8001da6:	2000      	movs	r0, #0
}
 8001da8:	bd08      	pop	{r3, pc}
		return -ENODEV;
 8001daa:	f06f 0012 	mvn.w	r0, #18
 8001dae:	e7fb      	b.n	8001da8 <uart_console_init+0x10>
 8001db0:	08005690 	.word	0x08005690

08001db4 <gpio_stm32_pin_interrupt_configure>:

static int gpio_stm32_pin_interrupt_configure(const struct device *dev,
					      gpio_pin_t pin,
					      enum gpio_int_mode mode,
					      enum gpio_int_trig trig)
{
 8001db4:	e92d 43f8 	stmdb	sp!, {r3, r4, r5, r6, r7, r8, r9, lr}
 8001db8:	4680      	mov	r8, r0
 8001dba:	460f      	mov	r7, r1
 8001dbc:	4616      	mov	r6, r2
 8001dbe:	461c      	mov	r4, r3
	const struct gpio_stm32_config *cfg = dev->config;
 8001dc0:	f8d0 9004 	ldr.w	r9, [r0, #4]
	const stm32_gpio_irq_line_t irq_line = stm32_gpio_intc_get_pin_irq_line(cfg->port, pin);
 8001dc4:	f8d9 0008 	ldr.w	r0, [r9, #8]
 8001dc8:	f002 fd5b 	bl	8004882 <stm32_gpio_intc_get_pin_irq_line>
		stm32_gpio_intc_enable_line(irq_line);
		goto exit;
	}
#endif /* CONFIG_GPIO_ENABLE_DISABLE_INTERRUPT */

	if (mode == GPIO_INT_MODE_DISABLED) {
 8001dcc:	f5b6 1f00 	cmp.w	r6, #2097152	@ 0x200000
 8001dd0:	d00e      	beq.n	8001df0 <gpio_stm32_pin_interrupt_configure+0x3c>
 8001dd2:	4605      	mov	r5, r0
		gpio_stm32_disable_pin_irqs(cfg->port, pin);
		goto exit;
	}

	if (mode == GPIO_INT_MODE_LEVEL) {
 8001dd4:	f5b6 0f80 	cmp.w	r6, #4194304	@ 0x400000
 8001dd8:	d02a      	beq.n	8001e30 <gpio_stm32_pin_interrupt_configure+0x7c>
				err = -EINVAL;
				goto exit;
			}
		}
	} else {
		switch (trig) {
 8001dda:	f1b4 6f80 	cmp.w	r4, #67108864	@ 0x4000000
 8001dde:	d00e      	beq.n	8001dfe <gpio_stm32_pin_interrupt_configure+0x4a>
 8001de0:	f1b4 6fc0 	cmp.w	r4, #100663296	@ 0x6000000
 8001de4:	d00d      	beq.n	8001e02 <gpio_stm32_pin_interrupt_configure+0x4e>
 8001de6:	f1b4 7f00 	cmp.w	r4, #33554432	@ 0x2000000
 8001dea:	d124      	bne.n	8001e36 <gpio_stm32_pin_interrupt_configure+0x82>
 8001dec:	2602      	movs	r6, #2
 8001dee:	e009      	b.n	8001e04 <gpio_stm32_pin_interrupt_configure+0x50>
		gpio_stm32_disable_pin_irqs(cfg->port, pin);
 8001df0:	4639      	mov	r1, r7
 8001df2:	f8d9 0008 	ldr.w	r0, [r9, #8]
 8001df6:	f002 ff0d 	bl	8004c14 <gpio_stm32_disable_pin_irqs>
	int err = 0;
 8001dfa:	2400      	movs	r4, #0
		goto exit;
 8001dfc:	e015      	b.n	8001e2a <gpio_stm32_pin_interrupt_configure+0x76>
		case GPIO_INT_TRIG_LOW:
			irq_trigger = STM32_GPIO_IRQ_TRIG_FALLING;
			break;
		case GPIO_INT_TRIG_HIGH:
			irq_trigger = STM32_GPIO_IRQ_TRIG_RISING;
 8001dfe:	2601      	movs	r6, #1
 8001e00:	e000      	b.n	8001e04 <gpio_stm32_pin_interrupt_configure+0x50>
			break;
		case GPIO_INT_TRIG_BOTH:
			irq_trigger = STM32_GPIO_IRQ_TRIG_BOTH;
 8001e02:	2603      	movs	r6, #3
			err = -EINVAL;
			goto exit;
		}
	}

	if (stm32_gpio_intc_set_irq_callback(irq_line, gpio_stm32_isr, (void *)dev) != 0) {
 8001e04:	4642      	mov	r2, r8
 8001e06:	490f      	ldr	r1, [pc, #60]	@ (8001e44 <gpio_stm32_pin_interrupt_configure+0x90>)
 8001e08:	4628      	mov	r0, r5
 8001e0a:	f7ff fc37 	bl	800167c <stm32_gpio_intc_set_irq_callback>
 8001e0e:	4604      	mov	r4, r0
 8001e10:	b9a0      	cbnz	r0, 8001e3c <gpio_stm32_pin_interrupt_configure+0x88>
		err = -EBUSY;
		goto exit;
	}

#if defined(CONFIG_EXTI_STM32)
	stm32_exti_set_line_src_port(pin, cfg->port);
 8001e12:	f8d9 1008 	ldr.w	r1, [r9, #8]
 8001e16:	4638      	mov	r0, r7
 8001e18:	f002 fd38 	bl	800488c <stm32_exti_set_line_src_port>
#endif

	stm32_gpio_intc_select_line_trigger(irq_line, irq_trigger);
 8001e1c:	4631      	mov	r1, r6
 8001e1e:	4628      	mov	r0, r5
 8001e20:	f7ff fc00 	bl	8001624 <stm32_gpio_intc_select_line_trigger>

	stm32_gpio_intc_enable_line(irq_line);
 8001e24:	4628      	mov	r0, r5
 8001e26:	f7ff fbd9 	bl	80015dc <stm32_gpio_intc_enable_line>

exit:
	return err;
}
 8001e2a:	4620      	mov	r0, r4
 8001e2c:	e8bd 83f8 	ldmia.w	sp!, {r3, r4, r5, r6, r7, r8, r9, pc}
			err = -ENOTSUP;
 8001e30:	f06f 0485 	mvn.w	r4, #133	@ 0x85
 8001e34:	e7f9      	b.n	8001e2a <gpio_stm32_pin_interrupt_configure+0x76>
		switch (trig) {
 8001e36:	f06f 0415 	mvn.w	r4, #21
 8001e3a:	e7f6      	b.n	8001e2a <gpio_stm32_pin_interrupt_configure+0x76>
		err = -EBUSY;
 8001e3c:	f06f 040f 	mvn.w	r4, #15
	return err;
 8001e40:	e7f3      	b.n	8001e2a <gpio_stm32_pin_interrupt_configure+0x76>
 8001e42:	bf00      	nop
 8001e44:	08004b39 	.word	0x08004b39

08001e48 <LL_LPUART_SetBaudRate>:
  * @retval None
  */
__STATIC_INLINE void LL_LPUART_SetBaudRate(USART_TypeDef *LPUARTx, uint32_t PeriphClk, uint32_t PrescalerValue,
                                           uint32_t BaudRate)
{
  if (BaudRate != 0U)
 8001e48:	b1eb      	cbz	r3, 8001e86 <LL_LPUART_SetBaudRate+0x3e>
{
 8001e4a:	b570      	push	{r4, r5, r6, lr}
 8001e4c:	4604      	mov	r4, r0
 8001e4e:	461e      	mov	r6, r3
  {
    LPUARTx->BRR = __LL_LPUART_DIV(PeriphClk, PrescalerValue, BaudRate);
 8001e50:	2500      	movs	r5, #0
 8001e52:	b292      	uxth	r2, r2
 8001e54:	4b0c      	ldr	r3, [pc, #48]	@ (8001e88 <LL_LPUART_SetBaudRate+0x40>)
 8001e56:	f833 2012 	ldrh.w	r2, [r3, r2, lsl #1]
 8001e5a:	462b      	mov	r3, r5
 8001e5c:	4608      	mov	r0, r1
 8001e5e:	4629      	mov	r1, r5
 8001e60:	f7fe fa66 	bl	8000330 <__aeabi_uldivmod>
 8001e64:	4603      	mov	r3, r0
 8001e66:	0209      	lsls	r1, r1, #8
 8001e68:	ea41 6113 	orr.w	r1, r1, r3, lsr #24
 8001e6c:	021b      	lsls	r3, r3, #8
 8001e6e:	0872      	lsrs	r2, r6, #1
 8001e70:	1898      	adds	r0, r3, r2
 8001e72:	4632      	mov	r2, r6
 8001e74:	462b      	mov	r3, r5
 8001e76:	f141 0100 	adc.w	r1, r1, #0
 8001e7a:	f7fe fa59 	bl	8000330 <__aeabi_uldivmod>
 8001e7e:	f3c0 0013 	ubfx	r0, r0, #0, #20
 8001e82:	60e0      	str	r0, [r4, #12]
  }
}
 8001e84:	bd70      	pop	{r4, r5, r6, pc}
 8001e86:	4770      	bx	lr
 8001e88:	0800637c 	.word	0x0800637c

08001e8c <uart_stm32_cfg2ll_stopbits>:
}

static inline uint32_t uart_stm32_cfg2ll_stopbits(const struct uart_stm32_config *config,
							enum uart_config_stop_bits sb)
{
	switch (sb) {
 8001e8c:	2901      	cmp	r1, #1
 8001e8e:	d018      	beq.n	8001ec2 <uart_stm32_cfg2ll_stopbits+0x36>
 8001e90:	2902      	cmp	r1, #2
 8001e92:	d00b      	beq.n	8001eac <uart_stm32_cfg2ll_stopbits+0x20>
 8001e94:	b9b9      	cbnz	r1, 8001ec6 <uart_stm32_cfg2ll_stopbits+0x3a>
/* Some MCU's don't support 0.5 stop bits */
#ifdef STM32_USART_STOP_BIT_0_5
	case UART_CFG_STOP_BITS_0_5:
#if HAS_LPUART
		if (IS_LPUART_INSTANCE(config->usart)) {
 8001e96:	6803      	ldr	r3, [r0, #0]
 8001e98:	4a11      	ldr	r2, [pc, #68]	@ (8001ee0 <uart_stm32_cfg2ll_stopbits+0x54>)
 8001e9a:	4293      	cmp	r3, r2
 8001e9c:	d016      	beq.n	8001ecc <uart_stm32_cfg2ll_stopbits+0x40>
 8001e9e:	f102 5280 	add.w	r2, r2, #268435456	@ 0x10000000
 8001ea2:	4293      	cmp	r3, r2
 8001ea4:	d014      	beq.n	8001ed0 <uart_stm32_cfg2ll_stopbits+0x44>
			/* return the default */
			return STM32_USART_STOP_BIT_1;
		}
#endif /* HAS_LPUART */
		return STM32_USART_STOP_BIT_0_5;
 8001ea6:	f44f 5080 	mov.w	r0, #4096	@ 0x1000
 8001eaa:	4770      	bx	lr
		return STM32_USART_STOP_BIT_1;
/* Some MCU's don't support 1.5 stop bits */
#ifdef STM32_USART_STOP_BIT_1_5
	case UART_CFG_STOP_BITS_1_5:
#if HAS_LPUART
		if (IS_LPUART_INSTANCE(config->usart)) {
 8001eac:	6803      	ldr	r3, [r0, #0]
 8001eae:	4a0c      	ldr	r2, [pc, #48]	@ (8001ee0 <uart_stm32_cfg2ll_stopbits+0x54>)
 8001eb0:	4293      	cmp	r3, r2
 8001eb2:	d00f      	beq.n	8001ed4 <uart_stm32_cfg2ll_stopbits+0x48>
 8001eb4:	f102 5280 	add.w	r2, r2, #268435456	@ 0x10000000
 8001eb8:	4293      	cmp	r3, r2
 8001eba:	d00e      	beq.n	8001eda <uart_stm32_cfg2ll_stopbits+0x4e>
			/* return the default */
			return STM32_USART_STOP_BIT_2;
		}
#endif
		return STM32_USART_STOP_BIT_1_5;
 8001ebc:	f44f 5040 	mov.w	r0, #12288	@ 0x3000
 8001ec0:	4770      	bx	lr
	switch (sb) {
 8001ec2:	2000      	movs	r0, #0
 8001ec4:	4770      	bx	lr
#endif	/* STM32_USART_STOP_BIT_1_5 */
	case UART_CFG_STOP_BITS_2:
	default:
		return STM32_USART_STOP_BIT_2;
 8001ec6:	f44f 5000 	mov.w	r0, #8192	@ 0x2000
 8001eca:	4770      	bx	lr
			return STM32_USART_STOP_BIT_1;
 8001ecc:	2000      	movs	r0, #0
 8001ece:	4770      	bx	lr
 8001ed0:	2000      	movs	r0, #0
 8001ed2:	4770      	bx	lr
			return STM32_USART_STOP_BIT_2;
 8001ed4:	f44f 5000 	mov.w	r0, #8192	@ 0x2000
 8001ed8:	4770      	bx	lr
 8001eda:	f44f 5000 	mov.w	r0, #8192	@ 0x2000
	}
}
 8001ede:	4770      	bx	lr
 8001ee0:	44002400 	.word	0x44002400

08001ee4 <uart_stm32_poll_in>:
{
	LL_USART_TransmitData8(usart, (uint8_t)out);
}

static int uart_stm32_poll_in(const struct device *dev, unsigned char *c)
{
 8001ee4:	b508      	push	{r3, lr}
	return uart_stm32_poll_in_visitor(dev, (void *)c, poll_in_u8);
 8001ee6:	4a02      	ldr	r2, [pc, #8]	@ (8001ef0 <uart_stm32_poll_in+0xc>)
 8001ee8:	f003 f80e 	bl	8004f08 <uart_stm32_poll_in_visitor>
}
 8001eec:	bd08      	pop	{r3, pc}
 8001eee:	bf00      	nop
 8001ef0:	08004f69 	.word	0x08004f69

08001ef4 <uart_stm32_poll_out>:

static void uart_stm32_poll_out(const struct device *dev, unsigned char c)
{
 8001ef4:	b508      	push	{r3, lr}
	uart_stm32_poll_out_visitor(dev, c, poll_out_u8);
 8001ef6:	4a02      	ldr	r2, [pc, #8]	@ (8001f00 <uart_stm32_poll_out+0xc>)
 8001ef8:	f003 f819 	bl	8004f2e <uart_stm32_poll_out_visitor>
}
 8001efc:	bd08      	pop	{r3, pc}
 8001efe:	bf00      	nop
 8001f00:	08004f6f 	.word	0x08004f6f

08001f04 <lpuartdiv_calc>:
{
 8001f04:	b538      	push	{r3, r4, r5, lr}
 8001f06:	461c      	mov	r4, r3
	lpuartdiv = clock_rate / STM32_LPUART_PRESCALER_TAB[presc_idx];
 8001f08:	2500      	movs	r5, #0
 8001f0a:	4b09      	ldr	r3, [pc, #36]	@ (8001f30 <lpuartdiv_calc+0x2c>)
 8001f0c:	f833 2012 	ldrh.w	r2, [r3, r2, lsl #1]
 8001f10:	462b      	mov	r3, r5
 8001f12:	f7fe fa0d 	bl	8000330 <__aeabi_uldivmod>
	lpuartdiv *= STM32_LPUART_LPUARTDIV_FREQ_MUL;
 8001f16:	0209      	lsls	r1, r1, #8
 8001f18:	ea41 6110 	orr.w	r1, r1, r0, lsr #24
 8001f1c:	0200      	lsls	r0, r0, #8
	lpuartdiv += baud_rate / 2;
 8001f1e:	0863      	lsrs	r3, r4, #1
 8001f20:	1818      	adds	r0, r3, r0
	lpuartdiv /= baud_rate;
 8001f22:	4622      	mov	r2, r4
 8001f24:	462b      	mov	r3, r5
 8001f26:	f141 0100 	adc.w	r1, r1, #0
 8001f2a:	f7fe fa01 	bl	8000330 <__aeabi_uldivmod>
}
 8001f2e:	bd38      	pop	{r3, r4, r5, pc}
 8001f30:	0800637c 	.word	0x0800637c

08001f34 <uart_stm32_set_baudrate>:
{
 8001f34:	b570      	push	{r4, r5, r6, lr}
 8001f36:	b082      	sub	sp, #8
	const struct uart_stm32_config *config = dev->config;
 8001f38:	6843      	ldr	r3, [r0, #4]
	USART_TypeDef *usart = config->usart;
 8001f3a:	681e      	ldr	r6, [r3, #0]
	if (baud_rate == 0) {
 8001f3c:	2900      	cmp	r1, #0
 8001f3e:	d045      	beq.n	8001fcc <uart_stm32_set_baudrate+0x98>
 8001f40:	460d      	mov	r5, r1
		int ret = clock_control_get_rate(config->clock,
 8001f42:	6858      	ldr	r0, [r3, #4]
						 (clock_control_subsys_t)&config->pclken[0],
 8001f44:	6919      	ldr	r1, [r3, #16]
 */
static inline int clock_control_get_rate(const struct device *dev,
					 clock_control_subsys_t sys,
					 uint32_t *rate)
{
	const struct clock_control_driver_api *api =
 8001f46:	6883      	ldr	r3, [r0, #8]
		(const struct clock_control_driver_api *)dev->api;

	if (api->get_rate == NULL) {
 8001f48:	68db      	ldr	r3, [r3, #12]
 8001f4a:	b1cb      	cbz	r3, 8001f80 <uart_stm32_set_baudrate+0x4c>
		return -ENOSYS;
	}

	return api->get_rate(dev, sys, rate);
 8001f4c:	aa01      	add	r2, sp, #4
 8001f4e:	4798      	blx	r3
		if (ret < 0) {
 8001f50:	2800      	cmp	r0, #0
 8001f52:	db39      	blt.n	8001fc8 <uart_stm32_set_baudrate+0x94>
	if (IS_LPUART_INSTANCE(usart)) {
 8001f54:	4b22      	ldr	r3, [pc, #136]	@ (8001fe0 <uart_stm32_set_baudrate+0xac>)
 8001f56:	429e      	cmp	r6, r3
 8001f58:	d015      	beq.n	8001f86 <uart_stm32_set_baudrate+0x52>
 8001f5a:	f103 5380 	add.w	r3, r3, #268435456	@ 0x10000000
 8001f5e:	429e      	cmp	r6, r3
 8001f60:	d022      	beq.n	8001fa8 <uart_stm32_set_baudrate+0x74>
  *         @arg @ref LL_USART_OVERSAMPLING_8
  * @retval None
  */
__STATIC_INLINE void LL_USART_SetOverSampling(USART_TypeDef *USARTx, uint32_t OverSampling)
{
  MODIFY_REG(USARTx->CR1, USART_CR1_OVER8, OverSampling);
 8001f62:	6833      	ldr	r3, [r6, #0]
 8001f64:	f423 4300 	bic.w	r3, r3, #32768	@ 0x8000
 8001f68:	6033      	str	r3, [r6, #0]
		uint32_t usartdiv = STM32_USART_DIV_SAMPLING16(clock_rate,
 8001f6a:	9b01      	ldr	r3, [sp, #4]
 8001f6c:	eb03 0355 	add.w	r3, r3, r5, lsr #1
 8001f70:	fbb3 f3f5 	udiv	r3, r3, r5
		if (usartdiv < 16) {
 8001f74:	2b0f      	cmp	r3, #15
 8001f76:	d92f      	bls.n	8001fd8 <uart_stm32_set_baudrate+0xa4>
    brrtemp |= (uint16_t)((usartdiv & (uint16_t)0x000FU) >> 1U);
    USARTx->BRR = brrtemp;
  }
  else
  {
    USARTx->BRR = (uint16_t)(__LL_USART_DIV_SAMPLING16(PeriphClk, (uint8_t)PrescalerValue, BaudRate));
 8001f78:	b29b      	uxth	r3, r3
 8001f7a:	60f3      	str	r3, [r6, #12]
	return 0;
 8001f7c:	2000      	movs	r0, #0
  }
}
 8001f7e:	e023      	b.n	8001fc8 <uart_stm32_set_baudrate+0x94>
		return -ENOSYS;
 8001f80:	f06f 0057 	mvn.w	r0, #87	@ 0x57
			return ret;
 8001f84:	e020      	b.n	8001fc8 <uart_stm32_set_baudrate+0x94>
 8001f86:	2400      	movs	r4, #0
		for (presc_idx = 0; presc_idx < ARRAY_SIZE(STM32_LPUART_PRESCALER_TAB);
 8001f88:	2c0f      	cmp	r4, #15
 8001f8a:	d80f      	bhi.n	8001fac <uart_stm32_set_baudrate+0x78>
			lpuartdiv = lpuartdiv_calc(clock_rate, presc_idx, baud_rate);
 8001f8c:	462b      	mov	r3, r5
 8001f8e:	4622      	mov	r2, r4
 8001f90:	9801      	ldr	r0, [sp, #4]
 8001f92:	2100      	movs	r1, #0
 8001f94:	f7ff ffb6 	bl	8001f04 <lpuartdiv_calc>
			if (lpuartdiv >= STM32_LPUART_BRR_MIN_VALUE &&
 8001f98:	f5a0 7040 	sub.w	r0, r0, #768	@ 0x300
 8001f9c:	4a11      	ldr	r2, [pc, #68]	@ (8001fe4 <uart_stm32_set_baudrate+0xb0>)
 8001f9e:	4290      	cmp	r0, r2
 8001fa0:	d904      	bls.n	8001fac <uart_stm32_set_baudrate+0x78>
		     presc_idx++) {
 8001fa2:	3401      	adds	r4, #1
 8001fa4:	b2e4      	uxtb	r4, r4
 8001fa6:	e7ef      	b.n	8001f88 <uart_stm32_set_baudrate+0x54>
 8001fa8:	2400      	movs	r4, #0
 8001faa:	e7ed      	b.n	8001f88 <uart_stm32_set_baudrate+0x54>
		if (presc_idx == ARRAY_SIZE(STM32_LPUART_PRESCALER_TAB)) {
 8001fac:	2c10      	cmp	r4, #16
 8001fae:	d010      	beq.n	8001fd2 <uart_stm32_set_baudrate+0x9e>
  MODIFY_REG(LPUARTx->PRESC, USART_PRESC_PRESCALER, (uint16_t)PrescalerValue);
 8001fb0:	6af3      	ldr	r3, [r6, #44]	@ 0x2c
 8001fb2:	f023 030f 	bic.w	r3, r3, #15
 8001fb6:	4323      	orrs	r3, r4
 8001fb8:	62f3      	str	r3, [r6, #44]	@ 0x2c
		LL_LPUART_SetBaudRate(usart,
 8001fba:	462b      	mov	r3, r5
 8001fbc:	4622      	mov	r2, r4
 8001fbe:	9901      	ldr	r1, [sp, #4]
 8001fc0:	4630      	mov	r0, r6
 8001fc2:	f7ff ff41 	bl	8001e48 <LL_LPUART_SetBaudRate>
	return 0;
 8001fc6:	2000      	movs	r0, #0
}
 8001fc8:	b002      	add	sp, #8
 8001fca:	bd70      	pop	{r4, r5, r6, pc}
		return -EINVAL;
 8001fcc:	f06f 0015 	mvn.w	r0, #21
 8001fd0:	e7fa      	b.n	8001fc8 <uart_stm32_set_baudrate+0x94>
			return -EINVAL;
 8001fd2:	f06f 0015 	mvn.w	r0, #21
 8001fd6:	e7f7      	b.n	8001fc8 <uart_stm32_set_baudrate+0x94>
			return -EINVAL;
 8001fd8:	f06f 0015 	mvn.w	r0, #21
 8001fdc:	e7f4      	b.n	8001fc8 <uart_stm32_set_baudrate+0x94>
 8001fde:	bf00      	nop
 8001fe0:	44002400 	.word	0x44002400
 8001fe4:	000ffcff 	.word	0x000ffcff

08001fe8 <uart_stm32_configure>:
{
 8001fe8:	e92d 4ff8 	stmdb	sp!, {r3, r4, r5, r6, r7, r8, r9, sl, fp, lr}
 8001fec:	4606      	mov	r6, r0
 8001fee:	460c      	mov	r4, r1
	const struct uart_stm32_config *config = dev->config;
 8001ff0:	6840      	ldr	r0, [r0, #4]
	USART_TypeDef *usart = config->usart;
 8001ff2:	6805      	ldr	r5, [r0, #0]
	struct uart_stm32_data *data = dev->data;
 8001ff4:	6933      	ldr	r3, [r6, #16]
	struct uart_config *uart_cfg = data->uart_cfg;
 8001ff6:	f8d3 a000 	ldr.w	sl, [r3]
	const uint32_t parity = uart_stm32_cfg2ll_parity(cfg->parity);
 8001ffa:	790f      	ldrb	r7, [r1, #4]
	switch (parity) {
 8001ffc:	2f01      	cmp	r7, #1
 8001ffe:	d004      	beq.n	800200a <uart_stm32_configure+0x22>
 8002000:	2f02      	cmp	r7, #2
 8002002:	d115      	bne.n	8002030 <uart_stm32_configure+0x48>
		return LL_USART_PARITY_EVEN;
 8002004:	f44f 6b80 	mov.w	fp, #1024	@ 0x400
 8002008:	e001      	b.n	800200e <uart_stm32_configure+0x26>
	switch (parity) {
 800200a:	f44f 6bc0 	mov.w	fp, #1536	@ 0x600
	const uint32_t stopbits = uart_stm32_cfg2ll_stopbits(config, cfg->stop_bits);
 800200e:	f894 9005 	ldrb.w	r9, [r4, #5]
 8002012:	4649      	mov	r1, r9
 8002014:	f7ff ff3a 	bl	8001e8c <uart_stm32_cfg2ll_stopbits>
 8002018:	4603      	mov	r3, r0
	const uint32_t databits = uart_stm32_cfg2ll_databits(cfg->data_bits,
 800201a:	f894 8006 	ldrb.w	r8, [r4, #6]
	switch (db) {
 800201e:	f1b8 0f02 	cmp.w	r8, #2
 8002022:	d008      	beq.n	8002036 <uart_stm32_configure+0x4e>
 8002024:	f1b8 0f04 	cmp.w	r8, #4
 8002028:	d00b      	beq.n	8002042 <uart_stm32_configure+0x5a>
		if (p != UART_CFG_PARITY_NONE) {
 800202a:	bb0f      	cbnz	r7, 8002070 <uart_stm32_configure+0x88>
		return STM32_USART_DATAWIDTH_8_BIT;
 800202c:	2000      	movs	r0, #0
 800202e:	e00a      	b.n	8002046 <uart_stm32_configure+0x5e>
		return LL_USART_PARITY_NONE;
 8002030:	f04f 0b00 	mov.w	fp, #0
 8002034:	e7eb      	b.n	800200e <uart_stm32_configure+0x26>
		if (p == UART_CFG_PARITY_NONE) {
 8002036:	b10f      	cbz	r7, 800203c <uart_stm32_configure+0x54>
			return STM32_USART_DATAWIDTH_8_BIT;
 8002038:	2000      	movs	r0, #0
 800203a:	e004      	b.n	8002046 <uart_stm32_configure+0x5e>
			return STM32_USART_DATAWIDTH_7_BIT;
 800203c:	f04f 5080 	mov.w	r0, #268435456	@ 0x10000000
 8002040:	e001      	b.n	8002046 <uart_stm32_configure+0x5e>
	switch (db) {
 8002042:	f44f 5080 	mov.w	r0, #4096	@ 0x1000
	if ((cfg->parity == UART_CFG_PARITY_MARK) ||
 8002046:	1efa      	subs	r2, r7, #3
 8002048:	b2d2      	uxtb	r2, r2
 800204a:	2a01      	cmp	r2, #1
 800204c:	f240 80f7 	bls.w	800223e <uart_stm32_configure+0x256>
	if ((cfg->parity != UART_CFG_PARITY_NONE) &&
 8002050:	b11f      	cbz	r7, 800205a <uart_stm32_configure+0x72>
 8002052:	f1b8 0f04 	cmp.w	r8, #4
 8002056:	f000 80f5 	beq.w	8002244 <uart_stm32_configure+0x25c>
	switch (sb) {
 800205a:	f5b3 5f80 	cmp.w	r3, #4096	@ 0x1000
 800205e:	d00a      	beq.n	8002076 <uart_stm32_configure+0x8e>
 8002060:	f5b3 5f40 	cmp.w	r3, #12288	@ 0x3000
 8002064:	d009      	beq.n	800207a <uart_stm32_configure+0x92>
 8002066:	2b00      	cmp	r3, #0
 8002068:	f040 808a 	bne.w	8002180 <uart_stm32_configure+0x198>
		return UART_CFG_STOP_BITS_1;
 800206c:	2301      	movs	r3, #1
 800206e:	e005      	b.n	800207c <uart_stm32_configure+0x94>
			return STM32_USART_DATAWIDTH_9_BIT;
 8002070:	f44f 5080 	mov.w	r0, #4096	@ 0x1000
 8002074:	e7e7      	b.n	8002046 <uart_stm32_configure+0x5e>
	switch (sb) {
 8002076:	2300      	movs	r3, #0
 8002078:	e000      	b.n	800207c <uart_stm32_configure+0x94>
		return UART_CFG_STOP_BITS_1_5;
 800207a:	2302      	movs	r3, #2
	if (uart_stm32_ll2cfg_stopbits(stopbits) != cfg->stop_bits) {
 800207c:	4599      	cmp	r9, r3
 800207e:	f040 80e4 	bne.w	800224a <uart_stm32_configure+0x262>
	if (uart_stm32_ll2cfg_databits(databits, parity) != cfg->data_bits) {
 8002082:	4659      	mov	r1, fp
 8002084:	f002 fede 	bl	8004e44 <uart_stm32_ll2cfg_databits>
 8002088:	4580      	cmp	r8, r0
 800208a:	f040 80e1 	bne.w	8002250 <uart_stm32_configure+0x268>
	if (!(cfg->flow_ctrl == UART_CFG_FLOW_CTRL_NONE
 800208e:	79e3      	ldrb	r3, [r4, #7]
 8002090:	2b00      	cmp	r3, #0
 8002092:	d060      	beq.n	8002156 <uart_stm32_configure+0x16e>
		|| (cfg->flow_ctrl == UART_CFG_FLOW_CTRL_RTS_CTS &&
 8002094:	2b01      	cmp	r3, #1
 8002096:	d075      	beq.n	8002184 <uart_stm32_configure+0x19c>
	if (!(cfg->flow_ctrl == UART_CFG_FLOW_CTRL_NONE
 8002098:	2b03      	cmp	r3, #3
 800209a:	f040 80dc 	bne.w	8002256 <uart_stm32_configure+0x26e>
		|| (cfg->flow_ctrl == UART_CFG_FLOW_CTRL_RS485 &&
 800209e:	4b72      	ldr	r3, [pc, #456]	@ (8002268 <uart_stm32_configure+0x280>)
 80020a0:	429d      	cmp	r5, r3
 80020a2:	d058      	beq.n	8002156 <uart_stm32_configure+0x16e>
			IS_UART_DRIVER_ENABLE_INSTANCE(usart))
 80020a4:	f103 5380 	add.w	r3, r3, #268435456	@ 0x10000000
 80020a8:	429d      	cmp	r5, r3
 80020aa:	d054      	beq.n	8002156 <uart_stm32_configure+0x16e>
 80020ac:	4b6f      	ldr	r3, [pc, #444]	@ (800226c <uart_stm32_configure+0x284>)
 80020ae:	429d      	cmp	r5, r3
 80020b0:	d051      	beq.n	8002156 <uart_stm32_configure+0x16e>
 80020b2:	f103 5380 	add.w	r3, r3, #268435456	@ 0x10000000
 80020b6:	429d      	cmp	r5, r3
 80020b8:	d04d      	beq.n	8002156 <uart_stm32_configure+0x16e>
 80020ba:	4b6d      	ldr	r3, [pc, #436]	@ (8002270 <uart_stm32_configure+0x288>)
 80020bc:	429d      	cmp	r5, r3
 80020be:	d04a      	beq.n	8002156 <uart_stm32_configure+0x16e>
 80020c0:	f103 5380 	add.w	r3, r3, #268435456	@ 0x10000000
 80020c4:	429d      	cmp	r5, r3
 80020c6:	d046      	beq.n	8002156 <uart_stm32_configure+0x16e>
 80020c8:	4b6a      	ldr	r3, [pc, #424]	@ (8002274 <uart_stm32_configure+0x28c>)
 80020ca:	429d      	cmp	r5, r3
 80020cc:	d043      	beq.n	8002156 <uart_stm32_configure+0x16e>
 80020ce:	f103 5380 	add.w	r3, r3, #268435456	@ 0x10000000
 80020d2:	429d      	cmp	r5, r3
 80020d4:	d03f      	beq.n	8002156 <uart_stm32_configure+0x16e>
 80020d6:	4b68      	ldr	r3, [pc, #416]	@ (8002278 <uart_stm32_configure+0x290>)
 80020d8:	429d      	cmp	r5, r3
 80020da:	d03c      	beq.n	8002156 <uart_stm32_configure+0x16e>
 80020dc:	f1b5 2f50 	cmp.w	r5, #1342197760	@ 0x50005000
 80020e0:	d039      	beq.n	8002156 <uart_stm32_configure+0x16e>
 80020e2:	f503 53a0 	add.w	r3, r3, #5120	@ 0x1400
 80020e6:	429d      	cmp	r5, r3
 80020e8:	d035      	beq.n	8002156 <uart_stm32_configure+0x16e>
 80020ea:	f103 5380 	add.w	r3, r3, #268435456	@ 0x10000000
 80020ee:	429d      	cmp	r5, r3
 80020f0:	d031      	beq.n	8002156 <uart_stm32_configure+0x16e>
 80020f2:	4b62      	ldr	r3, [pc, #392]	@ (800227c <uart_stm32_configure+0x294>)
 80020f4:	429d      	cmp	r5, r3
 80020f6:	d02e      	beq.n	8002156 <uart_stm32_configure+0x16e>
 80020f8:	f103 5380 	add.w	r3, r3, #268435456	@ 0x10000000
 80020fc:	429d      	cmp	r5, r3
 80020fe:	d02a      	beq.n	8002156 <uart_stm32_configure+0x16e>
 8002100:	4b5f      	ldr	r3, [pc, #380]	@ (8002280 <uart_stm32_configure+0x298>)
 8002102:	429d      	cmp	r5, r3
 8002104:	d027      	beq.n	8002156 <uart_stm32_configure+0x16e>
 8002106:	f103 5380 	add.w	r3, r3, #268435456	@ 0x10000000
 800210a:	429d      	cmp	r5, r3
 800210c:	d023      	beq.n	8002156 <uart_stm32_configure+0x16e>
 800210e:	4b5d      	ldr	r3, [pc, #372]	@ (8002284 <uart_stm32_configure+0x29c>)
 8002110:	429d      	cmp	r5, r3
 8002112:	d020      	beq.n	8002156 <uart_stm32_configure+0x16e>
 8002114:	f103 5380 	add.w	r3, r3, #268435456	@ 0x10000000
 8002118:	429d      	cmp	r5, r3
 800211a:	d01c      	beq.n	8002156 <uart_stm32_configure+0x16e>
 800211c:	4b5a      	ldr	r3, [pc, #360]	@ (8002288 <uart_stm32_configure+0x2a0>)
 800211e:	429d      	cmp	r5, r3
 8002120:	d019      	beq.n	8002156 <uart_stm32_configure+0x16e>
 8002122:	f103 5380 	add.w	r3, r3, #268435456	@ 0x10000000
 8002126:	429d      	cmp	r5, r3
 8002128:	d015      	beq.n	8002156 <uart_stm32_configure+0x16e>
 800212a:	4b58      	ldr	r3, [pc, #352]	@ (800228c <uart_stm32_configure+0x2a4>)
 800212c:	429d      	cmp	r5, r3
 800212e:	d012      	beq.n	8002156 <uart_stm32_configure+0x16e>
 8002130:	f103 5380 	add.w	r3, r3, #268435456	@ 0x10000000
 8002134:	429d      	cmp	r5, r3
 8002136:	d00e      	beq.n	8002156 <uart_stm32_configure+0x16e>
 8002138:	4b55      	ldr	r3, [pc, #340]	@ (8002290 <uart_stm32_configure+0x2a8>)
 800213a:	429d      	cmp	r5, r3
 800213c:	d00b      	beq.n	8002156 <uart_stm32_configure+0x16e>
 800213e:	f103 5380 	add.w	r3, r3, #268435456	@ 0x10000000
 8002142:	429d      	cmp	r5, r3
 8002144:	d007      	beq.n	8002156 <uart_stm32_configure+0x16e>
 8002146:	4b53      	ldr	r3, [pc, #332]	@ (8002294 <uart_stm32_configure+0x2ac>)
 8002148:	429d      	cmp	r5, r3
 800214a:	d004      	beq.n	8002156 <uart_stm32_configure+0x16e>
 800214c:	f103 5380 	add.w	r3, r3, #268435456	@ 0x10000000
 8002150:	429d      	cmp	r5, r3
 8002152:	f040 8083 	bne.w	800225c <uart_stm32_configure+0x274>
  CLEAR_BIT(USARTx->CR1, USART_CR1_UE);
 8002156:	682b      	ldr	r3, [r5, #0]
 8002158:	f023 0301 	bic.w	r3, r3, #1
 800215c:	602b      	str	r3, [r5, #0]
	if (uart_stm32_parameters_set(dev, cfg) < 0) {
 800215e:	4621      	mov	r1, r4
 8002160:	4630      	mov	r0, r6
 8002162:	f002 ff5e 	bl	8005022 <uart_stm32_parameters_set>
 8002166:	2800      	cmp	r0, #0
 8002168:	db7b      	blt.n	8002262 <uart_stm32_configure+0x27a>
  SET_BIT(USARTx->CR1, USART_CR1_UE);
 800216a:	682b      	ldr	r3, [r5, #0]
 800216c:	f043 0301 	orr.w	r3, r3, #1
 8002170:	602b      	str	r3, [r5, #0]
	*uart_cfg = *cfg;
 8002172:	e894 0003 	ldmia.w	r4, {r0, r1}
 8002176:	e88a 0003 	stmia.w	sl, {r0, r1}
	return 0;
 800217a:	2000      	movs	r0, #0
};
 800217c:	e8bd 8ff8 	ldmia.w	sp!, {r3, r4, r5, r6, r7, r8, r9, sl, fp, pc}
		return UART_CFG_STOP_BITS_2;
 8002180:	2303      	movs	r3, #3
 8002182:	e77b      	b.n	800207c <uart_stm32_configure+0x94>
		|| (cfg->flow_ctrl == UART_CFG_FLOW_CTRL_RTS_CTS &&
 8002184:	4a38      	ldr	r2, [pc, #224]	@ (8002268 <uart_stm32_configure+0x280>)
 8002186:	4295      	cmp	r5, r2
 8002188:	d0e5      	beq.n	8002156 <uart_stm32_configure+0x16e>
			IS_UART_HWFLOW_INSTANCE(usart))
 800218a:	f102 5280 	add.w	r2, r2, #268435456	@ 0x10000000
 800218e:	4295      	cmp	r5, r2
 8002190:	d0e1      	beq.n	8002156 <uart_stm32_configure+0x16e>
 8002192:	4a36      	ldr	r2, [pc, #216]	@ (800226c <uart_stm32_configure+0x284>)
 8002194:	4295      	cmp	r5, r2
 8002196:	d0de      	beq.n	8002156 <uart_stm32_configure+0x16e>
 8002198:	f102 5280 	add.w	r2, r2, #268435456	@ 0x10000000
 800219c:	4295      	cmp	r5, r2
 800219e:	d0da      	beq.n	8002156 <uart_stm32_configure+0x16e>
 80021a0:	4a33      	ldr	r2, [pc, #204]	@ (8002270 <uart_stm32_configure+0x288>)
 80021a2:	4295      	cmp	r5, r2
 80021a4:	d0d7      	beq.n	8002156 <uart_stm32_configure+0x16e>
 80021a6:	f102 5280 	add.w	r2, r2, #268435456	@ 0x10000000
 80021aa:	4295      	cmp	r5, r2
 80021ac:	d0d3      	beq.n	8002156 <uart_stm32_configure+0x16e>
 80021ae:	4a31      	ldr	r2, [pc, #196]	@ (8002274 <uart_stm32_configure+0x28c>)
 80021b0:	4295      	cmp	r5, r2
 80021b2:	d0d0      	beq.n	8002156 <uart_stm32_configure+0x16e>
 80021b4:	f102 5280 	add.w	r2, r2, #268435456	@ 0x10000000
 80021b8:	4295      	cmp	r5, r2
 80021ba:	d0cc      	beq.n	8002156 <uart_stm32_configure+0x16e>
 80021bc:	4a2e      	ldr	r2, [pc, #184]	@ (8002278 <uart_stm32_configure+0x290>)
 80021be:	4295      	cmp	r5, r2
 80021c0:	d0c9      	beq.n	8002156 <uart_stm32_configure+0x16e>
 80021c2:	f1b5 2f50 	cmp.w	r5, #1342197760	@ 0x50005000
 80021c6:	d0c6      	beq.n	8002156 <uart_stm32_configure+0x16e>
 80021c8:	f502 52a0 	add.w	r2, r2, #5120	@ 0x1400
 80021cc:	4295      	cmp	r5, r2
 80021ce:	d0c2      	beq.n	8002156 <uart_stm32_configure+0x16e>
 80021d0:	f102 5280 	add.w	r2, r2, #268435456	@ 0x10000000
 80021d4:	4295      	cmp	r5, r2
 80021d6:	d0be      	beq.n	8002156 <uart_stm32_configure+0x16e>
 80021d8:	4a28      	ldr	r2, [pc, #160]	@ (800227c <uart_stm32_configure+0x294>)
 80021da:	4295      	cmp	r5, r2
 80021dc:	d0bb      	beq.n	8002156 <uart_stm32_configure+0x16e>
 80021de:	f102 5280 	add.w	r2, r2, #268435456	@ 0x10000000
 80021e2:	4295      	cmp	r5, r2
 80021e4:	d0b7      	beq.n	8002156 <uart_stm32_configure+0x16e>
 80021e6:	4a26      	ldr	r2, [pc, #152]	@ (8002280 <uart_stm32_configure+0x298>)
 80021e8:	4295      	cmp	r5, r2
 80021ea:	d0b4      	beq.n	8002156 <uart_stm32_configure+0x16e>
 80021ec:	f102 5280 	add.w	r2, r2, #268435456	@ 0x10000000
 80021f0:	4295      	cmp	r5, r2
 80021f2:	d0b0      	beq.n	8002156 <uart_stm32_configure+0x16e>
 80021f4:	4a23      	ldr	r2, [pc, #140]	@ (8002284 <uart_stm32_configure+0x29c>)
 80021f6:	4295      	cmp	r5, r2
 80021f8:	d0ad      	beq.n	8002156 <uart_stm32_configure+0x16e>
 80021fa:	f102 5280 	add.w	r2, r2, #268435456	@ 0x10000000
 80021fe:	4295      	cmp	r5, r2
 8002200:	d0a9      	beq.n	8002156 <uart_stm32_configure+0x16e>
 8002202:	4a21      	ldr	r2, [pc, #132]	@ (8002288 <uart_stm32_configure+0x2a0>)
 8002204:	4295      	cmp	r5, r2
 8002206:	d0a6      	beq.n	8002156 <uart_stm32_configure+0x16e>
 8002208:	f102 5280 	add.w	r2, r2, #268435456	@ 0x10000000
 800220c:	4295      	cmp	r5, r2
 800220e:	d0a2      	beq.n	8002156 <uart_stm32_configure+0x16e>
 8002210:	4a1e      	ldr	r2, [pc, #120]	@ (800228c <uart_stm32_configure+0x2a4>)
 8002212:	4295      	cmp	r5, r2
 8002214:	d09f      	beq.n	8002156 <uart_stm32_configure+0x16e>
 8002216:	f102 5280 	add.w	r2, r2, #268435456	@ 0x10000000
 800221a:	4295      	cmp	r5, r2
 800221c:	d09b      	beq.n	8002156 <uart_stm32_configure+0x16e>
 800221e:	4a1c      	ldr	r2, [pc, #112]	@ (8002290 <uart_stm32_configure+0x2a8>)
 8002220:	4295      	cmp	r5, r2
 8002222:	d098      	beq.n	8002156 <uart_stm32_configure+0x16e>
 8002224:	f102 5280 	add.w	r2, r2, #268435456	@ 0x10000000
 8002228:	4295      	cmp	r5, r2
 800222a:	d094      	beq.n	8002156 <uart_stm32_configure+0x16e>
 800222c:	4a19      	ldr	r2, [pc, #100]	@ (8002294 <uart_stm32_configure+0x2ac>)
 800222e:	4295      	cmp	r5, r2
 8002230:	d091      	beq.n	8002156 <uart_stm32_configure+0x16e>
 8002232:	f102 5280 	add.w	r2, r2, #268435456	@ 0x10000000
 8002236:	4295      	cmp	r5, r2
 8002238:	f47f af2e 	bne.w	8002098 <uart_stm32_configure+0xb0>
 800223c:	e78b      	b.n	8002156 <uart_stm32_configure+0x16e>
		return -ENOTSUP;
 800223e:	f06f 0085 	mvn.w	r0, #133	@ 0x85
 8002242:	e79b      	b.n	800217c <uart_stm32_configure+0x194>
		return -ENOTSUP;
 8002244:	f06f 0085 	mvn.w	r0, #133	@ 0x85
 8002248:	e798      	b.n	800217c <uart_stm32_configure+0x194>
		return -ENOTSUP;
 800224a:	f06f 0085 	mvn.w	r0, #133	@ 0x85
 800224e:	e795      	b.n	800217c <uart_stm32_configure+0x194>
		return -ENOTSUP;
 8002250:	f06f 0085 	mvn.w	r0, #133	@ 0x85
 8002254:	e792      	b.n	800217c <uart_stm32_configure+0x194>
		return -ENOTSUP;
 8002256:	f06f 0085 	mvn.w	r0, #133	@ 0x85
 800225a:	e78f      	b.n	800217c <uart_stm32_configure+0x194>
 800225c:	f06f 0085 	mvn.w	r0, #133	@ 0x85
 8002260:	e78c      	b.n	800217c <uart_stm32_configure+0x194>
		return -ENOTSUP;
 8002262:	f06f 0085 	mvn.w	r0, #133	@ 0x85
 8002266:	e789      	b.n	800217c <uart_stm32_configure+0x194>
 8002268:	40013800 	.word	0x40013800
 800226c:	40004400 	.word	0x40004400
 8002270:	40004800 	.word	0x40004800
 8002274:	40004c00 	.word	0x40004c00
 8002278:	40005000 	.word	0x40005000
 800227c:	40007800 	.word	0x40007800
 8002280:	40007c00 	.word	0x40007c00
 8002284:	40008000 	.word	0x40008000
 8002288:	40006800 	.word	0x40006800
 800228c:	40006c00 	.word	0x40006c00
 8002290:	40008400 	.word	0x40008400
 8002294:	44002400 	.word	0x44002400

08002298 <uart_stm32_registers_configure>:

	return 0;
}

static int uart_stm32_registers_configure(const struct device *dev)
{
 8002298:	b5f8      	push	{r3, r4, r5, r6, r7, lr}
 800229a:	4606      	mov	r6, r0
	const struct uart_stm32_config *config = dev->config;
 800229c:	6845      	ldr	r5, [r0, #4]
	USART_TypeDef *usart = config->usart;
 800229e:	682c      	ldr	r4, [r5, #0]
	struct uart_stm32_data *data = dev->data;
 80022a0:	6903      	ldr	r3, [r0, #16]
	struct uart_config *uart_cfg = data->uart_cfg;
 80022a2:	681f      	ldr	r7, [r3, #0]
  CLEAR_BIT(USARTx->CR1, USART_CR1_UE);
 80022a4:	6823      	ldr	r3, [r4, #0]
 80022a6:	f023 0301 	bic.w	r3, r3, #1
 80022aa:	6023      	str	r3, [r4, #0]

	LL_USART_Disable(usart);

	if (!device_is_ready(config->reset.dev)) {
 80022ac:	68a8      	ldr	r0, [r5, #8]
 80022ae:	f002 ff99 	bl	80051e4 <z_impl_device_is_ready>
 80022b2:	2800      	cmp	r0, #0
 80022b4:	f000 80bf 	beq.w	8002436 <uart_stm32_registers_configure+0x19e>
 *
 * @return a value from reset_line_toggle()
 */
static inline int reset_line_toggle_dt(const struct reset_dt_spec *spec)
{
	return reset_line_toggle(spec->dev, spec->id);
 80022b8:	68e9      	ldr	r1, [r5, #12]
 80022ba:	68a8      	ldr	r0, [r5, #8]
 80022bc:	f002 fdab 	bl	8004e16 <reset_line_toggle>
 */
__STATIC_FORCEINLINE uint32_t __LDREXW(volatile uint32_t *addr)
{
  uint32_t result;

  __ASM volatile ("ldrex %0, %1" : "=r" (result) : "Q" (*addr) );
 80022c0:	e854 3f00 	ldrex	r3, [r4]
  ATOMIC_MODIFY_REG(USARTx->CR1, USART_CR1_RE | USART_CR1_TE, TransferDirection);
 80022c4:	f043 030c 	orr.w	r3, r3, #12
 */
__STATIC_FORCEINLINE uint32_t __STREXW(uint32_t value, volatile uint32_t *addr)
{
  uint32_t result;

  __ASM volatile ("strex %0, %2, %1" : "=&r" (result), "=Q" (*addr) : "r" (value) );
 80022c8:	e844 3200 	strex	r2, r3, [r4]
 80022cc:	2a00      	cmp	r2, #0
 80022ce:	d1f7      	bne.n	80022c0 <uart_stm32_registers_configure+0x28>

	/* TX/RX direction */
	LL_USART_SetTransferDirection(usart, LL_USART_DIRECTION_TX_RX);

	/* Set basic parameters, such as data-/stop-bit, parity, and baudrate */
	if (uart_stm32_parameters_set(dev, uart_cfg) < 0) {
 80022d0:	4639      	mov	r1, r7
 80022d2:	4630      	mov	r0, r6
 80022d4:	f002 fea5 	bl	8005022 <uart_stm32_parameters_set>
 80022d8:	2800      	cmp	r0, #0
 80022da:	f2c0 80af 	blt.w	800243c <uart_stm32_registers_configure+0x1a4>
		return -EINVAL;
	}

	/* Enable the single wire / half-duplex mode */
	if (config->single_wire) {
 80022de:	7e2b      	ldrb	r3, [r5, #24]
 80022e0:	b11b      	cbz	r3, 80022ea <uart_stm32_registers_configure+0x52>
  * @param  USARTx USART Instance
  * @retval None
  */
__STATIC_INLINE void LL_USART_EnableHalfDuplex(USART_TypeDef *USARTx)
{
  SET_BIT(USARTx->CR3, USART_CR3_HDSEL);
 80022e2:	68a3      	ldr	r3, [r4, #8]
 80022e4:	f043 0308 	orr.w	r3, r3, #8
 80022e8:	60a3      	str	r3, [r4, #8]
		LL_USART_EnableHalfDuplex(usart);
	}

#ifdef LL_USART_TXRX_SWAPPED
	if (config->tx_rx_swap) {
 80022ea:	7e6b      	ldrb	r3, [r5, #25]
 80022ec:	b11b      	cbz	r3, 80022f6 <uart_stm32_registers_configure+0x5e>
  MODIFY_REG(USARTx->CR2, USART_CR2_SWAP, SwapConfig);
 80022ee:	6863      	ldr	r3, [r4, #4]
 80022f0:	f443 4300 	orr.w	r3, r3, #32768	@ 0x8000
 80022f4:	6063      	str	r3, [r4, #4]
		LL_USART_SetTXRXSwap(usart, LL_USART_TXRX_SWAPPED);
	}
#endif

#ifdef LL_USART_RXPIN_LEVEL_INVERTED
	if (config->rx_invert) {
 80022f6:	7eab      	ldrb	r3, [r5, #26]
 80022f8:	b11b      	cbz	r3, 8002302 <uart_stm32_registers_configure+0x6a>
  MODIFY_REG(USARTx->CR2, USART_CR2_RXINV, PinInvMethod);
 80022fa:	6863      	ldr	r3, [r4, #4]
 80022fc:	f443 3380 	orr.w	r3, r3, #65536	@ 0x10000
 8002300:	6063      	str	r3, [r4, #4]
		LL_USART_SetRXPinLevel(usart, LL_USART_RXPIN_LEVEL_INVERTED);
	}
#endif

#ifdef LL_USART_TXPIN_LEVEL_INVERTED
	if (config->tx_invert) {
 8002302:	7eeb      	ldrb	r3, [r5, #27]
 8002304:	b11b      	cbz	r3, 800230e <uart_stm32_registers_configure+0x76>
  MODIFY_REG(USARTx->CR2, USART_CR2_TXINV, PinInvMethod);
 8002306:	6863      	ldr	r3, [r4, #4]
 8002308:	f443 3300 	orr.w	r3, r3, #131072	@ 0x20000
 800230c:	6063      	str	r3, [r4, #4]
		LL_USART_SetTXPinLevel(usart, LL_USART_TXPIN_LEVEL_INVERTED);
	}
#endif

#if HAS_DRIVER_ENABLE
	if (config->de_enable) {
 800230e:	7f2b      	ldrb	r3, [r5, #28]
 8002310:	2b00      	cmp	r3, #0
 8002312:	d074      	beq.n	80023fe <uart_stm32_registers_configure+0x166>
		if (!IS_UART_DRIVER_ENABLE_INSTANCE(usart)) {
 8002314:	4b4c      	ldr	r3, [pc, #304]	@ (8002448 <uart_stm32_registers_configure+0x1b0>)
 8002316:	429c      	cmp	r4, r3
 8002318:	d057      	beq.n	80023ca <uart_stm32_registers_configure+0x132>
 800231a:	f103 5380 	add.w	r3, r3, #268435456	@ 0x10000000
 800231e:	429c      	cmp	r4, r3
 8002320:	d053      	beq.n	80023ca <uart_stm32_registers_configure+0x132>
 8002322:	4b4a      	ldr	r3, [pc, #296]	@ (800244c <uart_stm32_registers_configure+0x1b4>)
 8002324:	429c      	cmp	r4, r3
 8002326:	d050      	beq.n	80023ca <uart_stm32_registers_configure+0x132>
 8002328:	f103 5380 	add.w	r3, r3, #268435456	@ 0x10000000
 800232c:	429c      	cmp	r4, r3
 800232e:	d04c      	beq.n	80023ca <uart_stm32_registers_configure+0x132>
 8002330:	4b47      	ldr	r3, [pc, #284]	@ (8002450 <uart_stm32_registers_configure+0x1b8>)
 8002332:	429c      	cmp	r4, r3
 8002334:	d049      	beq.n	80023ca <uart_stm32_registers_configure+0x132>
 8002336:	f103 5380 	add.w	r3, r3, #268435456	@ 0x10000000
 800233a:	429c      	cmp	r4, r3
 800233c:	d045      	beq.n	80023ca <uart_stm32_registers_configure+0x132>
 800233e:	4b45      	ldr	r3, [pc, #276]	@ (8002454 <uart_stm32_registers_configure+0x1bc>)
 8002340:	429c      	cmp	r4, r3
 8002342:	d042      	beq.n	80023ca <uart_stm32_registers_configure+0x132>
 8002344:	f103 5380 	add.w	r3, r3, #268435456	@ 0x10000000
 8002348:	429c      	cmp	r4, r3
 800234a:	d03e      	beq.n	80023ca <uart_stm32_registers_configure+0x132>
 800234c:	4b42      	ldr	r3, [pc, #264]	@ (8002458 <uart_stm32_registers_configure+0x1c0>)
 800234e:	429c      	cmp	r4, r3
 8002350:	d03b      	beq.n	80023ca <uart_stm32_registers_configure+0x132>
 8002352:	f1b4 2f50 	cmp.w	r4, #1342197760	@ 0x50005000
 8002356:	d038      	beq.n	80023ca <uart_stm32_registers_configure+0x132>
 8002358:	f503 53a0 	add.w	r3, r3, #5120	@ 0x1400
 800235c:	429c      	cmp	r4, r3
 800235e:	d034      	beq.n	80023ca <uart_stm32_registers_configure+0x132>
 8002360:	f103 5380 	add.w	r3, r3, #268435456	@ 0x10000000
 8002364:	429c      	cmp	r4, r3
 8002366:	d030      	beq.n	80023ca <uart_stm32_registers_configure+0x132>
 8002368:	4b3c      	ldr	r3, [pc, #240]	@ (800245c <uart_stm32_registers_configure+0x1c4>)
 800236a:	429c      	cmp	r4, r3
 800236c:	d02d      	beq.n	80023ca <uart_stm32_registers_configure+0x132>
 800236e:	f103 5380 	add.w	r3, r3, #268435456	@ 0x10000000
 8002372:	429c      	cmp	r4, r3
 8002374:	d029      	beq.n	80023ca <uart_stm32_registers_configure+0x132>
 8002376:	4b3a      	ldr	r3, [pc, #232]	@ (8002460 <uart_stm32_registers_configure+0x1c8>)
 8002378:	429c      	cmp	r4, r3
 800237a:	d026      	beq.n	80023ca <uart_stm32_registers_configure+0x132>
 800237c:	f103 5380 	add.w	r3, r3, #268435456	@ 0x10000000
 8002380:	429c      	cmp	r4, r3
 8002382:	d022      	beq.n	80023ca <uart_stm32_registers_configure+0x132>
 8002384:	4b37      	ldr	r3, [pc, #220]	@ (8002464 <uart_stm32_registers_configure+0x1cc>)
 8002386:	429c      	cmp	r4, r3
 8002388:	d01f      	beq.n	80023ca <uart_stm32_registers_configure+0x132>
 800238a:	f103 5380 	add.w	r3, r3, #268435456	@ 0x10000000
 800238e:	429c      	cmp	r4, r3
 8002390:	d01b      	beq.n	80023ca <uart_stm32_registers_configure+0x132>
 8002392:	4b35      	ldr	r3, [pc, #212]	@ (8002468 <uart_stm32_registers_configure+0x1d0>)
 8002394:	429c      	cmp	r4, r3
 8002396:	d018      	beq.n	80023ca <uart_stm32_registers_configure+0x132>
 8002398:	f103 5380 	add.w	r3, r3, #268435456	@ 0x10000000
 800239c:	429c      	cmp	r4, r3
 800239e:	d014      	beq.n	80023ca <uart_stm32_registers_configure+0x132>
 80023a0:	4b32      	ldr	r3, [pc, #200]	@ (800246c <uart_stm32_registers_configure+0x1d4>)
 80023a2:	429c      	cmp	r4, r3
 80023a4:	d011      	beq.n	80023ca <uart_stm32_registers_configure+0x132>
 80023a6:	f103 5380 	add.w	r3, r3, #268435456	@ 0x10000000
 80023aa:	429c      	cmp	r4, r3
 80023ac:	d00d      	beq.n	80023ca <uart_stm32_registers_configure+0x132>
 80023ae:	4b30      	ldr	r3, [pc, #192]	@ (8002470 <uart_stm32_registers_configure+0x1d8>)
 80023b0:	429c      	cmp	r4, r3
 80023b2:	d00a      	beq.n	80023ca <uart_stm32_registers_configure+0x132>
 80023b4:	f103 5380 	add.w	r3, r3, #268435456	@ 0x10000000
 80023b8:	429c      	cmp	r4, r3
 80023ba:	d006      	beq.n	80023ca <uart_stm32_registers_configure+0x132>
 80023bc:	4b2d      	ldr	r3, [pc, #180]	@ (8002474 <uart_stm32_registers_configure+0x1dc>)
 80023be:	429c      	cmp	r4, r3
 80023c0:	d003      	beq.n	80023ca <uart_stm32_registers_configure+0x132>
 80023c2:	f103 5380 	add.w	r3, r3, #268435456	@ 0x10000000
 80023c6:	429c      	cmp	r4, r3
 80023c8:	d13b      	bne.n	8002442 <uart_stm32_registers_configure+0x1aa>
	const struct uart_stm32_config *config = dev->config;
 80023ca:	6873      	ldr	r3, [r6, #4]
		LL_USART_EnableDEMode(config->usart);
 80023cc:	681a      	ldr	r2, [r3, #0]
  * @param  USARTx USART Instance
  * @retval None
  */
__STATIC_INLINE void LL_USART_EnableDEMode(USART_TypeDef *USARTx)
{
  SET_BIT(USARTx->CR3, USART_CR3_DEM);
 80023ce:	6893      	ldr	r3, [r2, #8]
 80023d0:	f443 4380 	orr.w	r3, r3, #16384	@ 0x4000
 80023d4:	6093      	str	r3, [r2, #8]
			LOG_ERR("%s does not support driver enable", dev->name);
			return -EINVAL;
		}

		uart_stm32_set_driver_enable(dev, true);
		LL_USART_SetDEAssertionTime(usart, config->de_assert_time);
 80023d6:	7f6a      	ldrb	r2, [r5, #29]
  MODIFY_REG(USARTx->CR1, USART_CR1_DEAT, Time << USART_CR1_DEAT_Pos);
 80023d8:	6823      	ldr	r3, [r4, #0]
 80023da:	f023 7378 	bic.w	r3, r3, #65011712	@ 0x3e00000
 80023de:	ea43 5342 	orr.w	r3, r3, r2, lsl #21
 80023e2:	6023      	str	r3, [r4, #0]
		LL_USART_SetDEDeassertionTime(usart, config->de_deassert_time);
 80023e4:	7faa      	ldrb	r2, [r5, #30]
  MODIFY_REG(USARTx->CR1, USART_CR1_DEDT, Time << USART_CR1_DEDT_Pos);
 80023e6:	6823      	ldr	r3, [r4, #0]
 80023e8:	f423 13f8 	bic.w	r3, r3, #2031616	@ 0x1f0000
 80023ec:	ea43 4302 	orr.w	r3, r3, r2, lsl #16
 80023f0:	6023      	str	r3, [r4, #0]

		if (config->de_invert) {
 80023f2:	7feb      	ldrb	r3, [r5, #31]
 80023f4:	b11b      	cbz	r3, 80023fe <uart_stm32_registers_configure+0x166>
  *         @arg @ref LL_USART_DE_POLARITY_LOW
  * @retval None
  */
__STATIC_INLINE void LL_USART_SetDESignalPolarity(USART_TypeDef *USARTx, uint32_t Polarity)
{
  MODIFY_REG(USARTx->CR3, USART_CR3_DEP, Polarity);
 80023f6:	68a3      	ldr	r3, [r4, #8]
 80023f8:	f443 4300 	orr.w	r3, r3, #32768	@ 0x8000
 80023fc:	60a3      	str	r3, [r4, #8]
		}
	}
#endif

#ifdef USART_CR1_FIFOEN
	if (config->fifo_enable) {
 80023fe:	f895 3020 	ldrb.w	r3, [r5, #32]
 8002402:	b11b      	cbz	r3, 800240c <uart_stm32_registers_configure+0x174>
  SET_BIT(USARTx->CR1, USART_CR1_FIFOEN);
 8002404:	6823      	ldr	r3, [r4, #0]
 8002406:	f043 5300 	orr.w	r3, r3, #536870912	@ 0x20000000
 800240a:	6023      	str	r3, [r4, #0]
  SET_BIT(USARTx->CR1, USART_CR1_UE);
 800240c:	6823      	ldr	r3, [r4, #0]
 800240e:	f043 0301 	orr.w	r3, r3, #1
 8002412:	6023      	str	r3, [r4, #0]
}
 8002414:	e000      	b.n	8002418 <uart_stm32_registers_configure+0x180>

	LL_USART_Enable(usart);

#ifdef USART_ISR_TEACK
	/* Wait until TEACK flag is set */
	while (!(LL_USART_IsActiveFlag_TEACK(usart))) {
 8002416:	b933      	cbnz	r3, 8002426 <uart_stm32_registers_configure+0x18e>
  * @param  USARTx USART Instance
  * @retval State of bit (1 or 0).
  */
__STATIC_INLINE uint32_t LL_USART_IsActiveFlag_TEACK(const USART_TypeDef *USARTx)
{
  return ((READ_BIT(USARTx->ISR, USART_ISR_TEACK) == (USART_ISR_TEACK)) ? 1UL : 0UL);
 8002418:	69e3      	ldr	r3, [r4, #28]
 800241a:	f413 1300 	ands.w	r3, r3, #2097152	@ 0x200000
 800241e:	d0fa      	beq.n	8002416 <uart_stm32_registers_configure+0x17e>
 8002420:	2301      	movs	r3, #1
 8002422:	e7f8      	b.n	8002416 <uart_stm32_registers_configure+0x17e>
	}
#endif /* USART_ISR_TEACK */

#ifdef USART_ISR_REACK
	/* Wait until REACK flag is set */
	while (!(LL_USART_IsActiveFlag_REACK(usart))) {
 8002424:	b92a      	cbnz	r2, 8002432 <uart_stm32_registers_configure+0x19a>
  * @param  USARTx USART Instance
  * @retval State of bit (1 or 0).
  */
__STATIC_INLINE uint32_t LL_USART_IsActiveFlag_REACK(const USART_TypeDef *USARTx)
{
  return ((READ_BIT(USARTx->ISR, USART_ISR_REACK) == (USART_ISR_REACK)) ? 1UL : 0UL);
 8002426:	69e2      	ldr	r2, [r4, #28]
 8002428:	f412 0280 	ands.w	r2, r2, #4194304	@ 0x400000
 800242c:	d0fa      	beq.n	8002424 <uart_stm32_registers_configure+0x18c>
 800242e:	461a      	mov	r2, r3
 8002430:	e7f8      	b.n	8002424 <uart_stm32_registers_configure+0x18c>
	}
#endif /* USART_ISR_REACK */

	return 0;
 8002432:	2000      	movs	r0, #0
}
 8002434:	bdf8      	pop	{r3, r4, r5, r6, r7, pc}
		return -ENODEV;
 8002436:	f06f 0012 	mvn.w	r0, #18
 800243a:	e7fb      	b.n	8002434 <uart_stm32_registers_configure+0x19c>
		return -EINVAL;
 800243c:	f06f 0015 	mvn.w	r0, #21
 8002440:	e7f8      	b.n	8002434 <uart_stm32_registers_configure+0x19c>
			return -EINVAL;
 8002442:	f06f 0015 	mvn.w	r0, #21
 8002446:	e7f5      	b.n	8002434 <uart_stm32_registers_configure+0x19c>
 8002448:	40013800 	.word	0x40013800
 800244c:	40004400 	.word	0x40004400
 8002450:	40004800 	.word	0x40004800
 8002454:	40004c00 	.word	0x40004c00
 8002458:	40005000 	.word	0x40005000
 800245c:	40007800 	.word	0x40007800
 8002460:	40007c00 	.word	0x40007c00
 8002464:	40008000 	.word	0x40008000
 8002468:	40006800 	.word	0x40006800
 800246c:	40006c00 	.word	0x40006c00
 8002470:	40008400 	.word	0x40008400
 8002474:	44002400 	.word	0x44002400

08002478 <elapsed>:
 *     - and until the current call of the function is completed.
 * - the function is invoked with interrupts disabled.
 */
static uint32_t elapsed(void)
{
	uint32_t val1 = SysTick->VAL;	/* A */
 8002478:	f04f 23e0 	mov.w	r3, #3758153728	@ 0xe000e000
 800247c:	6999      	ldr	r1, [r3, #24]
	uint32_t ctrl = SysTick->CTRL;	/* B */
 800247e:	6918      	ldr	r0, [r3, #16]
	uint32_t val2 = SysTick->VAL;	/* C */
 8002480:	699a      	ldr	r2, [r3, #24]
	 * 4) After C we'll see it next time
	 *
	 * So the count in val2 is post-wrap and last_load needs to be
	 * added if and only if COUNTFLAG is set or val1 < val2.
	 */
	if (val1 == 0) {
 8002482:	b909      	cbnz	r1, 8002488 <elapsed+0x10>
		val1 = last_load;
 8002484:	4b0c      	ldr	r3, [pc, #48]	@ (80024b8 <elapsed+0x40>)
 8002486:	6819      	ldr	r1, [r3, #0]
	}
	if (val2 == 0) {
 8002488:	b90a      	cbnz	r2, 800248e <elapsed+0x16>
		val2 = last_load;
 800248a:	4b0b      	ldr	r3, [pc, #44]	@ (80024b8 <elapsed+0x40>)
 800248c:	681a      	ldr	r2, [r3, #0]
	}

	if ((ctrl & SysTick_CTRL_COUNTFLAG_Msk)
 800248e:	f410 3f80 	tst.w	r0, #65536	@ 0x10000
 8002492:	d101      	bne.n	8002498 <elapsed+0x20>
	    || (val1 < val2)) {
 8002494:	4291      	cmp	r1, r2
 8002496:	d208      	bcs.n	80024aa <elapsed+0x32>
		overflow_cyc += last_load;
 8002498:	4908      	ldr	r1, [pc, #32]	@ (80024bc <elapsed+0x44>)
 800249a:	680b      	ldr	r3, [r1, #0]
 800249c:	4806      	ldr	r0, [pc, #24]	@ (80024b8 <elapsed+0x40>)
 800249e:	6800      	ldr	r0, [r0, #0]
 80024a0:	4403      	add	r3, r0
 80024a2:	600b      	str	r3, [r1, #0]

		/* We know there was a wrap, but we might not have
		 * seen it in CTRL, so clear it. */
		(void)SysTick->CTRL;
 80024a4:	f04f 23e0 	mov.w	r3, #3758153728	@ 0xe000e000
 80024a8:	691b      	ldr	r3, [r3, #16]
	}

	return (last_load - val2) + overflow_cyc;
 80024aa:	4b03      	ldr	r3, [pc, #12]	@ (80024b8 <elapsed+0x40>)
 80024ac:	681b      	ldr	r3, [r3, #0]
 80024ae:	1a9b      	subs	r3, r3, r2
 80024b0:	4a02      	ldr	r2, [pc, #8]	@ (80024bc <elapsed+0x44>)
 80024b2:	6810      	ldr	r0, [r2, #0]
}
 80024b4:	4418      	add	r0, r3
 80024b6:	4770      	bx	lr
 80024b8:	200003fc 	.word	0x200003fc
 80024bc:	200003f8 	.word	0x200003f8

080024c0 <sys_clock_driver_init>:
    SCB->SHPR[(((uint32_t)IRQn) & 0xFUL)-4UL] = (uint8_t)((priority << (8U - __NVIC_PRIO_BITS)) & (uint32_t)0xFFUL);
 80024c0:	4b09      	ldr	r3, [pc, #36]	@ (80024e8 <sys_clock_driver_init+0x28>)
 80024c2:	2210      	movs	r2, #16
 80024c4:	f883 2023 	strb.w	r2, [r3, #35]	@ 0x23

static int sys_clock_driver_init(void)
{

	NVIC_SetPriority(SysTick_IRQn, _IRQ_PRIO_OFFSET);
	last_load = CYC_PER_TICK;
 80024c8:	4b08      	ldr	r3, [pc, #32]	@ (80024ec <sys_clock_driver_init+0x2c>)
 80024ca:	f645 52c0 	movw	r2, #24000	@ 0x5dc0
 80024ce:	601a      	str	r2, [r3, #0]
	overflow_cyc = 0U;
 80024d0:	2000      	movs	r0, #0
 80024d2:	4b07      	ldr	r3, [pc, #28]	@ (80024f0 <sys_clock_driver_init+0x30>)
 80024d4:	6018      	str	r0, [r3, #0]
	SysTick->LOAD = last_load - 1;
 80024d6:	f04f 23e0 	mov.w	r3, #3758153728	@ 0xe000e000
 80024da:	f645 52bf 	movw	r2, #23999	@ 0x5dbf
 80024de:	615a      	str	r2, [r3, #20]
	SysTick->VAL = 0; /* resets timer to last_load */
 80024e0:	6198      	str	r0, [r3, #24]

	uint32_t ctrl_flags = SysTick_CTRL_ENABLE_Msk |
			      SysTick_CTRL_TICKINT_Msk |
			      SYSTICK_CTRL_CLKSOURCE_MSK_GET();

	SysTick->CTRL = ctrl_flags;
 80024e2:	2207      	movs	r2, #7
 80024e4:	611a      	str	r2, [r3, #16]

	return 0;
}
 80024e6:	4770      	bx	lr
 80024e8:	e000ed00 	.word	0xe000ed00
 80024ec:	200003fc 	.word	0x200003fc
 80024f0:	200003f8 	.word	0x200003f8

080024f4 <sys_clock_isr>:
{
 80024f4:	4668      	mov	r0, sp
 80024f6:	f020 0107 	bic.w	r1, r0, #7
 80024fa:	468d      	mov	sp, r1
 80024fc:	b519      	push	{r0, r3, r4, lr}
	elapsed();
 80024fe:	f7ff ffbb 	bl	8002478 <elapsed>
	cycle_count += overflow_cyc;
 8002502:	4812      	ldr	r0, [pc, #72]	@ (800254c <sys_clock_isr+0x58>)
 8002504:	6803      	ldr	r3, [r0, #0]
 8002506:	4a12      	ldr	r2, [pc, #72]	@ (8002550 <sys_clock_isr+0x5c>)
 8002508:	6851      	ldr	r1, [r2, #4]
 800250a:	6814      	ldr	r4, [r2, #0]
 800250c:	191b      	adds	r3, r3, r4
 800250e:	f141 0100 	adc.w	r1, r1, #0
 8002512:	6013      	str	r3, [r2, #0]
 8002514:	6051      	str	r1, [r2, #4]
	overflow_cyc = 0;
 8002516:	2200      	movs	r2, #0
 8002518:	6002      	str	r2, [r0, #0]
		dcycles = cycle_count - announced_cycles;
 800251a:	490e      	ldr	r1, [pc, #56]	@ (8002554 <sys_clock_isr+0x60>)
 800251c:	680a      	ldr	r2, [r1, #0]
 800251e:	1a98      	subs	r0, r3, r2
		dticks = dcycles / CYC_PER_TICK;
 8002520:	4b0d      	ldr	r3, [pc, #52]	@ (8002558 <sys_clock_isr+0x64>)
 8002522:	fba3 3000 	umull	r3, r0, r3, r0
 8002526:	0a40      	lsrs	r0, r0, #9
		announced_cycles += dticks * CYC_PER_TICK;
 8002528:	f645 53c0 	movw	r3, #24000	@ 0x5dc0
 800252c:	fb00 f303 	mul.w	r3, r0, r3
 8002530:	18d2      	adds	r2, r2, r3
 8002532:	684b      	ldr	r3, [r1, #4]
 8002534:	f143 0300 	adc.w	r3, r3, #0
 8002538:	600a      	str	r2, [r1, #0]
 800253a:	604b      	str	r3, [r1, #4]
		sys_clock_announce(dticks);
 800253c:	f000 ff80 	bl	8003440 <sys_clock_announce>
	z_arm_int_exit();
 8002540:	f7fe fd30 	bl	8000fa4 <z_arm_exc_exit>
}
 8002544:	e8bd 4019 	ldmia.w	sp!, {r0, r3, r4, lr}
 8002548:	4685      	mov	sp, r0
 800254a:	4770      	bx	lr
 800254c:	200003f8 	.word	0x200003f8
 8002550:	20000080 	.word	0x20000080
 8002554:	20000078 	.word	0x20000078
 8002558:	057619f1 	.word	0x057619f1

0800255c <sys_clock_set_timeout>:
{
 800255c:	b5f8      	push	{r3, r4, r5, r6, r7, lr}
	if (IS_ENABLED(CONFIG_TICKLESS_KERNEL) && idle && ticks == K_TICKS_FOREVER) {
 800255e:	2900      	cmp	r1, #0
 8002560:	d04b      	beq.n	80025fa <sys_clock_set_timeout+0x9e>
 8002562:	f1b0 3fff 	cmp.w	r0, #4294967295
 8002566:	d03d      	beq.n	80025e4 <sys_clock_set_timeout+0x88>
	uint32_t last_load_ = last_load;
 8002568:	4b3e      	ldr	r3, [pc, #248]	@ (8002664 <sys_clock_set_timeout+0x108>)
 800256a:	681c      	ldr	r4, [r3, #0]
	ticks = CLAMP(ticks - 1, 0, (int32_t)MAX_TICKS);
 800256c:	2801      	cmp	r0, #1
 800256e:	dd4c      	ble.n	800260a <sys_clock_set_timeout+0xae>
 8002570:	f240 23bb 	movw	r3, #699	@ 0x2bb
 8002574:	4298      	cmp	r0, r3
 8002576:	bfa8      	it	ge
 8002578:	4618      	movge	r0, r3
 800257a:	1e46      	subs	r6, r0, #1
  __ASM volatile ("MRS %0, basepri" : "=r" (result) );
 800257c:	f3ef 8511 	mrs	r5, BASEPRI
  __ASM volatile ("MSR basepri_max, %0" : : "r" (basePri) : "memory");
 8002580:	2310      	movs	r3, #16
 8002582:	f383 8812 	msr	BASEPRI_MAX, r3
  __ASM volatile ("isb 0xF":::"memory");
 8002586:	f3bf 8f6f 	isb	sy
	uint32_t pending = elapsed();
 800258a:	f7ff ff75 	bl	8002478 <elapsed>
	val1 = SysTick->VAL;
 800258e:	f04f 23e0 	mov.w	r3, #3758153728	@ 0xe000e000
 8002592:	699f      	ldr	r7, [r3, #24]
	cycle_count += pending;
 8002594:	4a34      	ldr	r2, [pc, #208]	@ (8002668 <sys_clock_set_timeout+0x10c>)
 8002596:	6813      	ldr	r3, [r2, #0]
 8002598:	6851      	ldr	r1, [r2, #4]
 800259a:	18c3      	adds	r3, r0, r3
 800259c:	f141 0100 	adc.w	r1, r1, #0
 80025a0:	6013      	str	r3, [r2, #0]
 80025a2:	6051      	str	r1, [r2, #4]
	overflow_cyc = 0U;
 80025a4:	2100      	movs	r1, #0
 80025a6:	4a31      	ldr	r2, [pc, #196]	@ (800266c <sys_clock_set_timeout+0x110>)
 80025a8:	6011      	str	r1, [r2, #0]
	uint32_t unannounced = cycle_count - announced_cycles;
 80025aa:	4a31      	ldr	r2, [pc, #196]	@ (8002670 <sys_clock_set_timeout+0x114>)
 80025ac:	6811      	ldr	r1, [r2, #0]
	if ((int32_t)unannounced < 0) {
 80025ae:	1a5a      	subs	r2, r3, r1
 80025b0:	d42d      	bmi.n	800260e <sys_clock_set_timeout+0xb2>
		delay = ticks * CYC_PER_TICK;
 80025b2:	f645 50c0 	movw	r0, #24000	@ 0x5dc0
		delay += unannounced;
 80025b6:	fb00 2206 	mla	r2, r0, r6, r2
		delay = DIV_ROUND_UP(delay, CYC_PER_TICK) * CYC_PER_TICK;
 80025ba:	f502 42bb 	add.w	r2, r2, #23936	@ 0x5d80
 80025be:	323f      	adds	r2, #63	@ 0x3f
 80025c0:	4e2c      	ldr	r6, [pc, #176]	@ (8002674 <sys_clock_set_timeout+0x118>)
 80025c2:	fba6 6202 	umull	r6, r2, r6, r2
 80025c6:	0a52      	lsrs	r2, r2, #9
		delay -= unannounced;
 80025c8:	1ac9      	subs	r1, r1, r3
 80025ca:	fb00 1102 	mla	r1, r0, r2, r1
		delay = MAX(delay, MIN_DELAY);
 80025ce:	f240 53dc 	movw	r3, #1500	@ 0x5dc
 80025d2:	428b      	cmp	r3, r1
 80025d4:	bf38      	it	cc
 80025d6:	460b      	movcc	r3, r1
		if (delay > MAX_CYCLES) {
 80025d8:	4a27      	ldr	r2, [pc, #156]	@ (8002678 <sys_clock_set_timeout+0x11c>)
 80025da:	4291      	cmp	r1, r2
 80025dc:	d935      	bls.n	800264a <sys_clock_set_timeout+0xee>
			last_load = MAX_CYCLES;
 80025de:	4b21      	ldr	r3, [pc, #132]	@ (8002664 <sys_clock_set_timeout+0x108>)
 80025e0:	601a      	str	r2, [r3, #0]
 80025e2:	e018      	b.n	8002616 <sys_clock_set_timeout+0xba>
		SysTick->CTRL &= ~SysTick_CTRL_ENABLE_Msk;
 80025e4:	f04f 22e0 	mov.w	r2, #3758153728	@ 0xe000e000
 80025e8:	6913      	ldr	r3, [r2, #16]
 80025ea:	f023 0301 	bic.w	r3, r3, #1
 80025ee:	6113      	str	r3, [r2, #16]
		last_load = TIMER_STOPPED;
 80025f0:	4b1c      	ldr	r3, [pc, #112]	@ (8002664 <sys_clock_set_timeout+0x108>)
 80025f2:	f04f 427f 	mov.w	r2, #4278190080	@ 0xff000000
 80025f6:	601a      	str	r2, [r3, #0]
		return;
 80025f8:	e026      	b.n	8002648 <sys_clock_set_timeout+0xec>
	uint32_t last_load_ = last_load;
 80025fa:	4b1a      	ldr	r3, [pc, #104]	@ (8002664 <sys_clock_set_timeout+0x108>)
 80025fc:	681c      	ldr	r4, [r3, #0]
	ticks = (ticks == K_TICKS_FOREVER) ? MAX_TICKS : ticks;
 80025fe:	f1b0 3fff 	cmp.w	r0, #4294967295
 8002602:	d1b3      	bne.n	800256c <sys_clock_set_timeout+0x10>
 8002604:	f240 20ba 	movw	r0, #698	@ 0x2ba
 8002608:	e7b2      	b.n	8002570 <sys_clock_set_timeout+0x14>
	ticks = CLAMP(ticks - 1, 0, (int32_t)MAX_TICKS);
 800260a:	2600      	movs	r6, #0
 800260c:	e7b6      	b.n	800257c <sys_clock_set_timeout+0x20>
		last_load = MIN_DELAY;
 800260e:	4b15      	ldr	r3, [pc, #84]	@ (8002664 <sys_clock_set_timeout+0x108>)
 8002610:	f240 52dc 	movw	r2, #1500	@ 0x5dc
 8002614:	601a      	str	r2, [r3, #0]
	val2 = SysTick->VAL;
 8002616:	f04f 23e0 	mov.w	r3, #3758153728	@ 0xe000e000
 800261a:	6999      	ldr	r1, [r3, #24]
	SysTick->LOAD = last_load - 1;
 800261c:	4a11      	ldr	r2, [pc, #68]	@ (8002664 <sys_clock_set_timeout+0x108>)
 800261e:	6812      	ldr	r2, [r2, #0]
 8002620:	3a01      	subs	r2, #1
 8002622:	615a      	str	r2, [r3, #20]
	SysTick->VAL = 0; /* resets timer to last_load */
 8002624:	2200      	movs	r2, #0
 8002626:	619a      	str	r2, [r3, #24]
	if (val1 < val2) {
 8002628:	428f      	cmp	r7, r1
 800262a:	d211      	bcs.n	8002650 <sys_clock_set_timeout+0xf4>
		cycle_count += (val1 + (last_load_ - val2));
 800262c:	1a64      	subs	r4, r4, r1
 800262e:	443c      	add	r4, r7
 8002630:	4a0d      	ldr	r2, [pc, #52]	@ (8002668 <sys_clock_set_timeout+0x10c>)
 8002632:	6813      	ldr	r3, [r2, #0]
 8002634:	6851      	ldr	r1, [r2, #4]
 8002636:	191b      	adds	r3, r3, r4
 8002638:	f141 0100 	adc.w	r1, r1, #0
 800263c:	6013      	str	r3, [r2, #0]
 800263e:	6051      	str	r1, [r2, #4]
  __ASM volatile ("MSR basepri, %0" : : "r" (basePri) : "memory");
 8002640:	f385 8811 	msr	BASEPRI, r5
 8002644:	f3bf 8f6f 	isb	sy
}
 8002648:	bdf8      	pop	{r3, r4, r5, r6, r7, pc}
			last_load = delay;
 800264a:	4a06      	ldr	r2, [pc, #24]	@ (8002664 <sys_clock_set_timeout+0x108>)
 800264c:	6013      	str	r3, [r2, #0]
 800264e:	e7e2      	b.n	8002616 <sys_clock_set_timeout+0xba>
		cycle_count += (val1 - val2);
 8002650:	1a7f      	subs	r7, r7, r1
 8002652:	4a05      	ldr	r2, [pc, #20]	@ (8002668 <sys_clock_set_timeout+0x10c>)
 8002654:	6813      	ldr	r3, [r2, #0]
 8002656:	6851      	ldr	r1, [r2, #4]
 8002658:	19db      	adds	r3, r3, r7
 800265a:	f141 0100 	adc.w	r1, r1, #0
 800265e:	6013      	str	r3, [r2, #0]
 8002660:	6051      	str	r1, [r2, #4]
 8002662:	e7ed      	b.n	8002640 <sys_clock_set_timeout+0xe4>
 8002664:	200003fc 	.word	0x200003fc
 8002668:	20000080 	.word	0x20000080
 800266c:	200003f8 	.word	0x200003f8
 8002670:	20000078 	.word	0x20000078
 8002674:	057619f1 	.word	0x057619f1
 8002678:	00ff9d80 	.word	0x00ff9d80

0800267c <sys_clock_elapsed>:
{
 800267c:	b538      	push	{r3, r4, r5, lr}
  __ASM volatile ("MRS %0, basepri" : "=r" (result) );
 800267e:	f3ef 8511 	mrs	r5, BASEPRI
  __ASM volatile ("MSR basepri_max, %0" : : "r" (basePri) : "memory");
 8002682:	2310      	movs	r3, #16
 8002684:	f383 8812 	msr	BASEPRI_MAX, r3
 8002688:	f3bf 8f6f 	isb	sy
	uint32_t unannounced = cycle_count - announced_cycles;
 800268c:	4b08      	ldr	r3, [pc, #32]	@ (80026b0 <sys_clock_elapsed+0x34>)
 800268e:	681c      	ldr	r4, [r3, #0]
 8002690:	4b08      	ldr	r3, [pc, #32]	@ (80026b4 <sys_clock_elapsed+0x38>)
 8002692:	681b      	ldr	r3, [r3, #0]
 8002694:	1ae4      	subs	r4, r4, r3
	uint32_t cyc = elapsed() + unannounced;
 8002696:	f7ff feef 	bl	8002478 <elapsed>
 800269a:	4420      	add	r0, r4
  __ASM volatile ("MSR basepri, %0" : : "r" (basePri) : "memory");
 800269c:	f385 8811 	msr	BASEPRI, r5
 80026a0:	f3bf 8f6f 	isb	sy
	return cyc / CYC_PER_TICK;
 80026a4:	4b04      	ldr	r3, [pc, #16]	@ (80026b8 <sys_clock_elapsed+0x3c>)
 80026a6:	fba3 3000 	umull	r3, r0, r3, r0
}
 80026aa:	0a40      	lsrs	r0, r0, #9
 80026ac:	bd38      	pop	{r3, r4, r5, pc}
 80026ae:	bf00      	nop
 80026b0:	20000080 	.word	0x20000080
 80026b4:	20000078 	.word	0x20000078
 80026b8:	057619f1 	.word	0x057619f1

080026bc <LL_SetFlashLatency>:
  uint32_t timeout;
  uint32_t getlatency;
  uint32_t latency = LL_FLASH_LATENCY_0;  /* default value 0WS */

  /* Frequency cannot be equal to 0 */
  if (HCLK_Frequency == 0U)
 80026bc:	2800      	cmp	r0, #0
 80026be:	f000 809b 	beq.w	80027f8 <LL_SetFlashLatency+0x13c>
  return (uint32_t)(READ_BIT(PWR->VOSCR, PWR_VOSCR_VOS));
 80026c2:	4b4f      	ldr	r3, [pc, #316]	@ (8002800 <LL_SetFlashLatency+0x144>)
 80026c4:	691b      	ldr	r3, [r3, #16]
 80026c6:	f003 0330 	and.w	r3, r3, #48	@ 0x30
  {
    status = ERROR;
  }
  else
  {
    if (LL_PWR_GetRegulVoltageScaling() == LL_PWR_REGU_VOLTAGE_SCALE0)
 80026ca:	2b30      	cmp	r3, #48	@ 0x30
 80026cc:	d01c      	beq.n	8002708 <LL_SetFlashLatency+0x4c>
 80026ce:	4b4c      	ldr	r3, [pc, #304]	@ (8002800 <LL_SetFlashLatency+0x144>)
 80026d0:	691b      	ldr	r3, [r3, #16]
 80026d2:	f003 0330 	and.w	r3, r3, #48	@ 0x30
      else
      {
        status = ERROR;
      }
    }
    else if (LL_PWR_GetRegulVoltageScaling() == LL_PWR_REGU_VOLTAGE_SCALE1)
 80026d6:	2b20      	cmp	r3, #32
 80026d8:	d02a      	beq.n	8002730 <LL_SetFlashLatency+0x74>
 80026da:	4b49      	ldr	r3, [pc, #292]	@ (8002800 <LL_SetFlashLatency+0x144>)
 80026dc:	691b      	ldr	r3, [r3, #16]
 80026de:	f003 0330 	and.w	r3, r3, #48	@ 0x30
      else
      {
        status = ERROR;
      }
    }
    else if (LL_PWR_GetRegulVoltageScaling() == LL_PWR_REGU_VOLTAGE_SCALE2)
 80026e2:	2b10      	cmp	r3, #16
 80026e4:	d038      	beq.n	8002758 <LL_SetFlashLatency+0x9c>
        status = ERROR;
      }
    }
    else /* Voltage Scale 3 */
    {
      if (HCLK_Frequency  <= UTILS_SCALE3_LATENCY0_FREQ)
 80026e6:	4b47      	ldr	r3, [pc, #284]	@ (8002804 <LL_SetFlashLatency+0x148>)
 80026e8:	4298      	cmp	r0, r3
 80026ea:	d97b      	bls.n	80027e4 <LL_SetFlashLatency+0x128>
      {
        /* 0 < HCLK <= 20 => 0WS (1 CPU cycles) : Do nothing, keep latency to default  LL_FLASH_LATENCY_0 */
      }
      else if (HCLK_Frequency <= UTILS_SCALE3_LATENCY1_FREQ)
 80026ec:	4b46      	ldr	r3, [pc, #280]	@ (8002808 <LL_SetFlashLatency+0x14c>)
 80026ee:	4298      	cmp	r0, r3
 80026f0:	d97a      	bls.n	80027e8 <LL_SetFlashLatency+0x12c>
      {
        /* 20 < HCLK <= 40 => 1WS (2 CPU cycles) */
        latency = LL_FLASH_LATENCY_1;
      }
      else if (HCLK_Frequency <= UTILS_SCALE3_LATENCY2_FREQ)
 80026f2:	4b46      	ldr	r3, [pc, #280]	@ (800280c <LL_SetFlashLatency+0x150>)
 80026f4:	4298      	cmp	r0, r3
 80026f6:	d979      	bls.n	80027ec <LL_SetFlashLatency+0x130>
      {
        /* 40 < HCLK <= 60 => 2WS (3 CPU cycles) */
        latency = LL_FLASH_LATENCY_2;
      }
      else if (HCLK_Frequency <= UTILS_SCALE3_LATENCY3_FREQ)
 80026f8:	4b45      	ldr	r3, [pc, #276]	@ (8002810 <LL_SetFlashLatency+0x154>)
 80026fa:	4298      	cmp	r0, r3
 80026fc:	d978      	bls.n	80027f0 <LL_SetFlashLatency+0x134>
      {
        /* 60 < HCLK <= 80 => 3WS (4 CPU cycles) */
        latency = LL_FLASH_LATENCY_3;
      }
      else if (HCLK_Frequency <= UTILS_SCALE3_LATENCY4_FREQ)
 80026fe:	4b45      	ldr	r3, [pc, #276]	@ (8002814 <LL_SetFlashLatency+0x158>)
 8002700:	4298      	cmp	r0, r3
 8002702:	d87b      	bhi.n	80027fc <LL_SetFlashLatency+0x140>
      {
        /* 80 < HCLK <= 100 => 4WS (5 CPU cycles) */
        latency = LL_FLASH_LATENCY_4;
 8002704:	2104      	movs	r1, #4
 8002706:	e039      	b.n	800277c <LL_SetFlashLatency+0xc0>
      if (HCLK_Frequency <= UTILS_SCALE0_LATENCY0_FREQ)
 8002708:	4b43      	ldr	r3, [pc, #268]	@ (8002818 <LL_SetFlashLatency+0x15c>)
 800270a:	4298      	cmp	r0, r3
 800270c:	d935      	bls.n	800277a <LL_SetFlashLatency+0xbe>
      else if ((HCLK_Frequency <= UTILS_SCALE0_LATENCY1_FREQ))
 800270e:	4b43      	ldr	r3, [pc, #268]	@ (800281c <LL_SetFlashLatency+0x160>)
 8002710:	4298      	cmp	r0, r3
 8002712:	d947      	bls.n	80027a4 <LL_SetFlashLatency+0xe8>
      else if (HCLK_Frequency <= UTILS_SCALE0_LATENCY2_FREQ)
 8002714:	4b42      	ldr	r3, [pc, #264]	@ (8002820 <LL_SetFlashLatency+0x164>)
 8002716:	4298      	cmp	r0, r3
 8002718:	d946      	bls.n	80027a8 <LL_SetFlashLatency+0xec>
      else if (HCLK_Frequency <= UTILS_SCALE0_LATENCY3_FREQ)
 800271a:	4b42      	ldr	r3, [pc, #264]	@ (8002824 <LL_SetFlashLatency+0x168>)
 800271c:	4298      	cmp	r0, r3
 800271e:	d945      	bls.n	80027ac <LL_SetFlashLatency+0xf0>
      else if (HCLK_Frequency <= UTILS_SCALE0_LATENCY4_FREQ)
 8002720:	4b41      	ldr	r3, [pc, #260]	@ (8002828 <LL_SetFlashLatency+0x16c>)
 8002722:	4298      	cmp	r0, r3
 8002724:	d944      	bls.n	80027b0 <LL_SetFlashLatency+0xf4>
      else if (HCLK_Frequency <= UTILS_SCALE0_LATENCY5_FREQ)
 8002726:	4b41      	ldr	r3, [pc, #260]	@ (800282c <LL_SetFlashLatency+0x170>)
 8002728:	4298      	cmp	r0, r3
 800272a:	d943      	bls.n	80027b4 <LL_SetFlashLatency+0xf8>
        status = ERROR;
 800272c:	2001      	movs	r0, #1
 800272e:	4770      	bx	lr
      if (HCLK_Frequency <= UTILS_SCALE1_LATENCY0_FREQ)
 8002730:	4b3f      	ldr	r3, [pc, #252]	@ (8002830 <LL_SetFlashLatency+0x174>)
 8002732:	4298      	cmp	r0, r3
 8002734:	d940      	bls.n	80027b8 <LL_SetFlashLatency+0xfc>
      else if (HCLK_Frequency <= UTILS_SCALE1_LATENCY1_FREQ)
 8002736:	4b3f      	ldr	r3, [pc, #252]	@ (8002834 <LL_SetFlashLatency+0x178>)
 8002738:	4298      	cmp	r0, r3
 800273a:	d93f      	bls.n	80027bc <LL_SetFlashLatency+0x100>
      else if (HCLK_Frequency <= UTILS_SCALE1_LATENCY2_FREQ)
 800273c:	4b3e      	ldr	r3, [pc, #248]	@ (8002838 <LL_SetFlashLatency+0x17c>)
 800273e:	4298      	cmp	r0, r3
 8002740:	d93e      	bls.n	80027c0 <LL_SetFlashLatency+0x104>
      else if (HCLK_Frequency <= UTILS_SCALE1_LATENCY3_FREQ)
 8002742:	4b3e      	ldr	r3, [pc, #248]	@ (800283c <LL_SetFlashLatency+0x180>)
 8002744:	4298      	cmp	r0, r3
 8002746:	d93d      	bls.n	80027c4 <LL_SetFlashLatency+0x108>
      else if (HCLK_Frequency <= UTILS_SCALE1_LATENCY4_FREQ)
 8002748:	4b3d      	ldr	r3, [pc, #244]	@ (8002840 <LL_SetFlashLatency+0x184>)
 800274a:	4298      	cmp	r0, r3
 800274c:	d93c      	bls.n	80027c8 <LL_SetFlashLatency+0x10c>
      else if (HCLK_Frequency <= UTILS_SCALE1_LATENCY5_FREQ)
 800274e:	4b3d      	ldr	r3, [pc, #244]	@ (8002844 <LL_SetFlashLatency+0x188>)
 8002750:	4298      	cmp	r0, r3
 8002752:	d93b      	bls.n	80027cc <LL_SetFlashLatency+0x110>
        status = ERROR;
 8002754:	2001      	movs	r0, #1
 8002756:	4770      	bx	lr
      if (HCLK_Frequency <= UTILS_SCALE2_LATENCY0_FREQ)
 8002758:	4b3b      	ldr	r3, [pc, #236]	@ (8002848 <LL_SetFlashLatency+0x18c>)
 800275a:	4298      	cmp	r0, r3
 800275c:	d938      	bls.n	80027d0 <LL_SetFlashLatency+0x114>
      else if (HCLK_Frequency <= UTILS_SCALE2_LATENCY1_FREQ)
 800275e:	4b2b      	ldr	r3, [pc, #172]	@ (800280c <LL_SetFlashLatency+0x150>)
 8002760:	4298      	cmp	r0, r3
 8002762:	d937      	bls.n	80027d4 <LL_SetFlashLatency+0x118>
      else if (HCLK_Frequency <= UTILS_SCALE2_LATENCY2_FREQ)
 8002764:	4b39      	ldr	r3, [pc, #228]	@ (800284c <LL_SetFlashLatency+0x190>)
 8002766:	4298      	cmp	r0, r3
 8002768:	d936      	bls.n	80027d8 <LL_SetFlashLatency+0x11c>
      else if (HCLK_Frequency <= UTILS_SCALE2_LATENCY3_FREQ)
 800276a:	4b39      	ldr	r3, [pc, #228]	@ (8002850 <LL_SetFlashLatency+0x194>)
 800276c:	4298      	cmp	r0, r3
 800276e:	d935      	bls.n	80027dc <LL_SetFlashLatency+0x120>
      else if (HCLK_Frequency <= UTILS_SCALE2_LATENCY4_FREQ)
 8002770:	4b38      	ldr	r3, [pc, #224]	@ (8002854 <LL_SetFlashLatency+0x198>)
 8002772:	4298      	cmp	r0, r3
 8002774:	d934      	bls.n	80027e0 <LL_SetFlashLatency+0x124>
        status = ERROR;
 8002776:	2001      	movs	r0, #1
 8002778:	4770      	bx	lr
  uint32_t latency = LL_FLASH_LATENCY_0;  /* default value 0WS */
 800277a:	2100      	movs	r1, #0
  *         @arg @ref LL_FLASH_LATENCY_15
  * @retval None
  */
__STATIC_INLINE void LL_FLASH_SetLatency(uint32_t Latency)
{
  MODIFY_REG(FLASH->ACR, FLASH_ACR_LATENCY, Latency);
 800277c:	4a36      	ldr	r2, [pc, #216]	@ (8002858 <LL_SetFlashLatency+0x19c>)
 800277e:	6813      	ldr	r3, [r2, #0]
 8002780:	f023 030f 	bic.w	r3, r3, #15
 8002784:	430b      	orrs	r3, r1
 8002786:	6013      	str	r3, [r2, #0]
  {
    LL_FLASH_SetLatency(latency);

    /* Check that the new number of wait states is taken into account to access the Flash
    memory by reading the FLASH_ACR register */
    timeout = 2;
 8002788:	2202      	movs	r2, #2
  *         @arg @ref LL_FLASH_LATENCY_14
  *         @arg @ref LL_FLASH_LATENCY_15
  */
__STATIC_INLINE uint32_t LL_FLASH_GetLatency(void)
{
  return (uint32_t)(READ_BIT(FLASH->ACR, FLASH_ACR_LATENCY));
 800278a:	4b33      	ldr	r3, [pc, #204]	@ (8002858 <LL_SetFlashLatency+0x19c>)
 800278c:	681b      	ldr	r3, [r3, #0]
 800278e:	f003 030f 	and.w	r3, r3, #15
    do
    {
      /* Wait for Flash latency to be updated */
      getlatency = LL_FLASH_GetLatency();
      timeout--;
 8002792:	3a01      	subs	r2, #1
    } while ((getlatency != latency) && (timeout > 0U));
 8002794:	4299      	cmp	r1, r3
 8002796:	d001      	beq.n	800279c <LL_SetFlashLatency+0xe0>
 8002798:	2a00      	cmp	r2, #0
 800279a:	d1f6      	bne.n	800278a <LL_SetFlashLatency+0xce>

    if (getlatency != latency)
 800279c:	4299      	cmp	r1, r3
 800279e:	d029      	beq.n	80027f4 <LL_SetFlashLatency+0x138>
    {
      status = ERROR;
 80027a0:	2001      	movs	r0, #1
    }
  }
  return status;
}
 80027a2:	4770      	bx	lr
        latency = LL_FLASH_LATENCY_1;
 80027a4:	2101      	movs	r1, #1
 80027a6:	e7e9      	b.n	800277c <LL_SetFlashLatency+0xc0>
        latency = LL_FLASH_LATENCY_2;
 80027a8:	2102      	movs	r1, #2
 80027aa:	e7e7      	b.n	800277c <LL_SetFlashLatency+0xc0>
        latency = LL_FLASH_LATENCY_3;
 80027ac:	2103      	movs	r1, #3
 80027ae:	e7e5      	b.n	800277c <LL_SetFlashLatency+0xc0>
        latency = LL_FLASH_LATENCY_4;
 80027b0:	2104      	movs	r1, #4
 80027b2:	e7e3      	b.n	800277c <LL_SetFlashLatency+0xc0>
        latency = LL_FLASH_LATENCY_5;
 80027b4:	2105      	movs	r1, #5
 80027b6:	e7e1      	b.n	800277c <LL_SetFlashLatency+0xc0>
  uint32_t latency = LL_FLASH_LATENCY_0;  /* default value 0WS */
 80027b8:	2100      	movs	r1, #0
 80027ba:	e7df      	b.n	800277c <LL_SetFlashLatency+0xc0>
        latency = LL_FLASH_LATENCY_1;
 80027bc:	2101      	movs	r1, #1
 80027be:	e7dd      	b.n	800277c <LL_SetFlashLatency+0xc0>
        latency = LL_FLASH_LATENCY_2;
 80027c0:	2102      	movs	r1, #2
 80027c2:	e7db      	b.n	800277c <LL_SetFlashLatency+0xc0>
        latency = LL_FLASH_LATENCY_3;
 80027c4:	2103      	movs	r1, #3
 80027c6:	e7d9      	b.n	800277c <LL_SetFlashLatency+0xc0>
        latency = LL_FLASH_LATENCY_4;
 80027c8:	2104      	movs	r1, #4
 80027ca:	e7d7      	b.n	800277c <LL_SetFlashLatency+0xc0>
        latency = LL_FLASH_LATENCY_5;
 80027cc:	2105      	movs	r1, #5
 80027ce:	e7d5      	b.n	800277c <LL_SetFlashLatency+0xc0>
  uint32_t latency = LL_FLASH_LATENCY_0;  /* default value 0WS */
 80027d0:	2100      	movs	r1, #0
 80027d2:	e7d3      	b.n	800277c <LL_SetFlashLatency+0xc0>
        latency = LL_FLASH_LATENCY_1;
 80027d4:	2101      	movs	r1, #1
 80027d6:	e7d1      	b.n	800277c <LL_SetFlashLatency+0xc0>
        latency = LL_FLASH_LATENCY_2;
 80027d8:	2102      	movs	r1, #2
 80027da:	e7cf      	b.n	800277c <LL_SetFlashLatency+0xc0>
        latency = LL_FLASH_LATENCY_3;
 80027dc:	2103      	movs	r1, #3
 80027de:	e7cd      	b.n	800277c <LL_SetFlashLatency+0xc0>
        latency = LL_FLASH_LATENCY_4;
 80027e0:	2104      	movs	r1, #4
 80027e2:	e7cb      	b.n	800277c <LL_SetFlashLatency+0xc0>
  uint32_t latency = LL_FLASH_LATENCY_0;  /* default value 0WS */
 80027e4:	2100      	movs	r1, #0
 80027e6:	e7c9      	b.n	800277c <LL_SetFlashLatency+0xc0>
        latency = LL_FLASH_LATENCY_1;
 80027e8:	2101      	movs	r1, #1
 80027ea:	e7c7      	b.n	800277c <LL_SetFlashLatency+0xc0>
        latency = LL_FLASH_LATENCY_2;
 80027ec:	2102      	movs	r1, #2
 80027ee:	e7c5      	b.n	800277c <LL_SetFlashLatency+0xc0>
        latency = LL_FLASH_LATENCY_3;
 80027f0:	2103      	movs	r1, #3
 80027f2:	e7c3      	b.n	800277c <LL_SetFlashLatency+0xc0>
    if (getlatency != latency)
 80027f4:	2000      	movs	r0, #0
 80027f6:	4770      	bx	lr
    status = ERROR;
 80027f8:	2001      	movs	r0, #1
 80027fa:	4770      	bx	lr
        status = ERROR;
 80027fc:	2001      	movs	r0, #1
 80027fe:	4770      	bx	lr
 8002800:	44020800 	.word	0x44020800
 8002804:	01312d00 	.word	0x01312d00
 8002808:	02625a00 	.word	0x02625a00
 800280c:	03938700 	.word	0x03938700
 8002810:	04c4b400 	.word	0x04c4b400
 8002814:	05f5e100 	.word	0x05f5e100
 8002818:	0280de80 	.word	0x0280de80
 800281c:	0501bd00 	.word	0x0501bd00
 8002820:	07829b80 	.word	0x07829b80
 8002824:	0a037a00 	.word	0x0a037a00
 8002828:	0c845880 	.word	0x0c845880
 800282c:	0ee6b280 	.word	0x0ee6b280
 8002830:	0206cc80 	.word	0x0206cc80
 8002834:	040d9900 	.word	0x040d9900
 8002838:	06146580 	.word	0x06146580
 800283c:	081b3200 	.word	0x081b3200
 8002840:	0a21fe80 	.word	0x0a21fe80
 8002844:	0bebc200 	.word	0x0bebc200
 8002848:	01c9c380 	.word	0x01c9c380
 800284c:	055d4a80 	.word	0x055d4a80
 8002850:	07270e00 	.word	0x07270e00
 8002854:	08f0d180 	.word	0x08f0d180
 8002858:	40022000 	.word	0x40022000

0800285c <z_fatal_error>:
	arch_system_halt(reason);
}
/* LCOV_EXCL_STOP */

void z_fatal_error(unsigned int reason, const struct arch_esf *esf)
{
 800285c:	b538      	push	{r3, r4, r5, lr}
  __ASM volatile ("MRS %0, basepri" : "=r" (result) );
 800285e:	f3ef 8511 	mrs	r5, BASEPRI
  __ASM volatile ("MSR basepri_max, %0" : : "r" (basePri) : "memory");
 8002862:	2310      	movs	r3, #16
 8002864:	f383 8812 	msr	BASEPRI_MAX, r3
 8002868:	f3bf 8f6f 	isb	sy
	/* We can't allow this code to be preempted, but don't need to
	 * synchronize between CPUs, so an arch-layer lock is
	 * appropriate.
	 */
	unsigned int key = arch_irq_lock();
	struct k_thread *thread = IS_ENABLED(CONFIG_MULTITHREADING) ?
 800286c:	4b05      	ldr	r3, [pc, #20]	@ (8002884 <z_fatal_error+0x28>)
 800286e:	689c      	ldr	r4, [r3, #8]
		LOG_ERR("Current thread: %p (%s)", thread, thread_name_get(thread));
	}

	coredump(reason, esf, thread);

	k_sys_fatal_error_handler(reason, esf);
 8002870:	f002 fcd0 	bl	8005214 <k_sys_fatal_error_handler>
  __ASM volatile ("MSR basepri, %0" : : "r" (basePri) : "memory");
 8002874:	f385 8811 	msr	BASEPRI, r5
 8002878:	f3bf 8f6f 	isb	sy
 800287c:	4620      	mov	r0, r4
 800287e:	f7fe fba1 	bl	8000fc4 <z_impl_k_thread_abort>
	arch_irq_unlock(key);

	if (IS_ENABLED(CONFIG_MULTITHREADING)) {
		k_thread_abort(thread);
	}
}
 8002882:	bd38      	pop	{r3, r4, r5, pc}
 8002884:	20000400 	.word	0x20000400

08002888 <init_idle_thread>:
} /* LCOV_EXCL_LINE ... because we just dumped final coverage data */

#if defined(CONFIG_MULTITHREADING)
__boot_func
static void init_idle_thread(int i)
{
 8002888:	b510      	push	{r4, lr}
 800288a:	b086      	sub	sp, #24
	struct k_thread *thread = &z_idle_threads[i];
 800288c:	23b0      	movs	r3, #176	@ 0xb0
 800288e:	4c10      	ldr	r4, [pc, #64]	@ (80028d0 <init_idle_thread+0x48>)
 8002890:	fb03 4400 	mla	r4, r3, r0, r4
	k_thread_stack_t *stack = z_idle_stacks[i];
 8002894:	eb00 0c80 	add.w	ip, r0, r0, lsl #2
#else
	char *tname = NULL;
#endif /* CONFIG_THREAD_NAME */

	z_setup_new_thread(thread, stack,
			  stack_size, idle, &_kernel.cpus[i],
 8002898:	4b0e      	ldr	r3, [pc, #56]	@ (80028d4 <init_idle_thread+0x4c>)
 800289a:	eb03 038c 	add.w	r3, r3, ip, lsl #2
	z_setup_new_thread(thread, stack,
 800289e:	4a0e      	ldr	r2, [pc, #56]	@ (80028d8 <init_idle_thread+0x50>)
 80028a0:	9205      	str	r2, [sp, #20]
 80028a2:	2201      	movs	r2, #1
 80028a4:	9204      	str	r2, [sp, #16]
 80028a6:	220f      	movs	r2, #15
 80028a8:	9203      	str	r2, [sp, #12]
 80028aa:	2200      	movs	r2, #0
 80028ac:	9202      	str	r2, [sp, #8]
 80028ae:	9201      	str	r2, [sp, #4]
 80028b0:	9300      	str	r3, [sp, #0]
 80028b2:	4b0a      	ldr	r3, [pc, #40]	@ (80028dc <init_idle_thread+0x54>)
 80028b4:	f44f 72a0 	mov.w	r2, #320	@ 0x140
 80028b8:	4909      	ldr	r1, [pc, #36]	@ (80028e0 <init_idle_thread+0x58>)
 80028ba:	eb01 118c 	add.w	r1, r1, ip, lsl #6
 80028be:	4620      	mov	r0, r4
 80028c0:	f000 f922 	bl	8002b08 <z_setup_new_thread>
	thread->base.thread_state |= _THREAD_SLEEPING;
}

static inline void z_mark_thread_as_not_sleeping(struct k_thread *thread)
{
	thread->base.thread_state &= ~_THREAD_SLEEPING;
 80028c4:	7c23      	ldrb	r3, [r4, #16]
 80028c6:	f023 0304 	bic.w	r3, r3, #4
 80028ca:	7423      	strb	r3, [r4, #16]
	z_mark_thread_as_not_sleeping(thread);

#ifdef CONFIG_SMP
	thread->base.is_idle = 1U;
#endif /* CONFIG_SMP */
}
 80028cc:	b006      	add	sp, #24
 80028ce:	bd10      	pop	{r4, pc}
 80028d0:	20000088 	.word	0x20000088
 80028d4:	20000400 	.word	0x20000400
 80028d8:	080060f8 	.word	0x080060f8
 80028dc:	0800521b 	.word	0x0800521b
 80028e0:	20000c38 	.word	0x20000c38

080028e4 <z_sys_init_run_level>:
{
 80028e4:	b538      	push	{r3, r4, r5, lr}
 80028e6:	4605      	mov	r5, r0
	for (entry = levels[level]; entry < levels[level+1]; entry++) {
 80028e8:	4b0b      	ldr	r3, [pc, #44]	@ (8002918 <z_sys_init_run_level+0x34>)
 80028ea:	f853 4020 	ldr.w	r4, [r3, r0, lsl #2]
 80028ee:	e002      	b.n	80028f6 <z_sys_init_run_level+0x12>
			result = entry->init_fn();
 80028f0:	6823      	ldr	r3, [r4, #0]
 80028f2:	4798      	blx	r3
	for (entry = levels[level]; entry < levels[level+1]; entry++) {
 80028f4:	3408      	adds	r4, #8
 80028f6:	1c6b      	adds	r3, r5, #1
 80028f8:	4a07      	ldr	r2, [pc, #28]	@ (8002918 <z_sys_init_run_level+0x34>)
 80028fa:	f852 3023 	ldr.w	r3, [r2, r3, lsl #2]
 80028fe:	42a3      	cmp	r3, r4
 8002900:	d909      	bls.n	8002916 <z_sys_init_run_level+0x32>
		const struct device *dev = entry->dev;
 8002902:	6860      	ldr	r0, [r4, #4]
		if (dev != NULL) {
 8002904:	2800      	cmp	r0, #0
 8002906:	d0f3      	beq.n	80028f0 <z_sys_init_run_level+0xc>
			if ((dev->flags & DEVICE_FLAG_INIT_DEFERRED) == 0U) {
 8002908:	7e03      	ldrb	r3, [r0, #24]
 800290a:	f013 0f01 	tst.w	r3, #1
 800290e:	d1f1      	bne.n	80028f4 <z_sys_init_run_level+0x10>
				result = do_device_init(dev);
 8002910:	f002 fc4f 	bl	80051b2 <do_device_init>
 8002914:	e7ee      	b.n	80028f4 <z_sys_init_run_level+0x10>
}
 8002916:	bd38      	pop	{r3, r4, r5, pc}
 8002918:	080063ac 	.word	0x080063ac

0800291c <thread_schedule_new>:
{
 800291c:	b508      	push	{r3, lr}
	if (K_TIMEOUT_EQ(delay, K_NO_WAIT)) {
 800291e:	ea53 0102 	orrs.w	r1, r3, r2
 8002922:	d102      	bne.n	800292a <thread_schedule_new+0xe>
	z_impl_k_wakeup(thread);
 8002924:	f000 fb46 	bl	8002fb4 <z_impl_k_wakeup>
}
 8002928:	bd08      	pop	{r3, pc}

extern void z_thread_timeout(struct _timeout *timeout);

static inline k_ticks_t z_add_thread_timeout(struct k_thread *thread, k_timeout_t ticks)
{
	return z_add_timeout(&thread->base.timeout, z_thread_timeout, ticks);
 800292a:	4902      	ldr	r1, [pc, #8]	@ (8002934 <thread_schedule_new+0x18>)
 800292c:	3018      	adds	r0, #24
 800292e:	f000 fced 	bl	800330c <z_add_timeout>
 8002932:	e7f9      	b.n	8002928 <thread_schedule_new+0xc>
 8002934:	08005389 	.word	0x08005389

08002938 <z_init_static_threads>:
{
 8002938:	b510      	push	{r4, lr}
 800293a:	b086      	sub	sp, #24
	STRUCT_SECTION_FOREACH(_static_thread_data, thread_data) {
 800293c:	4c18      	ldr	r4, [pc, #96]	@ (80029a0 <z_init_static_threads+0x68>)
 800293e:	e014      	b.n	800296a <z_init_static_threads+0x32>
		z_setup_new_thread(
 8002940:	6a63      	ldr	r3, [r4, #36]	@ 0x24
 8002942:	9305      	str	r3, [sp, #20]
 8002944:	6a23      	ldr	r3, [r4, #32]
 8002946:	9304      	str	r3, [sp, #16]
 8002948:	69e3      	ldr	r3, [r4, #28]
 800294a:	9303      	str	r3, [sp, #12]
 800294c:	69a3      	ldr	r3, [r4, #24]
 800294e:	9302      	str	r3, [sp, #8]
 8002950:	6963      	ldr	r3, [r4, #20]
 8002952:	9301      	str	r3, [sp, #4]
 8002954:	6923      	ldr	r3, [r4, #16]
 8002956:	9300      	str	r3, [sp, #0]
 8002958:	68e3      	ldr	r3, [r4, #12]
 800295a:	68a2      	ldr	r2, [r4, #8]
 800295c:	6861      	ldr	r1, [r4, #4]
 800295e:	6820      	ldr	r0, [r4, #0]
 8002960:	f000 f8d2 	bl	8002b08 <z_setup_new_thread>
		thread_data->init_thread->init_data = thread_data;
 8002964:	6823      	ldr	r3, [r4, #0]
 8002966:	655c      	str	r4, [r3, #84]	@ 0x54
	STRUCT_SECTION_FOREACH(_static_thread_data, thread_data) {
 8002968:	3430      	adds	r4, #48	@ 0x30
 800296a:	4b0e      	ldr	r3, [pc, #56]	@ (80029a4 <z_init_static_threads+0x6c>)
 800296c:	429c      	cmp	r4, r3
 800296e:	d3e7      	bcc.n	8002940 <z_init_static_threads+0x8>
	k_sched_lock();
 8002970:	f000 face 	bl	8002f10 <k_sched_lock>
	STRUCT_SECTION_FOREACH(_static_thread_data, thread_data) {
 8002974:	4c0a      	ldr	r4, [pc, #40]	@ (80029a0 <z_init_static_threads+0x68>)
 8002976:	e003      	b.n	8002980 <z_init_static_threads+0x48>
			thread_schedule_new(thread_data->init_thread,
 8002978:	6820      	ldr	r0, [r4, #0]
 800297a:	f7ff ffcf 	bl	800291c <thread_schedule_new>
	STRUCT_SECTION_FOREACH(_static_thread_data, thread_data) {
 800297e:	3430      	adds	r4, #48	@ 0x30
 8002980:	4b08      	ldr	r3, [pc, #32]	@ (80029a4 <z_init_static_threads+0x6c>)
 8002982:	429c      	cmp	r4, r3
 8002984:	d208      	bcs.n	8002998 <z_init_static_threads+0x60>
		k_timeout_t init_delay = Z_THREAD_INIT_DELAY(thread_data);
 8002986:	6aa2      	ldr	r2, [r4, #40]	@ 0x28
 8002988:	6ae3      	ldr	r3, [r4, #44]	@ 0x2c
		if (!K_TIMEOUT_EQ(init_delay, K_FOREVER)) {
 800298a:	f1b3 3fff 	cmp.w	r3, #4294967295
 800298e:	bf08      	it	eq
 8002990:	f1b2 3fff 	cmpeq.w	r2, #4294967295
 8002994:	d0f3      	beq.n	800297e <z_init_static_threads+0x46>
 8002996:	e7ef      	b.n	8002978 <z_init_static_threads+0x40>
	k_sched_unlock();
 8002998:	f000 fad2 	bl	8002f40 <k_sched_unlock>
}
 800299c:	b006      	add	sp, #24
 800299e:	bd10      	pop	{r4, pc}
 80029a0:	08005ab4 	.word	0x08005ab4
 80029a4:	08005ab4 	.word	0x08005ab4

080029a8 <bg_thread_main>:
{
 80029a8:	b508      	push	{r3, lr}
	z_sys_post_kernel = true;
 80029aa:	4b0a      	ldr	r3, [pc, #40]	@ (80029d4 <bg_thread_main+0x2c>)
 80029ac:	2201      	movs	r2, #1
 80029ae:	701a      	strb	r2, [r3, #0]
	z_sys_init_run_level(INIT_LEVEL_POST_KERNEL);
 80029b0:	2003      	movs	r0, #3
 80029b2:	f7ff ff97 	bl	80028e4 <z_sys_init_run_level>
	boot_banner();
 80029b6:	f000 fda5 	bl	8003504 <boot_banner>
	z_sys_init_run_level(INIT_LEVEL_APPLICATION);
 80029ba:	2004      	movs	r0, #4
 80029bc:	f7ff ff92 	bl	80028e4 <z_sys_init_run_level>
	z_init_static_threads();
 80029c0:	f7ff ffba 	bl	8002938 <z_init_static_threads>
	(void)main();
 80029c4:	f7fd fe2c 	bl	8000620 <main>
 * Exceptions raised by this thread may be recoverable.
 * (This is the default tag for a thread.)
 */
static inline void z_thread_essential_clear(struct k_thread *thread)
{
	thread->base.user_options &= ~K_ESSENTIAL;
 80029c8:	4a03      	ldr	r2, [pc, #12]	@ (80029d8 <bg_thread_main+0x30>)
 80029ca:	8993      	ldrh	r3, [r2, #12]
 80029cc:	f023 0301 	bic.w	r3, r3, #1
 80029d0:	8193      	strh	r3, [r2, #12]
} /* LCOV_EXCL_LINE ... because we just dumped final coverage data */
 80029d2:	bd08      	pop	{r3, pc}
 80029d4:	20000435 	.word	0x20000435
 80029d8:	20000138 	.word	0x20000138

080029dc <switch_to_main_thread>:
	return stack_ptr;
}

__boot_func
static FUNC_NORETURN void switch_to_main_thread(char *stack_ptr)
{
 80029dc:	b508      	push	{r3, lr}
 80029de:	4601      	mov	r1, r0
#ifdef CONFIG_ARCH_HAS_CUSTOM_SWAP_TO_MAIN
	arch_switch_to_main_thread(&z_main_thread, stack_ptr, bg_thread_main);
 80029e0:	4a01      	ldr	r2, [pc, #4]	@ (80029e8 <switch_to_main_thread+0xc>)
 80029e2:	4802      	ldr	r0, [pc, #8]	@ (80029ec <switch_to_main_thread+0x10>)
 80029e4:	f7fe fab6 	bl	8000f54 <arch_switch_to_main_thread>
	 * current fake thread is not on a wait queue or ready queue, so it
	 * will never be rescheduled in.
	 */
	z_swap_unlocked();
#endif /* CONFIG_ARCH_HAS_CUSTOM_SWAP_TO_MAIN */
	CODE_UNREACHABLE; /* LCOV_EXCL_LINE */
 80029e8:	080029a9 	.word	0x080029a9
 80029ec:	20000138 	.word	0x20000138

080029f0 <z_init_cpu>:
{
 80029f0:	b510      	push	{r4, lr}
 80029f2:	4604      	mov	r4, r0
	init_idle_thread(id);
 80029f4:	f7ff ff48 	bl	8002888 <init_idle_thread>
	_kernel.cpus[id].idle_thread = &z_idle_threads[id];
 80029f8:	23b0      	movs	r3, #176	@ 0xb0
 80029fa:	490a      	ldr	r1, [pc, #40]	@ (8002a24 <z_init_cpu+0x34>)
 80029fc:	fb03 1104 	mla	r1, r3, r4, r1
 8002a00:	4a09      	ldr	r2, [pc, #36]	@ (8002a28 <z_init_cpu+0x38>)
 8002a02:	eb04 0384 	add.w	r3, r4, r4, lsl #2
 8002a06:	eb02 0383 	add.w	r3, r2, r3, lsl #2
 8002a0a:	60d9      	str	r1, [r3, #12]
	_kernel.cpus[id].id = id;
 8002a0c:	741c      	strb	r4, [r3, #16]
		(K_KERNEL_STACK_BUFFER(z_interrupt_stacks[id]) +
 8002a0e:	4b07      	ldr	r3, [pc, #28]	@ (8002a2c <z_init_cpu+0x3c>)
 8002a10:	eb03 23c4 	add.w	r3, r3, r4, lsl #11
 8002a14:	f503 6300 	add.w	r3, r3, #2048	@ 0x800
	_kernel.cpus[id].irq_stack =
 8002a18:	eb04 0484 	add.w	r4, r4, r4, lsl #2
 8002a1c:	eb02 0284 	add.w	r2, r2, r4, lsl #2
 8002a20:	6053      	str	r3, [r2, #4]
}
 8002a22:	bd10      	pop	{r4, pc}
 8002a24:	20000088 	.word	0x20000088
 8002a28:	20000400 	.word	0x20000400
 8002a2c:	20000438 	.word	0x20000438

08002a30 <prepare_multithreading>:
{
 8002a30:	b570      	push	{r4, r5, r6, lr}
 8002a32:	b086      	sub	sp, #24
	z_sched_init();
 8002a34:	f000 fab6 	bl	8002fa4 <z_sched_init>
	_kernel.ready_q.cache = &z_main_thread;
 8002a38:	4d10      	ldr	r5, [pc, #64]	@ (8002a7c <prepare_multithreading+0x4c>)
 8002a3a:	4b11      	ldr	r3, [pc, #68]	@ (8002a80 <prepare_multithreading+0x50>)
 8002a3c:	615d      	str	r5, [r3, #20]
	stack_ptr = z_setup_new_thread(&z_main_thread, z_main_stack,
 8002a3e:	4b11      	ldr	r3, [pc, #68]	@ (8002a84 <prepare_multithreading+0x54>)
 8002a40:	9305      	str	r3, [sp, #20]
 8002a42:	2301      	movs	r3, #1
 8002a44:	9304      	str	r3, [sp, #16]
 8002a46:	2400      	movs	r4, #0
 8002a48:	9403      	str	r4, [sp, #12]
 8002a4a:	9402      	str	r4, [sp, #8]
 8002a4c:	9401      	str	r4, [sp, #4]
 8002a4e:	9400      	str	r4, [sp, #0]
 8002a50:	4b0d      	ldr	r3, [pc, #52]	@ (8002a88 <prepare_multithreading+0x58>)
 8002a52:	f44f 6280 	mov.w	r2, #1024	@ 0x400
 8002a56:	490d      	ldr	r1, [pc, #52]	@ (8002a8c <prepare_multithreading+0x5c>)
 8002a58:	4628      	mov	r0, r5
 8002a5a:	f000 f855 	bl	8002b08 <z_setup_new_thread>
 8002a5e:	4606      	mov	r6, r0
	thread->base.thread_state &= ~_THREAD_SLEEPING;
 8002a60:	7c2b      	ldrb	r3, [r5, #16]
 8002a62:	f023 0304 	bic.w	r3, r3, #4
 8002a66:	742b      	strb	r3, [r5, #16]
	z_ready_thread(&z_main_thread);
 8002a68:	4628      	mov	r0, r5
 8002a6a:	f002 fc58 	bl	800531e <z_ready_thread>
	z_init_cpu(0);
 8002a6e:	4620      	mov	r0, r4
 8002a70:	f7ff ffbe 	bl	80029f0 <z_init_cpu>
}
 8002a74:	4630      	mov	r0, r6
 8002a76:	b006      	add	sp, #24
 8002a78:	bd70      	pop	{r4, r5, r6, pc}
 8002a7a:	bf00      	nop
 8002a7c:	20000138 	.word	0x20000138
 8002a80:	20000400 	.word	0x20000400
 8002a84:	08006100 	.word	0x08006100
 8002a88:	080029a9 	.word	0x080029a9
 8002a8c:	20000d78 	.word	0x20000d78

08002a90 <z_cstart>:
 * @return Does not return
 */
__boot_func
FUNC_NO_STACK_PROTECTOR
FUNC_NORETURN void z_cstart(void)
{
 8002a90:	b508      	push	{r3, lr}
	/* gcov hook needed to get the coverage report.*/
	gcov_static_init();

	/* initialize early init calls */
	z_sys_init_run_level(INIT_LEVEL_EARLY);
 8002a92:	2000      	movs	r0, #0
 8002a94:	f7ff ff26 	bl	80028e4 <z_sys_init_run_level>
 * pointer) register, and switched to automatically when taking an exception.
 *
 */
static ALWAYS_INLINE void z_arm_interrupt_stack_setup(void)
{
	uint32_t msp = (uint32_t)(K_KERNEL_STACK_BUFFER(z_interrupt_stacks[0])) +
 8002a98:	4b18      	ldr	r3, [pc, #96]	@ (8002afc <z_cstart+0x6c>)
 8002a9a:	f503 6200 	add.w	r2, r3, #2048	@ 0x800
  __ASM volatile ("MSR msp, %0" : : "r" (topOfMainStack) : );
 8002a9e:	f382 8808 	msr	MSP, r2
     !(defined (__ARM_ARCH_8_1M_MAIN__ ) && (__ARM_ARCH_8_1M_MAIN__ == 1)) && \
     (!defined (__ARM_FEATURE_CMSE  ) || (__ARM_FEATURE_CMSE   < 3)))
  /* without main extensions, the non-secure MSPLIM is RAZ/WI */
  (void)MainStackPtrLimit;
#else
  __ASM volatile ("MSR msplim, %0" : : "r" (MainStackPtrLimit));
 8002aa2:	f383 880a 	msr	MSPLIM, r3
 8002aa6:	4c16      	ldr	r4, [pc, #88]	@ (8002b00 <z_cstart+0x70>)
 8002aa8:	23f0      	movs	r3, #240	@ 0xf0
 8002aaa:	f884 3022 	strb.w	r3, [r4, #34]	@ 0x22
 8002aae:	2300      	movs	r3, #0
 8002ab0:	77e3      	strb	r3, [r4, #31]
 8002ab2:	7623      	strb	r3, [r4, #24]
 8002ab4:	7663      	strb	r3, [r4, #25]
 8002ab6:	76a3      	strb	r3, [r4, #26]
 8002ab8:	f884 3020 	strb.w	r3, [r4, #32]
#if defined(CONFIG_ARM_SECURE_FIRMWARE)
	NVIC_SetPriority(SecureFault_IRQn, _EXC_FAULT_PRIO);
#endif /* CONFIG_ARM_SECURE_FIRMWARE */

	/* Enable Usage, Mem, & Bus Faults */
	SCB->SHCSR |=
 8002abc:	6a63      	ldr	r3, [r4, #36]	@ 0x24
 8002abe:	f443 23e0 	orr.w	r3, r3, #458752	@ 0x70000
 8002ac2:	6263      	str	r3, [r4, #36]	@ 0x24

static ALWAYS_INLINE void arch_kernel_init(void)
{
	z_arm_interrupt_stack_setup();
	z_arm_exc_setup();
	z_arm_fault_init();
 8002ac4:	f7fe f98c 	bl	8000de0 <z_arm_fault_init>
	z_arm_cpu_idle_init();
 8002ac8:	f7fe fa66 	bl	8000f98 <z_arm_cpu_idle_init>
static ALWAYS_INLINE void z_arm_clear_faults(void)
{
#if defined(CONFIG_ARMV6_M_ARMV8_M_BASELINE)
#elif defined(CONFIG_ARMV7_M_ARMV8_M_MAINLINE)
	/* Reset all faults */
	SCB->CFSR = SCB_CFSR_USGFAULTSR_Msk | SCB_CFSR_MEMFAULTSR_Msk | SCB_CFSR_BUSFAULTSR_Msk;
 8002acc:	f04f 33ff 	mov.w	r3, #4294967295
 8002ad0:	62a3      	str	r3, [r4, #40]	@ 0x28

	/* Clear all Hard Faults - HFSR is write-one-to-clear */
	SCB->HFSR = 0xffffffff;
 8002ad2:	62e3      	str	r3, [r4, #44]	@ 0x2c
	z_arm_clear_faults();
#if defined(CONFIG_ARM_MPU)
	z_arm_mpu_init();
 8002ad4:	f7fe fc74 	bl	80013c0 <z_arm_mpu_init>
	 * to set up access permissions for fixed memory sections, such
	 * as Application Memory or No-Cacheable SRAM area.
	 *
	 * This function is invoked once, upon system initialization.
	 */
	z_arm_configure_static_mpu_regions();
 8002ad8:	f7fe faf2 	bl	80010c0 <z_arm_configure_static_mpu_regions>
	arch_kernel_init();

	LOG_CORE_INIT();

#if defined(CONFIG_MULTITHREADING)
	z_dummy_thread_init(&_thread_dummy);
 8002adc:	4809      	ldr	r0, [pc, #36]	@ (8002b04 <z_cstart+0x74>)
 8002ade:	f000 f875 	bl	8002bcc <z_dummy_thread_init>
#endif /* CONFIG_MULTITHREADING */
	/* do any necessary initialization of static devices */
	z_device_state_init();

	soc_early_init_hook();
 8002ae2:	f7fd fe87 	bl	80007f4 <soc_early_init_hook>

	board_early_init_hook();

	/* perform basic hardware initialization */
	z_sys_init_run_level(INIT_LEVEL_PRE_KERNEL_1);
 8002ae6:	2001      	movs	r0, #1
 8002ae8:	f7ff fefc 	bl	80028e4 <z_sys_init_run_level>
#if defined(CONFIG_SMP)
	arch_smp_init();
#endif
	z_sys_init_run_level(INIT_LEVEL_PRE_KERNEL_2);
 8002aec:	2002      	movs	r0, #2
 8002aee:	f7ff fef9 	bl	80028e4 <z_sys_init_run_level>
	timing_init();
	timing_start();
#endif /* CONFIG_TIMING_FUNCTIONS_NEED_AT_BOOT */

#ifdef CONFIG_MULTITHREADING
	switch_to_main_thread(prepare_multithreading());
 8002af2:	f7ff ff9d 	bl	8002a30 <prepare_multithreading>
 8002af6:	f7ff ff71 	bl	80029dc <switch_to_main_thread>
 8002afa:	bf00      	nop
 8002afc:	20000438 	.word	0x20000438
 8002b00:	e000ed00 	.word	0xe000ed00
 8002b04:	200001e8 	.word	0x200001e8

08002b08 <z_setup_new_thread>:
char *z_setup_new_thread(struct k_thread *new_thread,
			 k_thread_stack_t *stack, size_t stack_size,
			 k_thread_entry_t entry,
			 void *p1, void *p2, void *p3,
			 int prio, uint32_t options, const char *name)
{
 8002b08:	e92d 4ff0 	stmdb	sp!, {r4, r5, r6, r7, r8, r9, sl, fp, lr}
 8002b0c:	b085      	sub	sp, #20
 8002b0e:	4604      	mov	r4, r0
 8002b10:	460f      	mov	r7, r1
 8002b12:	4615      	mov	r5, r2
 8002b14:	461e      	mov	r6, r3
 8002b16:	f8dd a038 	ldr.w	sl, [sp, #56]	@ 0x38
 8002b1a:	f8dd 903c 	ldr.w	r9, [sp, #60]	@ 0x3c
 8002b1e:	f8dd 8040 	ldr.w	r8, [sp, #64]	@ 0x40
 8002b22:	f8dd b04c 	ldr.w	fp, [sp, #76]	@ 0x4c
	SYS_DLIST_FOR_EACH_CONTAINER_SAFE(&((wq)->waitq), thread_ptr, \
					  loop_ptr, base.qnode_dlist)

static inline void z_waitq_init(_wait_q_t *w)
{
	sys_dlist_init(&w->waitq);
 8002b26:	f100 0358 	add.w	r3, r0, #88	@ 0x58
 * @param list the doubly-linked list
 */

static inline void sys_dlist_init(sys_dlist_t *list)
{
	list->head = (sys_dnode_t *)list;
 8002b2a:	6583      	str	r3, [r0, #88]	@ 0x58
	list->tail = (sys_dnode_t *)list;
 8002b2c:	65c3      	str	r3, [r0, #92]	@ 0x5c
	k_object_access_grant(new_thread, new_thread);
#endif /* CONFIG_USERSPACE */
	z_waitq_init(&new_thread->join_queue);

	/* Initialize various struct k_thread members */
	z_init_thread_base(&new_thread->base, prio, _THREAD_SLEEPING, options);
 8002b2e:	9b12      	ldr	r3, [sp, #72]	@ 0x48
 8002b30:	2204      	movs	r2, #4
 8002b32:	9911      	ldr	r1, [sp, #68]	@ 0x44
 8002b34:	f002 fb93 	bl	800525e <z_init_thread_base>
	stack_ptr = setup_thread_stack(new_thread, stack, stack_size);
 8002b38:	462a      	mov	r2, r5
 8002b3a:	4639      	mov	r1, r7
 8002b3c:	4620      	mov	r0, r4
 8002b3e:	f002 fb79 	bl	8005234 <setup_thread_stack>
 8002b42:	4605      	mov	r5, r0
	__ASSERT_NO_MSG(!sys_cache_is_mem_coherent(stack));
#endif  /* CONFIG_DYNAMIC_THREAD */

#endif /* CONFIG_KERNEL_COHERENCE */

	arch_new_thread(new_thread, stack, stack_ptr, entry, p1, p2, p3);
 8002b44:	f8cd 8008 	str.w	r8, [sp, #8]
 8002b48:	f8cd 9004 	str.w	r9, [sp, #4]
 8002b4c:	f8cd a000 	str.w	sl, [sp]
 8002b50:	4633      	mov	r3, r6
 8002b52:	4602      	mov	r2, r0
 8002b54:	4639      	mov	r1, r7
 8002b56:	4620      	mov	r0, r4
 8002b58:	f7fe f9da 	bl	8000f10 <arch_new_thread>

	/* static threads overwrite it afterwards with real value */
	new_thread->init_data = NULL;
 8002b5c:	2300      	movs	r3, #0
 8002b5e:	6563      	str	r3, [r4, #84]	@ 0x54
#ifdef CONFIG_THREAD_CUSTOM_DATA
	/* Initialize custom data field (value is opaque to kernel) */
	new_thread->custom_data = NULL;
#endif /* CONFIG_THREAD_CUSTOM_DATA */
#ifdef CONFIG_THREAD_MONITOR
	new_thread->entry.pEntry = entry;
 8002b60:	6626      	str	r6, [r4, #96]	@ 0x60
	new_thread->entry.parameter1 = p1;
 8002b62:	f8c4 a064 	str.w	sl, [r4, #100]	@ 0x64
	new_thread->entry.parameter2 = p2;
 8002b66:	f8c4 9068 	str.w	r9, [r4, #104]	@ 0x68
	new_thread->entry.parameter3 = p3;
 8002b6a:	f8c4 806c 	str.w	r8, [r4, #108]	@ 0x6c
  __ASM volatile ("MRS %0, basepri" : "=r" (result) );
 8002b6e:	f3ef 8211 	mrs	r2, BASEPRI
  __ASM volatile ("MSR basepri_max, %0" : : "r" (basePri) : "memory");
 8002b72:	2310      	movs	r3, #16
 8002b74:	f383 8812 	msr	BASEPRI_MAX, r3
 8002b78:	f3bf 8f6f 	isb	sy

	k_spinlock_key_t key = k_spin_lock(&z_thread_monitor_lock);

	new_thread->next_thread = _kernel.threads;
 8002b7c:	4b12      	ldr	r3, [pc, #72]	@ (8002bc8 <z_setup_new_thread+0xc0>)
 8002b7e:	6a19      	ldr	r1, [r3, #32]
 8002b80:	6721      	str	r1, [r4, #112]	@ 0x70
	_kernel.threads = new_thread;
 8002b82:	621c      	str	r4, [r3, #32]
  __ASM volatile ("MSR basepri, %0" : : "r" (basePri) : "memory");
 8002b84:	f382 8811 	msr	BASEPRI, r2
 8002b88:	f3bf 8f6f 	isb	sy
	k_spin_unlock(&z_thread_monitor_lock, key);
#endif /* CONFIG_THREAD_MONITOR */
#ifdef CONFIG_THREAD_NAME
	if (name != NULL) {
 8002b8c:	f1bb 0f00 	cmp.w	fp, #0
 8002b90:	d013      	beq.n	8002bba <z_setup_new_thread+0xb2>
		strncpy(new_thread->name, name,
 8002b92:	221f      	movs	r2, #31
 8002b94:	4659      	mov	r1, fp
 8002b96:	f104 0074 	add.w	r0, r4, #116	@ 0x74
 8002b9a:	f000 fd13 	bl	80035c4 <strncpy>
			CONFIG_THREAD_MAX_NAME_LEN - 1);
		/* Ensure NULL termination, truncate if longer */
		new_thread->name[CONFIG_THREAD_MAX_NAME_LEN - 1] = '\0';
 8002b9e:	2300      	movs	r3, #0
 8002ba0:	f884 3093 	strb.w	r3, [r4, #147]	@ 0x93
		new_thread->base.cpu_mask = -1; /* allow all cpus */
	}
#endif /* CONFIG_SCHED_CPU_MASK */
#ifdef CONFIG_ARCH_HAS_CUSTOM_SWAP_TO_MAIN
	/* _current may be null if the dummy thread is not used */
	if (!_current) {
 8002ba4:	4b08      	ldr	r3, [pc, #32]	@ (8002bc8 <z_setup_new_thread+0xc0>)
 8002ba6:	689b      	ldr	r3, [r3, #8]
 8002ba8:	b15b      	cbz	r3, 8002bc2 <z_setup_new_thread+0xba>
	}
#endif /* CONFIG_USERSPACE */
#ifdef CONFIG_SCHED_DEADLINE
	new_thread->base.prio_deadline = 0;
#endif /* CONFIG_SCHED_DEADLINE */
	new_thread->resource_pool = _current->resource_pool;
 8002baa:	f8d3 30a0 	ldr.w	r3, [r3, #160]	@ 0xa0
 8002bae:	f8c4 30a0 	str.w	r3, [r4, #160]	@ 0xa0
#endif /* CONFIG_SCHED_THREAD_USAGE */

	SYS_PORT_TRACING_OBJ_FUNC(k_thread, create, new_thread);

	return stack_ptr;
}
 8002bb2:	4628      	mov	r0, r5
 8002bb4:	b005      	add	sp, #20
 8002bb6:	e8bd 8ff0 	ldmia.w	sp!, {r4, r5, r6, r7, r8, r9, sl, fp, pc}
		new_thread->name[0] = '\0';
 8002bba:	2300      	movs	r3, #0
 8002bbc:	f884 3074 	strb.w	r3, [r4, #116]	@ 0x74
 8002bc0:	e7f0      	b.n	8002ba4 <z_setup_new_thread+0x9c>
		new_thread->resource_pool = NULL;
 8002bc2:	f8c4 30a0 	str.w	r3, [r4, #160]	@ 0xa0
		return stack_ptr;
 8002bc6:	e7f4      	b.n	8002bb2 <z_setup_new_thread+0xaa>
 8002bc8:	20000400 	.word	0x20000400

08002bcc <z_dummy_thread_init>:

#endif /* CONFIG_THREAD_ABORT_NEED_CLEANUP */

void z_dummy_thread_init(struct k_thread *dummy_thread)
{
	dummy_thread->base.thread_state = _THREAD_DUMMY;
 8002bcc:	2301      	movs	r3, #1
 8002bce:	7403      	strb	r3, [r0, #16]
#ifdef CONFIG_SCHED_CPU_MASK
	dummy_thread->base.cpu_mask = -1;
#endif /* CONFIG_SCHED_CPU_MASK */
	dummy_thread->base.user_options = K_ESSENTIAL;
 8002bd0:	8183      	strh	r3, [r0, #12]
#ifdef CONFIG_THREAD_STACK_INFO
	dummy_thread->stack_info.start = 0U;
 8002bd2:	2300      	movs	r3, #0
 8002bd4:	f8c0 3094 	str.w	r3, [r0, #148]	@ 0x94
	dummy_thread->stack_info.size = 0U;
 8002bd8:	f8c0 3098 	str.w	r3, [r0, #152]	@ 0x98
	dummy_thread->mem_domain_info.mem_domain = &k_mem_domain_default;
#endif /* CONFIG_USERSPACE */
#if (K_HEAP_MEM_POOL_SIZE > 0)
	k_thread_system_pool_assign(dummy_thread);
#else
	dummy_thread->resource_pool = NULL;
 8002bdc:	f8c0 30a0 	str.w	r3, [r0, #160]	@ 0xa0

#ifdef CONFIG_TIMESLICE_PER_THREAD
	dummy_thread->base.slice_ticks = 0;
#endif /* CONFIG_TIMESLICE_PER_THREAD */

	z_current_thread_set(dummy_thread);
 8002be0:	4b01      	ldr	r3, [pc, #4]	@ (8002be8 <z_dummy_thread_init+0x1c>)
 8002be2:	6098      	str	r0, [r3, #8]
}
 8002be4:	4770      	bx	lr
 8002be6:	bf00      	nop
 8002be8:	20000400 	.word	0x20000400

08002bec <z_swap_irqlock>:

#ifndef CONFIG_USE_SWITCH
static ALWAYS_INLINE int arch_swap(unsigned int key)
{
	/* store off key and return value */
	_current->arch.basepri = key;
 8002bec:	4a0a      	ldr	r2, [pc, #40]	@ (8002c18 <z_swap_irqlock+0x2c>)
 8002bee:	6893      	ldr	r3, [r2, #8]
 8002bf0:	f8c3 00a8 	str.w	r0, [r3, #168]	@ 0xa8
	_current->arch.swap_return_value = -EAGAIN;
 8002bf4:	f06f 010a 	mvn.w	r1, #10
 8002bf8:	f8c3 10ac 	str.w	r1, [r3, #172]	@ 0xac

	/* set pending bit to make sure we will take a PendSV exception */
	SCB->ICSR |= SCB_ICSR_PENDSVSET_Msk;
 8002bfc:	4907      	ldr	r1, [pc, #28]	@ (8002c1c <z_swap_irqlock+0x30>)
 8002bfe:	684b      	ldr	r3, [r1, #4]
 8002c00:	f043 5380 	orr.w	r3, r3, #268435456	@ 0x10000000
 8002c04:	604b      	str	r3, [r1, #4]
 8002c06:	2300      	movs	r3, #0
 8002c08:	f383 8811 	msr	BASEPRI, r3
 8002c0c:	f3bf 8f6f 	isb	sy
	irq_unlock(0);

	/* Context switch is performed here. Returning implies the
	 * thread has been context-switched-in again.
	 */
	return _current->arch.swap_return_value;
 8002c10:	6893      	ldr	r3, [r2, #8]
# endif /* CONFIG_ARM64 */
#endif /* CONFIG_SPIN_VALIDATE */

	ret = arch_swap(key);
	return ret;
}
 8002c12:	f8d3 00ac 	ldr.w	r0, [r3, #172]	@ 0xac
 8002c16:	4770      	bx	lr
 8002c18:	20000400 	.word	0x20000400
 8002c1c:	e000ed00 	.word	0xe000ed00

08002c20 <reschedule>:
{
#ifdef CONFIG_SMP
	_current_cpu->swap_ok = 0;
#endif /* CONFIG_SMP */

	return arch_irq_unlocked(key) && !arch_is_in_isr();
 8002c20:	4608      	mov	r0, r1
 8002c22:	b981      	cbnz	r1, 8002c46 <reschedule+0x26>
	return new_thread != _current;
#endif /* CONFIG_SMP */
}

static void reschedule(struct k_spinlock *lock, k_spinlock_key_t key)
{
 8002c24:	b508      	push	{r3, lr}
  __ASM volatile ("MRS %0, ipsr" : "=r" (result) );
 8002c26:	f3ef 8305 	mrs	r3, IPSR
	return arch_irq_unlocked(key) && !arch_is_in_isr();
 8002c2a:	b93b      	cbnz	r3, 8002c3c <reschedule+0x1c>
	new_thread = _kernel.ready_q.cache;
 8002c2c:	4b08      	ldr	r3, [pc, #32]	@ (8002c50 <reschedule+0x30>)
 8002c2e:	695a      	ldr	r2, [r3, #20]
	return new_thread != _current;
 8002c30:	689b      	ldr	r3, [r3, #8]
	if (resched(key.key) && need_swap()) {
 8002c32:	429a      	cmp	r2, r3
 8002c34:	d002      	beq.n	8002c3c <reschedule+0x1c>
 * handling.
 */
static ALWAYS_INLINE int z_swap(struct k_spinlock *lock, k_spinlock_key_t key)
{
	k_spin_release(lock);
	return z_swap_irqlock(key.key);
 8002c36:	f7ff ffd9 	bl	8002bec <z_swap_irqlock>
		z_swap(lock, key);
 8002c3a:	e003      	b.n	8002c44 <reschedule+0x24>
  __ASM volatile ("MSR basepri, %0" : : "r" (basePri) : "memory");
 8002c3c:	f380 8811 	msr	BASEPRI, r0
 8002c40:	f3bf 8f6f 	isb	sy
	} else {
		k_spin_unlock(lock, key);
		signal_pending_ipi();
	}
}
 8002c44:	bd08      	pop	{r3, pc}
 8002c46:	f381 8811 	msr	BASEPRI, r1
 8002c4a:	f3bf 8f6f 	isb	sy
		signal_pending_ipi();
 8002c4e:	4770      	bx	lr
 8002c50:	20000400 	.word	0x20000400

08002c54 <ready_thread>:
	return (thread->base.thread_state & state) != 0U;
 8002c54:	7c03      	ldrb	r3, [r0, #16]
	if (!z_is_thread_queued(thread) && z_is_thread_ready(thread)) {
 8002c56:	f990 2010 	ldrsb.w	r2, [r0, #16]
 8002c5a:	2a00      	cmp	r2, #0
 8002c5c:	db4e      	blt.n	8002cfc <ready_thread+0xa8>
 8002c5e:	f013 0f1f 	tst.w	r3, #31
 8002c62:	d14b      	bne.n	8002cfc <ready_thread+0xa8>
{
 8002c64:	b510      	push	{r4, lr}
	thread->base.thread_state |= _THREAD_QUEUED;
 8002c66:	f063 037f 	orn	r3, r3, #127	@ 0x7f
 8002c6a:	7403      	strb	r3, [r0, #16]
 * @return true if empty, false otherwise
 */

static inline bool sys_dlist_is_empty(const sys_dlist_t *list)
{
	return list->head == list;
 8002c6c:	4a24      	ldr	r2, [pc, #144]	@ (8002d00 <ready_thread+0xac>)
 8002c6e:	f852 3f18 	ldr.w	r3, [r2, #24]!
 * @return a pointer to the head element, NULL if list is empty
 */

static inline sys_dnode_t *sys_dlist_peek_head(const sys_dlist_t *list)
{
	return sys_dlist_is_empty(list) ? NULL : list->head;
 8002c72:	4293      	cmp	r3, r2
 8002c74:	d03a      	beq.n	8002cec <ready_thread+0x98>

static ALWAYS_INLINE void z_priq_simple_add(sys_dlist_t *pq, struct k_thread *thread)
{
	struct k_thread *t;

	SYS_DLIST_FOR_EACH_CONTAINER(pq, t, base.qnode_dlist) {
 8002c76:	b17b      	cbz	r3, 8002c98 <ready_thread+0x44>
	int32_t b1 = thread_1->base.prio;
 8002c78:	f990 100e 	ldrsb.w	r1, [r0, #14]
	int32_t b2 = thread_2->base.prio;
 8002c7c:	f993 200e 	ldrsb.w	r2, [r3, #14]
	if (b1 != b2) {
 8002c80:	4291      	cmp	r1, r2
 8002c82:	d002      	beq.n	8002c8a <ready_thread+0x36>
		return b2 - b1;
 8002c84:	1a52      	subs	r2, r2, r1
		if (z_sched_prio_cmp(thread, t) > 0) {
 8002c86:	2a00      	cmp	r2, #0
 8002c88:	dc27      	bgt.n	8002cda <ready_thread+0x86>
	SYS_DLIST_FOR_EACH_CONTAINER(pq, t, base.qnode_dlist) {
 8002c8a:	4619      	mov	r1, r3
 */

static inline sys_dnode_t *sys_dlist_peek_next_no_check(const sys_dlist_t *list,
							const sys_dnode_t *node)
{
	return (node == list->tail) ? NULL : node->next;
 8002c8c:	4a1c      	ldr	r2, [pc, #112]	@ (8002d00 <ready_thread+0xac>)
 8002c8e:	69d2      	ldr	r2, [r2, #28]
 8002c90:	4293      	cmp	r3, r2
 8002c92:	d001      	beq.n	8002c98 <ready_thread+0x44>
 8002c94:	681b      	ldr	r3, [r3, #0]
 8002c96:	bb33      	cbnz	r3, 8002ce6 <ready_thread+0x92>
 * @param node the element to append
 */

static inline void sys_dlist_append(sys_dlist_t *list, sys_dnode_t *node)
{
	sys_dnode_t *const tail = list->tail;
 8002c98:	4b19      	ldr	r3, [pc, #100]	@ (8002d00 <ready_thread+0xac>)
 8002c9a:	69da      	ldr	r2, [r3, #28]

	node->next = list;
 8002c9c:	f103 0118 	add.w	r1, r3, #24
 8002ca0:	6001      	str	r1, [r0, #0]
	node->prev = tail;
 8002ca2:	6042      	str	r2, [r0, #4]

	tail->next = node;
 8002ca4:	6010      	str	r0, [r2, #0]
	list->tail = node;
 8002ca6:	61d8      	str	r0, [r3, #28]
	return list->head == list;
 8002ca8:	4b15      	ldr	r3, [pc, #84]	@ (8002d00 <ready_thread+0xac>)
 8002caa:	f853 4f18 	ldr.w	r4, [r3, #24]!
	return sys_dlist_is_empty(list) ? NULL : list->head;
 8002cae:	429c      	cmp	r4, r3
 8002cb0:	d01e      	beq.n	8002cf0 <ready_thread+0x9c>
static ALWAYS_INLINE struct k_thread *z_priq_simple_best(sys_dlist_t *pq)
{
	struct k_thread *thread = NULL;
	sys_dnode_t *n = sys_dlist_peek_head(pq);

	if (n != NULL) {
 8002cb2:	b1ec      	cbz	r4, 8002cf0 <ready_thread+0x9c>
	}

	__ASSERT(_current != NULL, "");

	/* Or if we're pended/suspended/dummy (duh) */
	if (z_is_thread_prevented_from_running(_current)) {
 8002cb4:	4b12      	ldr	r3, [pc, #72]	@ (8002d00 <ready_thread+0xac>)
 8002cb6:	689b      	ldr	r3, [r3, #8]
	uint8_t state = thread->base.thread_state;
 8002cb8:	7c1a      	ldrb	r2, [r3, #16]
	if (z_is_thread_prevented_from_running(_current)) {
 8002cba:	f012 0f1f 	tst.w	r2, #31
 8002cbe:	d104      	bne.n	8002cca <ready_thread+0x76>
	return thread->base.preempt <= _PREEMPT_THRESHOLD;
 8002cc0:	89da      	ldrh	r2, [r3, #14]
	}

	/* Otherwise we have to be running a preemptible thread or
	 * switching to a metairq
	 */
	if (thread_is_preemptible(_current) || thread_is_metairq(thread)) {
 8002cc2:	2a7f      	cmp	r2, #127	@ 0x7f
 8002cc4:	d901      	bls.n	8002cca <ready_thread+0x76>
	return node->next != NULL;
 8002cc6:	69a2      	ldr	r2, [r4, #24]
	/* Edge case on ARM where a thread can be pended out of an
	 * interrupt handler before the "synchronous" swap starts
	 * context switching.  Platforms with atomic swap can never
	 * hit this.
	 */
	if (IS_ENABLED(CONFIG_SWAP_NONATOMIC)
 8002cc8:	b1aa      	cbz	r2, 8002cf6 <ready_thread+0xa2>
		if (thread != _current) {
 8002cca:	42a3      	cmp	r3, r4
 8002ccc:	d002      	beq.n	8002cd4 <ready_thread+0x80>
			z_reset_time_slice(thread);
 8002cce:	4620      	mov	r0, r4
 8002cd0:	f000 fa82 	bl	80031d8 <z_reset_time_slice>
		_kernel.ready_q.cache = thread;
 8002cd4:	4b0a      	ldr	r3, [pc, #40]	@ (8002d00 <ready_thread+0xac>)
 8002cd6:	615c      	str	r4, [r3, #20]
}
 8002cd8:	bd10      	pop	{r4, pc}
 * @param successor the position before which "node" will be inserted
 * @param node the element to insert
 */
static inline void sys_dlist_insert(sys_dnode_t *successor, sys_dnode_t *node)
{
	sys_dnode_t *const prev = successor->prev;
 8002cda:	685a      	ldr	r2, [r3, #4]

	node->prev = prev;
 8002cdc:	6042      	str	r2, [r0, #4]
	node->next = successor;
 8002cde:	6003      	str	r3, [r0, #0]
	prev->next = node;
 8002ce0:	6010      	str	r0, [r2, #0]
	successor->prev = node;
 8002ce2:	6058      	str	r0, [r3, #4]
			return;
 8002ce4:	e7e0      	b.n	8002ca8 <ready_thread+0x54>
	return (node != NULL) ? sys_dlist_peek_next_no_check(list, node) : NULL;
 8002ce6:	2900      	cmp	r1, #0
 8002ce8:	d1c5      	bne.n	8002c76 <ready_thread+0x22>
 8002cea:	e7d5      	b.n	8002c98 <ready_thread+0x44>
	SYS_DLIST_FOR_EACH_CONTAINER(pq, t, base.qnode_dlist) {
 8002cec:	2300      	movs	r3, #0
 8002cee:	e7c2      	b.n	8002c76 <ready_thread+0x22>
	return (thread != NULL) ? thread : _current_cpu->idle_thread;
 8002cf0:	4b03      	ldr	r3, [pc, #12]	@ (8002d00 <ready_thread+0xac>)
 8002cf2:	68dc      	ldr	r4, [r3, #12]
 8002cf4:	e7de      	b.n	8002cb4 <ready_thread+0x60>
		_kernel.ready_q.cache = _current;
 8002cf6:	4a02      	ldr	r2, [pc, #8]	@ (8002d00 <ready_thread+0xac>)
 8002cf8:	6153      	str	r3, [r2, #20]
 8002cfa:	e7ed      	b.n	8002cd8 <ready_thread+0x84>
 8002cfc:	4770      	bx	lr
 8002cfe:	bf00      	nop
 8002d00:	20000400 	.word	0x20000400

08002d04 <unready_thread>:
}
#include <zephyr/syscalls/k_thread_resume_mrsh.c>
#endif /* CONFIG_USERSPACE */

static void unready_thread(struct k_thread *thread)
{
 8002d04:	b510      	push	{r4, lr}
	return (thread->base.thread_state & state) != 0U;
 8002d06:	7c03      	ldrb	r3, [r0, #16]
	if (z_is_thread_queued(thread)) {
 8002d08:	f990 2010 	ldrsb.w	r2, [r0, #16]
 8002d0c:	2a00      	cmp	r2, #0
 8002d0e:	db19      	blt.n	8002d44 <unready_thread+0x40>
		dequeue_thread(thread);
	}
	update_cache(thread == _current);
 8002d10:	4b15      	ldr	r3, [pc, #84]	@ (8002d68 <unready_thread+0x64>)
 8002d12:	689a      	ldr	r2, [r3, #8]
	return list->head == list;
 8002d14:	f853 4f18 	ldr.w	r4, [r3, #24]!
	return sys_dlist_is_empty(list) ? NULL : list->head;
 8002d18:	429c      	cmp	r4, r3
 8002d1a:	d01e      	beq.n	8002d5a <unready_thread+0x56>
	if (n != NULL) {
 8002d1c:	b1ec      	cbz	r4, 8002d5a <unready_thread+0x56>
	if (preempt_ok != 0) {
 8002d1e:	4282      	cmp	r2, r0
 8002d20:	d008      	beq.n	8002d34 <unready_thread+0x30>
	uint8_t state = thread->base.thread_state;
 8002d22:	7c13      	ldrb	r3, [r2, #16]
	if (z_is_thread_prevented_from_running(_current)) {
 8002d24:	f013 0f1f 	tst.w	r3, #31
 8002d28:	d104      	bne.n	8002d34 <unready_thread+0x30>
	return thread->base.preempt <= _PREEMPT_THRESHOLD;
 8002d2a:	89d3      	ldrh	r3, [r2, #14]
	if (thread_is_preemptible(_current) || thread_is_metairq(thread)) {
 8002d2c:	2b7f      	cmp	r3, #127	@ 0x7f
 8002d2e:	d901      	bls.n	8002d34 <unready_thread+0x30>
	return node->next != NULL;
 8002d30:	69a3      	ldr	r3, [r4, #24]
	if (IS_ENABLED(CONFIG_SWAP_NONATOMIC)
 8002d32:	b1ab      	cbz	r3, 8002d60 <unready_thread+0x5c>
		if (thread != _current) {
 8002d34:	42a2      	cmp	r2, r4
 8002d36:	d002      	beq.n	8002d3e <unready_thread+0x3a>
			z_reset_time_slice(thread);
 8002d38:	4620      	mov	r0, r4
 8002d3a:	f000 fa4d 	bl	80031d8 <z_reset_time_slice>
		_kernel.ready_q.cache = thread;
 8002d3e:	4b0a      	ldr	r3, [pc, #40]	@ (8002d68 <unready_thread+0x64>)
 8002d40:	615c      	str	r4, [r3, #20]
}
 8002d42:	bd10      	pop	{r4, pc}
	thread->base.thread_state &= ~_THREAD_QUEUED;
 8002d44:	f003 037f 	and.w	r3, r3, #127	@ 0x7f
 8002d48:	7403      	strb	r3, [r0, #16]
 * @param node the node to remove
 */

static inline void sys_dlist_remove(sys_dnode_t *node)
{
	sys_dnode_t *const prev = node->prev;
 8002d4a:	6842      	ldr	r2, [r0, #4]
	sys_dnode_t *const next = node->next;
 8002d4c:	6803      	ldr	r3, [r0, #0]

	prev->next = next;
 8002d4e:	6013      	str	r3, [r2, #0]
	next->prev = prev;
 8002d50:	605a      	str	r2, [r3, #4]
	node->next = NULL;
 8002d52:	2300      	movs	r3, #0
 8002d54:	6003      	str	r3, [r0, #0]
	node->prev = NULL;
 8002d56:	6043      	str	r3, [r0, #4]
}
 8002d58:	e7da      	b.n	8002d10 <unready_thread+0xc>
	return (thread != NULL) ? thread : _current_cpu->idle_thread;
 8002d5a:	4b03      	ldr	r3, [pc, #12]	@ (8002d68 <unready_thread+0x64>)
 8002d5c:	68dc      	ldr	r4, [r3, #12]
 8002d5e:	e7de      	b.n	8002d1e <unready_thread+0x1a>
		_kernel.ready_q.cache = _current;
 8002d60:	4b01      	ldr	r3, [pc, #4]	@ (8002d68 <unready_thread+0x64>)
 8002d62:	615a      	str	r2, [r3, #20]
 8002d64:	e7ed      	b.n	8002d42 <unready_thread+0x3e>
 8002d66:	bf00      	nop
 8002d68:	20000400 	.word	0x20000400

08002d6c <thread_halt_spin>:
{
 8002d6c:	e92d 43f8 	stmdb	sp!, {r3, r4, r5, r6, r7, r8, r9, lr}
 8002d70:	4605      	mov	r5, r0
 8002d72:	460c      	mov	r4, r1
	if (z_is_thread_halting(_current)) {
 8002d74:	4b42      	ldr	r3, [pc, #264]	@ (8002e80 <thread_halt_spin+0x114>)
 8002d76:	689e      	ldr	r6, [r3, #8]
	return (thread->base.thread_state &
 8002d78:	7c33      	ldrb	r3, [r6, #16]
 8002d7a:	f013 0f60 	tst.w	r3, #96	@ 0x60
 8002d7e:	d02b      	beq.n	8002dd8 <thread_halt_spin+0x6c>
		halt_thread(_current,
 8002d80:	f013 0f20 	tst.w	r3, #32
 8002d84:	d02d      	beq.n	8002de2 <thread_halt_spin+0x76>
 8002d86:	2708      	movs	r7, #8
	bool dummify = false;

	/* We hold the lock, and the thread is known not to be running
	 * anywhere.
	 */
	if ((thread->base.thread_state & new_state) == 0U) {
 8002d88:	421f      	tst	r7, r3
 8002d8a:	d125      	bne.n	8002dd8 <thread_halt_spin+0x6c>
		thread->base.thread_state |= new_state;
 8002d8c:	433b      	orrs	r3, r7
 8002d8e:	7433      	strb	r3, [r6, #16]
		if (z_is_thread_queued(thread)) {
 8002d90:	f013 0f80 	tst.w	r3, #128	@ 0x80
 8002d94:	d127      	bne.n	8002de6 <thread_halt_spin+0x7a>
			dequeue_thread(thread);
		}

		if (new_state == _THREAD_DEAD) {
 8002d96:	2f08      	cmp	r7, #8
 8002d98:	d030      	beq.n	8002dfc <thread_halt_spin+0x90>
	bool dummify = false;
 8002d9a:	f04f 0900 	mov.w	r9, #0
	return list->head == list;
 8002d9e:	4b38      	ldr	r3, [pc, #224]	@ (8002e80 <thread_halt_spin+0x114>)
 8002da0:	f853 8f18 	ldr.w	r8, [r3, #24]!
	return sys_dlist_is_empty(list) ? NULL : list->head;
 8002da4:	4598      	cmp	r8, r3
 8002da6:	d04f      	beq.n	8002e48 <thread_halt_spin+0xdc>
 8002da8:	f1b8 0f00 	cmp.w	r8, #0
 8002dac:	d04c      	beq.n	8002e48 <thread_halt_spin+0xdc>
		if (thread != _current) {
 8002dae:	4b34      	ldr	r3, [pc, #208]	@ (8002e80 <thread_halt_spin+0x114>)
 8002db0:	689b      	ldr	r3, [r3, #8]
 8002db2:	4543      	cmp	r3, r8
 8002db4:	d002      	beq.n	8002dbc <thread_halt_spin+0x50>
			z_reset_time_slice(thread);
 8002db6:	4640      	mov	r0, r8
 8002db8:	f000 fa0e 	bl	80031d8 <z_reset_time_slice>
		_kernel.ready_q.cache = thread;
 8002dbc:	4b30      	ldr	r3, [pc, #192]	@ (8002e80 <thread_halt_spin+0x114>)
 8002dbe:	f8c3 8014 	str.w	r8, [r3, #20]
#ifdef CONFIG_SMP
		unpend_all(&thread->halt_queue);
#endif /* CONFIG_SMP */
		update_cache(1);

		if (new_state == _THREAD_SUSPENDED) {
 8002dc2:	2f10      	cmp	r7, #16
 8002dc4:	d008      	beq.n	8002dd8 <thread_halt_spin+0x6c>
			clear_halting(thread);
			return;
		}

		arch_coprocessors_disable(thread);
 8002dc6:	4630      	mov	r0, r6
 8002dc8:	f001 fb5d 	bl	8004486 <arch_coprocessors_disable>

		SYS_PORT_TRACING_FUNC(k_thread, sched_abort, thread);

		z_thread_monitor_exit(thread);
 8002dcc:	4630      	mov	r0, r6
 8002dce:	f000 fa5d 	bl	800328c <z_thread_monitor_exit>
		 * handle for any threads spinning in join() (this can
		 * never be used, as our thread is flagged dead, but
		 * it must not be NULL otherwise join can deadlock).
		 * Use 1 as a clearly invalid but non-NULL value.
		 */
		if (dummify && !IS_ENABLED(CONFIG_ARCH_POSIX)) {
 8002dd2:	f1b9 0f00 	cmp.w	r9, #0
 8002dd6:	d13b      	bne.n	8002e50 <thread_halt_spin+0xe4>
 8002dd8:	f384 8811 	msr	BASEPRI, r4
 8002ddc:	f3bf 8f6f 	isb	sy
	while (z_is_thread_halting(thread)) {
 8002de0:	e047      	b.n	8002e72 <thread_halt_spin+0x106>
		halt_thread(_current,
 8002de2:	2710      	movs	r7, #16
 8002de4:	e7d0      	b.n	8002d88 <thread_halt_spin+0x1c>
	thread->base.thread_state &= ~_THREAD_QUEUED;
 8002de6:	f003 037f 	and.w	r3, r3, #127	@ 0x7f
 8002dea:	7433      	strb	r3, [r6, #16]
	sys_dnode_t *const prev = node->prev;
 8002dec:	6872      	ldr	r2, [r6, #4]
	sys_dnode_t *const next = node->next;
 8002dee:	6833      	ldr	r3, [r6, #0]
	prev->next = next;
 8002df0:	6013      	str	r3, [r2, #0]
	next->prev = prev;
 8002df2:	605a      	str	r2, [r3, #4]
	node->next = NULL;
 8002df4:	2300      	movs	r3, #0
 8002df6:	6033      	str	r3, [r6, #0]
	node->prev = NULL;
 8002df8:	6073      	str	r3, [r6, #4]
}
 8002dfa:	e7cc      	b.n	8002d96 <thread_halt_spin+0x2a>
			if (thread->base.pended_on != NULL) {
 8002dfc:	68b3      	ldr	r3, [r6, #8]
 8002dfe:	b15b      	cbz	r3, 8002e18 <thread_halt_spin+0xac>
	sys_dnode_t *const prev = node->prev;
 8002e00:	6872      	ldr	r2, [r6, #4]
	sys_dnode_t *const next = node->next;
 8002e02:	6833      	ldr	r3, [r6, #0]
	prev->next = next;
 8002e04:	6013      	str	r3, [r2, #0]
	next->prev = prev;
 8002e06:	605a      	str	r2, [r3, #4]
	node->next = NULL;
 8002e08:	2300      	movs	r3, #0
 8002e0a:	6033      	str	r3, [r6, #0]
	node->prev = NULL;
 8002e0c:	6073      	str	r3, [r6, #4]
	thread->base.thread_state &= ~_THREAD_PENDING;
 8002e0e:	7c32      	ldrb	r2, [r6, #16]
 8002e10:	f022 0202 	bic.w	r2, r2, #2
 8002e14:	7432      	strb	r2, [r6, #16]

static inline void unpend_thread_no_timeout(struct k_thread *thread)
{
	_priq_wait_remove(&pended_on_thread(thread)->waitq, thread);
	z_mark_thread_as_not_pending(thread);
	thread->base.pended_on = NULL;
 8002e16:	60b3      	str	r3, [r6, #8]
}

static inline void z_abort_thread_timeout(struct k_thread *thread)
{
	z_abort_timeout(&thread->base.timeout);
 8002e18:	f106 0018 	add.w	r0, r6, #24
 8002e1c:	f002 fb01 	bl	8005422 <z_abort_timeout>
			unpend_all(&thread->join_queue);
 8002e20:	f106 0058 	add.w	r0, r6, #88	@ 0x58
 8002e24:	f002 fa58 	bl	80052d8 <unpend_all>
			if (thread == _current && arch_is_in_isr()) {
 8002e28:	4b15      	ldr	r3, [pc, #84]	@ (8002e80 <thread_halt_spin+0x114>)
 8002e2a:	689b      	ldr	r3, [r3, #8]
 8002e2c:	429e      	cmp	r6, r3
 8002e2e:	d002      	beq.n	8002e36 <thread_halt_spin+0xca>
	bool dummify = false;
 8002e30:	f04f 0900 	mov.w	r9, #0
 8002e34:	e7b3      	b.n	8002d9e <thread_halt_spin+0x32>
  __ASM volatile ("MRS %0, ipsr" : "=r" (result) );
 8002e36:	f3ef 8305 	mrs	r3, IPSR
			if (thread == _current && arch_is_in_isr()) {
 8002e3a:	b913      	cbnz	r3, 8002e42 <thread_halt_spin+0xd6>
	bool dummify = false;
 8002e3c:	f04f 0900 	mov.w	r9, #0
 8002e40:	e7ad      	b.n	8002d9e <thread_halt_spin+0x32>
				dummify = true;
 8002e42:	f04f 0901 	mov.w	r9, #1
 8002e46:	e7aa      	b.n	8002d9e <thread_halt_spin+0x32>
	return (thread != NULL) ? thread : _current_cpu->idle_thread;
 8002e48:	4b0d      	ldr	r3, [pc, #52]	@ (8002e80 <thread_halt_spin+0x114>)
 8002e4a:	f8d3 800c 	ldr.w	r8, [r3, #12]
 8002e4e:	e7ae      	b.n	8002dae <thread_halt_spin+0x42>
#ifdef CONFIG_USE_SWITCH
			_current->switch_handle = (void *)1;
#endif
			z_dummy_thread_init(&_thread_dummy);
 8002e50:	480c      	ldr	r0, [pc, #48]	@ (8002e84 <thread_halt_spin+0x118>)
 8002e52:	f7ff febb 	bl	8002bcc <z_dummy_thread_init>
 8002e56:	e7bf      	b.n	8002dd8 <thread_halt_spin+0x6c>
  __ASM volatile ("MRS %0, basepri" : "=r" (result) );
 8002e58:	f3ef 8411 	mrs	r4, BASEPRI
  __ASM volatile ("MSR basepri_max, %0" : : "r" (basePri) : "memory");
 8002e5c:	2310      	movs	r3, #16
 8002e5e:	f383 8812 	msr	BASEPRI_MAX, r3
 8002e62:	f3bf 8f6f 	isb	sy
		arch_spin_relax(); /* Requires interrupts be masked */
 8002e66:	f002 f9e3 	bl	8005230 <arch_spin_relax>
  __ASM volatile ("MSR basepri, %0" : : "r" (basePri) : "memory");
 8002e6a:	f384 8811 	msr	BASEPRI, r4
 8002e6e:	f3bf 8f6f 	isb	sy
	return (thread->base.thread_state &
 8002e72:	7c2b      	ldrb	r3, [r5, #16]
	while (z_is_thread_halting(thread)) {
 8002e74:	f013 0f60 	tst.w	r3, #96	@ 0x60
 8002e78:	d1ee      	bne.n	8002e58 <thread_halt_spin+0xec>
}
 8002e7a:	e8bd 83f8 	ldmia.w	sp!, {r3, r4, r5, r6, r7, r8, r9, pc}
 8002e7e:	bf00      	nop
 8002e80:	20000400 	.word	0x20000400
 8002e84:	200001e8 	.word	0x200001e8

08002e88 <move_current_to_end_of_prio_q>:
{
 8002e88:	b510      	push	{r4, lr}
	n = sys_dlist_peek_next_no_check(pq, &_current->base.qnode_dlist);
 8002e8a:	4b20      	ldr	r3, [pc, #128]	@ (8002f0c <move_current_to_end_of_prio_q+0x84>)
 8002e8c:	689a      	ldr	r2, [r3, #8]
	return (node == list->tail) ? NULL : node->next;
 8002e8e:	69db      	ldr	r3, [r3, #28]
 8002e90:	429a      	cmp	r2, r3
 8002e92:	d005      	beq.n	8002ea0 <move_current_to_end_of_prio_q+0x18>
 8002e94:	6813      	ldr	r3, [r2, #0]
	sys_dnode_t *const prev = node->prev;
 8002e96:	6851      	ldr	r1, [r2, #4]
	sys_dnode_t *const next = node->next;
 8002e98:	6812      	ldr	r2, [r2, #0]
	prev->next = next;
 8002e9a:	600a      	str	r2, [r1, #0]
	next->prev = prev;
 8002e9c:	6051      	str	r1, [r2, #4]
}
 8002e9e:	e006      	b.n	8002eae <move_current_to_end_of_prio_q+0x26>
	return (node == list->tail) ? NULL : node->next;
 8002ea0:	2300      	movs	r3, #0
 8002ea2:	e7f8      	b.n	8002e96 <move_current_to_end_of_prio_q+0xe>
 8002ea4:	4a19      	ldr	r2, [pc, #100]	@ (8002f0c <move_current_to_end_of_prio_q+0x84>)
 8002ea6:	69d2      	ldr	r2, [r2, #28]
 8002ea8:	4293      	cmp	r3, r2
 8002eaa:	d012      	beq.n	8002ed2 <move_current_to_end_of_prio_q+0x4a>
 8002eac:	681b      	ldr	r3, [r3, #0]
	while (n != NULL) {
 8002eae:	b183      	cbz	r3, 8002ed2 <move_current_to_end_of_prio_q+0x4a>
		if (z_sched_prio_cmp(_current, t) > 0) {
 8002eb0:	4a16      	ldr	r2, [pc, #88]	@ (8002f0c <move_current_to_end_of_prio_q+0x84>)
 8002eb2:	6890      	ldr	r0, [r2, #8]
	int32_t b1 = thread_1->base.prio;
 8002eb4:	f990 100e 	ldrsb.w	r1, [r0, #14]
	int32_t b2 = thread_2->base.prio;
 8002eb8:	f993 200e 	ldrsb.w	r2, [r3, #14]
	if (b1 != b2) {
 8002ebc:	4291      	cmp	r1, r2
 8002ebe:	d0f1      	beq.n	8002ea4 <move_current_to_end_of_prio_q+0x1c>
		return b2 - b1;
 8002ec0:	1a52      	subs	r2, r2, r1
		if (z_sched_prio_cmp(_current, t) > 0) {
 8002ec2:	2a00      	cmp	r2, #0
 8002ec4:	ddee      	ble.n	8002ea4 <move_current_to_end_of_prio_q+0x1c>
	sys_dnode_t *const prev = successor->prev;
 8002ec6:	685a      	ldr	r2, [r3, #4]
	node->prev = prev;
 8002ec8:	6042      	str	r2, [r0, #4]
	node->next = successor;
 8002eca:	6003      	str	r3, [r0, #0]
	prev->next = node;
 8002ecc:	6010      	str	r0, [r2, #0]
	successor->prev = node;
 8002ece:	6058      	str	r0, [r3, #4]
			return;
 8002ed0:	e008      	b.n	8002ee4 <move_current_to_end_of_prio_q+0x5c>
	sys_dlist_append(pq, &_current->base.qnode_dlist);
 8002ed2:	4b0e      	ldr	r3, [pc, #56]	@ (8002f0c <move_current_to_end_of_prio_q+0x84>)
 8002ed4:	689a      	ldr	r2, [r3, #8]
	sys_dnode_t *const tail = list->tail;
 8002ed6:	69d9      	ldr	r1, [r3, #28]
	node->next = list;
 8002ed8:	f103 0018 	add.w	r0, r3, #24
 8002edc:	6010      	str	r0, [r2, #0]
	node->prev = tail;
 8002ede:	6051      	str	r1, [r2, #4]
	tail->next = node;
 8002ee0:	600a      	str	r2, [r1, #0]
	list->tail = node;
 8002ee2:	61da      	str	r2, [r3, #28]
	return list->head == list;
 8002ee4:	4b09      	ldr	r3, [pc, #36]	@ (8002f0c <move_current_to_end_of_prio_q+0x84>)
 8002ee6:	f853 4f18 	ldr.w	r4, [r3, #24]!
	return sys_dlist_is_empty(list) ? NULL : list->head;
 8002eea:	429c      	cmp	r4, r3
 8002eec:	d00a      	beq.n	8002f04 <move_current_to_end_of_prio_q+0x7c>
	if (n != NULL) {
 8002eee:	b14c      	cbz	r4, 8002f04 <move_current_to_end_of_prio_q+0x7c>
		if (thread != _current) {
 8002ef0:	4b06      	ldr	r3, [pc, #24]	@ (8002f0c <move_current_to_end_of_prio_q+0x84>)
 8002ef2:	689b      	ldr	r3, [r3, #8]
 8002ef4:	429c      	cmp	r4, r3
 8002ef6:	d002      	beq.n	8002efe <move_current_to_end_of_prio_q+0x76>
			z_reset_time_slice(thread);
 8002ef8:	4620      	mov	r0, r4
 8002efa:	f000 f96d 	bl	80031d8 <z_reset_time_slice>
		_kernel.ready_q.cache = thread;
 8002efe:	4b03      	ldr	r3, [pc, #12]	@ (8002f0c <move_current_to_end_of_prio_q+0x84>)
 8002f00:	615c      	str	r4, [r3, #20]
}
 8002f02:	bd10      	pop	{r4, pc}
	return (thread != NULL) ? thread : _current_cpu->idle_thread;
 8002f04:	4b01      	ldr	r3, [pc, #4]	@ (8002f0c <move_current_to_end_of_prio_q+0x84>)
 8002f06:	68dc      	ldr	r4, [r3, #12]
 8002f08:	e7f2      	b.n	8002ef0 <move_current_to_end_of_prio_q+0x68>
 8002f0a:	bf00      	nop
 8002f0c:	20000400 	.word	0x20000400

08002f10 <k_sched_lock>:
	K_SPINLOCK(&_sched_spinlock) {
 8002f10:	2300      	movs	r3, #0
  __ASM volatile ("MRS %0, basepri" : "=r" (result) );
 8002f12:	f3ef 8111 	mrs	r1, BASEPRI
  __ASM volatile ("MSR basepri_max, %0" : : "r" (basePri) : "memory");
 8002f16:	2210      	movs	r2, #16
 8002f18:	f382 8812 	msr	BASEPRI_MAX, r2
 8002f1c:	f3bf 8f6f 	isb	sy
	}
#endif /* CONFIG_TICKET_SPINLOCKS */
#endif /* CONFIG_SMP */
	z_spinlock_validate_post(l);

	return k;
 8002f20:	e009      	b.n	8002f36 <k_sched_lock+0x26>
		--_current->base.sched_locked;
 8002f22:	4b06      	ldr	r3, [pc, #24]	@ (8002f3c <k_sched_lock+0x2c>)
 8002f24:	689a      	ldr	r2, [r3, #8]
 8002f26:	7bd3      	ldrb	r3, [r2, #15]
 8002f28:	3b01      	subs	r3, #1
 8002f2a:	73d3      	strb	r3, [r2, #15]
  __ASM volatile ("MSR basepri, %0" : : "r" (basePri) : "memory");
 8002f2c:	f381 8811 	msr	BASEPRI, r1
 8002f30:	f3bf 8f6f 	isb	sy
	K_SPINLOCK(&_sched_spinlock) {
 8002f34:	2301      	movs	r3, #1
 8002f36:	2b00      	cmp	r3, #0
 8002f38:	d0f3      	beq.n	8002f22 <k_sched_lock+0x12>
}
 8002f3a:	4770      	bx	lr
 8002f3c:	20000400 	.word	0x20000400

08002f40 <k_sched_unlock>:
{
 8002f40:	b538      	push	{r3, r4, r5, lr}
  __ASM volatile ("MRS %0, basepri" : "=r" (result) );
 8002f42:	f3ef 8511 	mrs	r5, BASEPRI
  __ASM volatile ("MSR basepri_max, %0" : : "r" (basePri) : "memory");
 8002f46:	2310      	movs	r3, #16
 8002f48:	f383 8812 	msr	BASEPRI_MAX, r3
 8002f4c:	f3bf 8f6f 	isb	sy
	++_current->base.sched_locked;
 8002f50:	4b12      	ldr	r3, [pc, #72]	@ (8002f9c <k_sched_unlock+0x5c>)
 8002f52:	689a      	ldr	r2, [r3, #8]
 8002f54:	7bd1      	ldrb	r1, [r2, #15]
 8002f56:	3101      	adds	r1, #1
 8002f58:	73d1      	strb	r1, [r2, #15]
	return list->head == list;
 8002f5a:	f853 4f18 	ldr.w	r4, [r3, #24]!
	return sys_dlist_is_empty(list) ? NULL : list->head;
 8002f5e:	429c      	cmp	r4, r3
 8002f60:	d015      	beq.n	8002f8e <k_sched_unlock+0x4e>
 8002f62:	b1a4      	cbz	r4, 8002f8e <k_sched_unlock+0x4e>
	uint8_t state = thread->base.thread_state;
 8002f64:	7c13      	ldrb	r3, [r2, #16]
	if (z_is_thread_prevented_from_running(_current)) {
 8002f66:	f013 0f1f 	tst.w	r3, #31
 8002f6a:	d104      	bne.n	8002f76 <k_sched_unlock+0x36>
	return thread->base.preempt <= _PREEMPT_THRESHOLD;
 8002f6c:	89d3      	ldrh	r3, [r2, #14]
	if (thread_is_preemptible(_current) || thread_is_metairq(thread)) {
 8002f6e:	2b7f      	cmp	r3, #127	@ 0x7f
 8002f70:	d901      	bls.n	8002f76 <k_sched_unlock+0x36>
	return node->next != NULL;
 8002f72:	69a3      	ldr	r3, [r4, #24]
	if (IS_ENABLED(CONFIG_SWAP_NONATOMIC)
 8002f74:	b173      	cbz	r3, 8002f94 <k_sched_unlock+0x54>
		if (thread != _current) {
 8002f76:	4294      	cmp	r4, r2
 8002f78:	d002      	beq.n	8002f80 <k_sched_unlock+0x40>
			z_reset_time_slice(thread);
 8002f7a:	4620      	mov	r0, r4
 8002f7c:	f000 f92c 	bl	80031d8 <z_reset_time_slice>
		_kernel.ready_q.cache = thread;
 8002f80:	4b06      	ldr	r3, [pc, #24]	@ (8002f9c <k_sched_unlock+0x5c>)
 8002f82:	615c      	str	r4, [r3, #20]
	reschedule(&_sched_spinlock, key);
 8002f84:	4629      	mov	r1, r5
 8002f86:	4806      	ldr	r0, [pc, #24]	@ (8002fa0 <k_sched_unlock+0x60>)
 8002f88:	f7ff fe4a 	bl	8002c20 <reschedule>
}
 8002f8c:	bd38      	pop	{r3, r4, r5, pc}
	return (thread != NULL) ? thread : _current_cpu->idle_thread;
 8002f8e:	4b03      	ldr	r3, [pc, #12]	@ (8002f9c <k_sched_unlock+0x5c>)
 8002f90:	68dc      	ldr	r4, [r3, #12]
 8002f92:	e7e7      	b.n	8002f64 <k_sched_unlock+0x24>
		_kernel.ready_q.cache = _current;
 8002f94:	4b01      	ldr	r3, [pc, #4]	@ (8002f9c <k_sched_unlock+0x5c>)
 8002f96:	615a      	str	r2, [r3, #20]
 8002f98:	e7f4      	b.n	8002f84 <k_sched_unlock+0x44>
 8002f9a:	bf00      	nop
 8002f9c:	20000400 	.word	0x20000400
 8002fa0:	20000424 	.word	0x20000424

08002fa4 <z_sched_init>:
{
 8002fa4:	b508      	push	{r3, lr}
	init_ready_q(&_kernel.ready_q);
 8002fa6:	4802      	ldr	r0, [pc, #8]	@ (8002fb0 <z_sched_init+0xc>)
 8002fa8:	f002 fa05 	bl	80053b6 <init_ready_q>
}
 8002fac:	bd08      	pop	{r3, pc}
 8002fae:	bf00      	nop
 8002fb0:	20000414 	.word	0x20000414

08002fb4 <z_impl_k_wakeup>:
{
 8002fb4:	b538      	push	{r3, r4, r5, lr}
  __ASM volatile ("MRS %0, basepri" : "=r" (result) );
 8002fb6:	f3ef 8511 	mrs	r5, BASEPRI
  __ASM volatile ("MSR basepri_max, %0" : : "r" (basePri) : "memory");
 8002fba:	2310      	movs	r3, #16
 8002fbc:	f383 8812 	msr	BASEPRI_MAX, r3
 8002fc0:	f3bf 8f6f 	isb	sy
	return (thread->base.thread_state & _THREAD_SLEEPING) != 0U;
 8002fc4:	7c03      	ldrb	r3, [r0, #16]
	if (z_is_thread_sleeping(thread)) {
 8002fc6:	f013 0f04 	tst.w	r3, #4
 8002fca:	d104      	bne.n	8002fd6 <z_impl_k_wakeup+0x22>
  __ASM volatile ("MSR basepri, %0" : : "r" (basePri) : "memory");
 8002fcc:	f385 8811 	msr	BASEPRI, r5
 8002fd0:	f3bf 8f6f 	isb	sy
}
 8002fd4:	bd38      	pop	{r3, r4, r5, pc}
 8002fd6:	4604      	mov	r4, r0
 8002fd8:	3018      	adds	r0, #24
 8002fda:	f002 fa22 	bl	8005422 <z_abort_timeout>
	thread->base.thread_state &= ~_THREAD_SLEEPING;
 8002fde:	7c23      	ldrb	r3, [r4, #16]
 8002fe0:	f023 0304 	bic.w	r3, r3, #4
 8002fe4:	7423      	strb	r3, [r4, #16]
		ready_thread(thread);
 8002fe6:	4620      	mov	r0, r4
 8002fe8:	f7ff fe34 	bl	8002c54 <ready_thread>
		reschedule(&_sched_spinlock, key);
 8002fec:	4629      	mov	r1, r5
 8002fee:	4802      	ldr	r0, [pc, #8]	@ (8002ff8 <z_impl_k_wakeup+0x44>)
 8002ff0:	f7ff fe16 	bl	8002c20 <reschedule>
 8002ff4:	e7ee      	b.n	8002fd4 <z_impl_k_wakeup+0x20>
 8002ff6:	bf00      	nop
 8002ff8:	20000424 	.word	0x20000424

08002ffc <z_impl_k_sched_current_thread_query>:
}
 8002ffc:	4b01      	ldr	r3, [pc, #4]	@ (8003004 <z_impl_k_sched_current_thread_query+0x8>)
 8002ffe:	6898      	ldr	r0, [r3, #8]
 8003000:	4770      	bx	lr
 8003002:	bf00      	nop
 8003004:	20000400 	.word	0x20000400

08003008 <z_thread_abort>:
#ifdef IAR_SUPPRESS_ALWAYS_INLINE_WARNING_FLAG
TOOLCHAIN_ENABLE_WARNING(TOOLCHAIN_WARNING_ALWAYS_INLINE)
#endif

void z_thread_abort(struct k_thread *thread)
{
 8003008:	e92d 43f8 	stmdb	sp!, {r3, r4, r5, r6, r7, r8, r9, lr}
	return (thread->base.user_options & K_ESSENTIAL) == K_ESSENTIAL;
 800300c:	8983      	ldrh	r3, [r0, #12]
 800300e:	f003 0701 	and.w	r7, r3, #1
  __ASM volatile ("MRS %0, basepri" : "=r" (result) );
 8003012:	f3ef 8611 	mrs	r6, BASEPRI
  __ASM volatile ("MSR basepri_max, %0" : : "r" (basePri) : "memory");
 8003016:	2310      	movs	r3, #16
 8003018:	f383 8812 	msr	BASEPRI_MAX, r3
 800301c:	f3bf 8f6f 	isb	sy
	return (thread->base.thread_state & _THREAD_DEAD) != 0U;
 8003020:	7c05      	ldrb	r5, [r0, #16]
	bool essential = z_is_thread_essential(thread);
	k_spinlock_key_t key = k_spin_lock(&_sched_spinlock);

	if (z_is_thread_dead(thread)) {
 8003022:	f015 0f08 	tst.w	r5, #8
 8003026:	d11a      	bne.n	800305e <z_thread_abort+0x56>
 8003028:	4604      	mov	r4, r0
		k_spin_unlock(&_sched_spinlock, key);
		return;
	}

	z_thread_halt(thread, key, true);
 800302a:	46b1      	mov	r9, r6
	_wait_q_t *wq = &thread->join_queue;
 800302c:	f100 0858 	add.w	r8, r0, #88	@ 0x58
	struct _cpu *cpu = thread_active_elsewhere(thread);
 8003030:	f002 f920 	bl	8005274 <thread_active_elsewhere>
	if (cpu != NULL) {
 8003034:	b310      	cbz	r0, 800307c <z_thread_abort+0x74>
		thread->base.thread_state |= (terminate ? _THREAD_ABORTING
 8003036:	f045 0520 	orr.w	r5, r5, #32
 800303a:	7425      	strb	r5, [r4, #16]
  __ASM volatile ("MRS %0, ipsr" : "=r" (result) );
 800303c:	f3ef 8305 	mrs	r3, IPSR
		if (arch_is_in_isr()) {
 8003040:	b19b      	cbz	r3, 800306a <z_thread_abort+0x62>
			thread_halt_spin(thread, key);
 8003042:	4631      	mov	r1, r6
 8003044:	4620      	mov	r0, r4
 8003046:	f7ff fe91 	bl	8002d6c <thread_halt_spin>

	if (essential) {
 800304a:	b167      	cbz	r7, 8003066 <z_thread_abort+0x5e>
  __ASM volatile ("MSR basepri, %0" : : "r" (basePri) : "memory");
 800304c:	2300      	movs	r3, #0
 800304e:	f383 8811 	msr	BASEPRI, r3
 8003052:	f3bf 8f6f 	isb	sy
		__ASSERT(!essential, "aborted essential thread %p", thread);
		k_panic();
 8003056:	2304      	movs	r3, #4
 8003058:	4618      	mov	r0, r3
 800305a:	df02      	svc	2
 800305c:	e003      	b.n	8003066 <z_thread_abort+0x5e>
 800305e:	f386 8811 	msr	BASEPRI, r6
 8003062:	f3bf 8f6f 	isb	sy
	}
}
 8003066:	e8bd 83f8 	ldmia.w	sp!, {r3, r4, r5, r6, r7, r8, r9, pc}
			add_to_waitq_locked(_current, wq);
 800306a:	4641      	mov	r1, r8
 800306c:	4b3f      	ldr	r3, [pc, #252]	@ (800316c <z_thread_abort+0x164>)
 800306e:	6898      	ldr	r0, [r3, #8]
 8003070:	f002 f902 	bl	8005278 <add_to_waitq_locked>
 8003074:	4630      	mov	r0, r6
 8003076:	f7ff fdb9 	bl	8002bec <z_swap_irqlock>
 800307a:	e7e6      	b.n	800304a <z_thread_abort+0x42>
		thread->base.thread_state |= new_state;
 800307c:	f045 0308 	orr.w	r3, r5, #8
 8003080:	7423      	strb	r3, [r4, #16]
		if (z_is_thread_queued(thread)) {
 8003082:	f013 0f80 	tst.w	r3, #128	@ 0x80
 8003086:	d136      	bne.n	80030f6 <z_thread_abort+0xee>
			if (thread->base.pended_on != NULL) {
 8003088:	68a3      	ldr	r3, [r4, #8]
 800308a:	b15b      	cbz	r3, 80030a4 <z_thread_abort+0x9c>
	sys_dnode_t *const prev = node->prev;
 800308c:	6862      	ldr	r2, [r4, #4]
	sys_dnode_t *const next = node->next;
 800308e:	6823      	ldr	r3, [r4, #0]
	prev->next = next;
 8003090:	6013      	str	r3, [r2, #0]
	next->prev = prev;
 8003092:	605a      	str	r2, [r3, #4]
	node->next = NULL;
 8003094:	2300      	movs	r3, #0
 8003096:	6023      	str	r3, [r4, #0]
	node->prev = NULL;
 8003098:	6063      	str	r3, [r4, #4]
	thread->base.thread_state &= ~_THREAD_PENDING;
 800309a:	7c22      	ldrb	r2, [r4, #16]
 800309c:	f022 0202 	bic.w	r2, r2, #2
 80030a0:	7422      	strb	r2, [r4, #16]
 80030a2:	60a3      	str	r3, [r4, #8]
 80030a4:	f104 0018 	add.w	r0, r4, #24
 80030a8:	f002 f9bb 	bl	8005422 <z_abort_timeout>
			unpend_all(&thread->join_queue);
 80030ac:	4640      	mov	r0, r8
 80030ae:	f002 f913 	bl	80052d8 <unpend_all>
			if (thread == _current && arch_is_in_isr()) {
 80030b2:	4b2e      	ldr	r3, [pc, #184]	@ (800316c <z_thread_abort+0x164>)
 80030b4:	689a      	ldr	r2, [r3, #8]
 80030b6:	4294      	cmp	r4, r2
 80030b8:	d02a      	beq.n	8003110 <z_thread_abort+0x108>
	bool dummify = false;
 80030ba:	2600      	movs	r6, #0
	return list->head == list;
 80030bc:	4b2b      	ldr	r3, [pc, #172]	@ (800316c <z_thread_abort+0x164>)
 80030be:	f853 5f18 	ldr.w	r5, [r3, #24]!
	return sys_dlist_is_empty(list) ? NULL : list->head;
 80030c2:	429d      	cmp	r5, r3
 80030c4:	d02b      	beq.n	800311e <z_thread_abort+0x116>
 80030c6:	b355      	cbz	r5, 800311e <z_thread_abort+0x116>
		if (thread != _current) {
 80030c8:	42aa      	cmp	r2, r5
 80030ca:	d002      	beq.n	80030d2 <z_thread_abort+0xca>
			z_reset_time_slice(thread);
 80030cc:	4628      	mov	r0, r5
 80030ce:	f000 f883 	bl	80031d8 <z_reset_time_slice>
		_kernel.ready_q.cache = thread;
 80030d2:	4b26      	ldr	r3, [pc, #152]	@ (800316c <z_thread_abort+0x164>)
 80030d4:	615d      	str	r5, [r3, #20]
		arch_coprocessors_disable(thread);
 80030d6:	4620      	mov	r0, r4
 80030d8:	f001 f9d5 	bl	8004486 <arch_coprocessors_disable>
		z_thread_monitor_exit(thread);
 80030dc:	4620      	mov	r0, r4
 80030de:	f000 f8d5 	bl	800328c <z_thread_monitor_exit>
		if (dummify && !IS_ENABLED(CONFIG_ARCH_POSIX)) {
 80030e2:	b9fe      	cbnz	r6, 8003124 <z_thread_abort+0x11c>
		if ((thread == _current) && !arch_is_in_isr()) {
 80030e4:	4b21      	ldr	r3, [pc, #132]	@ (800316c <z_thread_abort+0x164>)
 80030e6:	689b      	ldr	r3, [r3, #8]
 80030e8:	429c      	cmp	r4, r3
 80030ea:	d01f      	beq.n	800312c <z_thread_abort+0x124>
 80030ec:	f389 8811 	msr	BASEPRI, r9
 80030f0:	f3bf 8f6f 	isb	sy
 80030f4:	e7a9      	b.n	800304a <z_thread_abort+0x42>
	thread->base.thread_state &= ~_THREAD_QUEUED;
 80030f6:	f005 057f 	and.w	r5, r5, #127	@ 0x7f
 80030fa:	f045 0508 	orr.w	r5, r5, #8
 80030fe:	7425      	strb	r5, [r4, #16]
	sys_dnode_t *const prev = node->prev;
 8003100:	6862      	ldr	r2, [r4, #4]
	sys_dnode_t *const next = node->next;
 8003102:	6823      	ldr	r3, [r4, #0]
	prev->next = next;
 8003104:	6013      	str	r3, [r2, #0]
	next->prev = prev;
 8003106:	605a      	str	r2, [r3, #4]
	node->next = NULL;
 8003108:	2300      	movs	r3, #0
 800310a:	6023      	str	r3, [r4, #0]
	node->prev = NULL;
 800310c:	6063      	str	r3, [r4, #4]
}
 800310e:	e7bb      	b.n	8003088 <z_thread_abort+0x80>
  __ASM volatile ("MRS %0, ipsr" : "=r" (result) );
 8003110:	f3ef 8305 	mrs	r3, IPSR
			if (thread == _current && arch_is_in_isr()) {
 8003114:	b90b      	cbnz	r3, 800311a <z_thread_abort+0x112>
	bool dummify = false;
 8003116:	2600      	movs	r6, #0
 8003118:	e7d0      	b.n	80030bc <z_thread_abort+0xb4>
				dummify = true;
 800311a:	2601      	movs	r6, #1
 800311c:	e7ce      	b.n	80030bc <z_thread_abort+0xb4>
	return (thread != NULL) ? thread : _current_cpu->idle_thread;
 800311e:	4b13      	ldr	r3, [pc, #76]	@ (800316c <z_thread_abort+0x164>)
 8003120:	68dd      	ldr	r5, [r3, #12]
 8003122:	e7d1      	b.n	80030c8 <z_thread_abort+0xc0>
			z_dummy_thread_init(&_thread_dummy);
 8003124:	4812      	ldr	r0, [pc, #72]	@ (8003170 <z_thread_abort+0x168>)
 8003126:	f7ff fd51 	bl	8002bcc <z_dummy_thread_init>
 800312a:	e7db      	b.n	80030e4 <z_thread_abort+0xdc>
 800312c:	f3ef 8305 	mrs	r3, IPSR
		if ((thread == _current) && !arch_is_in_isr()) {
 8003130:	2b00      	cmp	r3, #0
 8003132:	d1db      	bne.n	80030ec <z_thread_abort+0xe4>
	return (thread->base.user_options & K_ESSENTIAL) == K_ESSENTIAL;
 8003134:	89a3      	ldrh	r3, [r4, #12]
			if (z_is_thread_essential(thread)) {
 8003136:	f013 0f01 	tst.w	r3, #1
 800313a:	d012      	beq.n	8003162 <z_thread_abort+0x15a>
  __ASM volatile ("MSR basepri, %0" : : "r" (basePri) : "memory");
 800313c:	f389 8811 	msr	BASEPRI, r9
 8003140:	f3bf 8f6f 	isb	sy
 8003144:	2300      	movs	r3, #0
 8003146:	f383 8811 	msr	BASEPRI, r3
 800314a:	f3bf 8f6f 	isb	sy
				k_panic();
 800314e:	2304      	movs	r3, #4
 8003150:	4618      	mov	r0, r3
 8003152:	df02      	svc	2
  __ASM volatile ("MRS %0, basepri" : "=r" (result) );
 8003154:	f3ef 8911 	mrs	r9, BASEPRI
  __ASM volatile ("MSR basepri_max, %0" : : "r" (basePri) : "memory");
 8003158:	2310      	movs	r3, #16
 800315a:	f383 8812 	msr	BASEPRI_MAX, r3
 800315e:	f3bf 8f6f 	isb	sy
 8003162:	4648      	mov	r0, r9
 8003164:	f7ff fd42 	bl	8002bec <z_swap_irqlock>
			z_swap(&_sched_spinlock, key);
 8003168:	e76f      	b.n	800304a <z_thread_abort+0x42>
 800316a:	bf00      	nop
 800316c:	20000400 	.word	0x20000400
 8003170:	200001e8 	.word	0x200001e8

08003174 <z_time_slice_size>:
#endif
	return ret;
}

static int z_time_slice_size(struct k_thread *thread)
{
 8003174:	4603      	mov	r3, r0
	uint8_t state = thread->base.thread_state;
 8003176:	7c02      	ldrb	r2, [r0, #16]
	if (z_is_thread_prevented_from_running(thread) ||
 8003178:	f012 0f1f 	tst.w	r2, #31
 800317c:	d110      	bne.n	80031a0 <z_time_slice_size+0x2c>
 800317e:	4a0b      	ldr	r2, [pc, #44]	@ (80031ac <z_time_slice_size+0x38>)
 8003180:	4290      	cmp	r0, r2
 8003182:	d00f      	beq.n	80031a4 <z_time_slice_size+0x30>
	int ret = slice_ticks;
 8003184:	4a0a      	ldr	r2, [pc, #40]	@ (80031b0 <z_time_slice_size+0x3c>)
 8003186:	6810      	ldr	r0, [r2, #0]
	    z_is_idle_thread_object(thread) ||
 8003188:	b178      	cbz	r0, 80031aa <z_time_slice_size+0x36>
	return thread->base.preempt <= _PREEMPT_THRESHOLD;
 800318a:	89da      	ldrh	r2, [r3, #14]
	if (thread->base.slice_ticks != 0) {
		return thread->base.slice_ticks;
	}
#endif

	if (thread_is_preemptible(thread) &&
 800318c:	2a7f      	cmp	r2, #127	@ 0x7f
 800318e:	d80b      	bhi.n	80031a8 <z_time_slice_size+0x34>
	    !z_is_prio_higher(thread->base.prio, slice_max_prio)) {
 8003190:	f993 200e 	ldrsb.w	r2, [r3, #14]
 8003194:	4b07      	ldr	r3, [pc, #28]	@ (80031b4 <z_time_slice_size+0x40>)
 8003196:	681b      	ldr	r3, [r3, #0]
	if (thread_is_preemptible(thread) &&
 8003198:	429a      	cmp	r2, r3
 800319a:	da06      	bge.n	80031aa <z_time_slice_size+0x36>
		return slice_ticks;
	}

	return 0;
 800319c:	2000      	movs	r0, #0
 800319e:	4770      	bx	lr
		return 0;
 80031a0:	2000      	movs	r0, #0
 80031a2:	4770      	bx	lr
 80031a4:	2000      	movs	r0, #0
 80031a6:	4770      	bx	lr
	return 0;
 80031a8:	2000      	movs	r0, #0
}
 80031aa:	4770      	bx	lr
 80031ac:	20000088 	.word	0x20000088
 80031b0:	20000050 	.word	0x20000050
 80031b4:	2000042c 	.word	0x2000042c

080031b8 <slice_timeout>:

static void slice_timeout(struct _timeout *timeout)
{
	int cpu = ARRAY_INDEX(slice_timeouts, timeout);
 80031b8:	4b04      	ldr	r3, [pc, #16]	@ (80031cc <slice_timeout+0x14>)
 80031ba:	1ac0      	subs	r0, r0, r3
 80031bc:	10c0      	asrs	r0, r0, #3
 80031be:	4b04      	ldr	r3, [pc, #16]	@ (80031d0 <slice_timeout+0x18>)
 80031c0:	fb03 f000 	mul.w	r0, r3, r0

	slice_expired[cpu] = true;
 80031c4:	4b03      	ldr	r3, [pc, #12]	@ (80031d4 <slice_timeout+0x1c>)
 80031c6:	2201      	movs	r2, #1
 80031c8:	541a      	strb	r2, [r3, r0]
	 * for a different CPU.
	 */
	if (cpu != _current_cpu->id) {
		flag_ipi(IPI_CPU_MASK(cpu));
	}
}
 80031ca:	4770      	bx	lr
 80031cc:	20000298 	.word	0x20000298
 80031d0:	aaaaaaab 	.word	0xaaaaaaab
 80031d4:	20000428 	.word	0x20000428

080031d8 <z_reset_time_slice>:

void z_reset_time_slice(struct k_thread *thread)
{
 80031d8:	b570      	push	{r4, r5, r6, lr}
	int cpu = _current_cpu->id;
 80031da:	4b0c      	ldr	r3, [pc, #48]	@ (800320c <z_reset_time_slice+0x34>)
 80031dc:	7c1e      	ldrb	r6, [r3, #16]
	int slice_size = z_time_slice_size(thread);
 80031de:	f7ff ffc9 	bl	8003174 <z_time_slice_size>
 80031e2:	4604      	mov	r4, r0

	z_abort_timeout(&slice_timeouts[cpu]);
 80031e4:	eb06 0346 	add.w	r3, r6, r6, lsl #1
 80031e8:	4d09      	ldr	r5, [pc, #36]	@ (8003210 <z_reset_time_slice+0x38>)
 80031ea:	eb05 05c3 	add.w	r5, r5, r3, lsl #3
 80031ee:	4628      	mov	r0, r5
 80031f0:	f002 f917 	bl	8005422 <z_abort_timeout>
	slice_expired[cpu] = false;
 80031f4:	4b07      	ldr	r3, [pc, #28]	@ (8003214 <z_reset_time_slice+0x3c>)
 80031f6:	2200      	movs	r2, #0
 80031f8:	559a      	strb	r2, [r3, r6]
	if (slice_size != 0) {
 80031fa:	b904      	cbnz	r4, 80031fe <z_reset_time_slice+0x26>
		z_add_timeout(&slice_timeouts[cpu], slice_timeout,
			      K_TICKS(slice_size - 1));
	}
}
 80031fc:	bd70      	pop	{r4, r5, r6, pc}
			      K_TICKS(slice_size - 1));
 80031fe:	1e62      	subs	r2, r4, #1
		z_add_timeout(&slice_timeouts[cpu], slice_timeout,
 8003200:	17d3      	asrs	r3, r2, #31
 8003202:	4905      	ldr	r1, [pc, #20]	@ (8003218 <z_reset_time_slice+0x40>)
 8003204:	4628      	mov	r0, r5
 8003206:	f000 f881 	bl	800330c <z_add_timeout>
}
 800320a:	e7f7      	b.n	80031fc <z_reset_time_slice+0x24>
 800320c:	20000400 	.word	0x20000400
 8003210:	20000298 	.word	0x20000298
 8003214:	20000428 	.word	0x20000428
 8003218:	080031b9 	.word	0x080031b9

0800321c <z_time_slice>:
}
#endif

/* Called out of each timer and IPI interrupt */
void z_time_slice(void)
{
 800321c:	b538      	push	{r3, r4, r5, lr}
  __ASM volatile ("MRS %0, basepri" : "=r" (result) );
 800321e:	f3ef 8511 	mrs	r5, BASEPRI
  __ASM volatile ("MSR basepri_max, %0" : : "r" (basePri) : "memory");
 8003222:	2310      	movs	r3, #16
 8003224:	f383 8812 	msr	BASEPRI_MAX, r3
 8003228:	f3bf 8f6f 	isb	sy
	k_spinlock_key_t key = k_spin_lock(&_sched_spinlock);
	struct k_thread *curr = _current;
 800322c:	4b14      	ldr	r3, [pc, #80]	@ (8003280 <z_time_slice+0x64>)
 800322e:	689c      	ldr	r4, [r3, #8]

#ifdef CONFIG_SWAP_NONATOMIC
	if (pending_current == curr) {
 8003230:	4b14      	ldr	r3, [pc, #80]	@ (8003284 <z_time_slice+0x68>)
 8003232:	681b      	ldr	r3, [r3, #0]
 8003234:	42a3      	cmp	r3, r4
 8003236:	d017      	beq.n	8003268 <z_time_slice+0x4c>
		z_reset_time_slice(curr);
		k_spin_unlock(&_sched_spinlock, key);
		return;
	}
	pending_current = NULL;
 8003238:	4b12      	ldr	r3, [pc, #72]	@ (8003284 <z_time_slice+0x68>)
 800323a:	2200      	movs	r2, #0
 800323c:	601a      	str	r2, [r3, #0]
#endif

	if (slice_expired[_current_cpu->id] && (z_time_slice_size(curr) != 0)) {
 800323e:	4b10      	ldr	r3, [pc, #64]	@ (8003280 <z_time_slice+0x64>)
 8003240:	7c1b      	ldrb	r3, [r3, #16]
 8003242:	4a11      	ldr	r2, [pc, #68]	@ (8003288 <z_time_slice+0x6c>)
 8003244:	5cd3      	ldrb	r3, [r2, r3]
 8003246:	b153      	cbz	r3, 800325e <z_time_slice+0x42>
 8003248:	4620      	mov	r0, r4
 800324a:	f7ff ff93 	bl	8003174 <z_time_slice_size>
 800324e:	b130      	cbz	r0, 800325e <z_time_slice+0x42>
	uint8_t state = thread->base.thread_state;
 8003250:	7c23      	ldrb	r3, [r4, #16]
			k_spin_unlock(&_sched_spinlock, key);
			handler(curr, curr->base.slice_data);
			key = k_spin_lock(&_sched_spinlock);
		}
#endif
		if (!z_is_thread_prevented_from_running(curr)) {
 8003252:	f013 0f1f 	tst.w	r3, #31
 8003256:	d00f      	beq.n	8003278 <z_time_slice+0x5c>
			move_current_to_end_of_prio_q();
		}
		z_reset_time_slice(curr);
 8003258:	4620      	mov	r0, r4
 800325a:	f7ff ffbd 	bl	80031d8 <z_reset_time_slice>
  __ASM volatile ("MSR basepri, %0" : : "r" (basePri) : "memory");
 800325e:	f385 8811 	msr	BASEPRI, r5
 8003262:	f3bf 8f6f 	isb	sy
	}
	k_spin_unlock(&_sched_spinlock, key);
}
 8003266:	bd38      	pop	{r3, r4, r5, pc}
		z_reset_time_slice(curr);
 8003268:	4620      	mov	r0, r4
 800326a:	f7ff ffb5 	bl	80031d8 <z_reset_time_slice>
 800326e:	f385 8811 	msr	BASEPRI, r5
 8003272:	f3bf 8f6f 	isb	sy
		return;
 8003276:	e7f6      	b.n	8003266 <z_time_slice+0x4a>
			move_current_to_end_of_prio_q();
 8003278:	f7ff fe06 	bl	8002e88 <move_current_to_end_of_prio_q>
 800327c:	e7ec      	b.n	8003258 <z_time_slice+0x3c>
 800327e:	bf00      	nop
 8003280:	20000400 	.word	0x20000400
 8003284:	20000424 	.word	0x20000424
 8003288:	20000428 	.word	0x20000428

0800328c <z_thread_monitor_exit>:
  __ASM volatile ("MRS %0, basepri" : "=r" (result) );
 800328c:	f3ef 8111 	mrs	r1, BASEPRI
  __ASM volatile ("MSR basepri_max, %0" : : "r" (basePri) : "memory");
 8003290:	2310      	movs	r3, #16
 8003292:	f383 8812 	msr	BASEPRI_MAX, r3
 8003296:	f3bf 8f6f 	isb	sy
 */
void z_thread_monitor_exit(struct k_thread *thread)
{
	k_spinlock_key_t key = k_spin_lock(&z_thread_monitor_lock);

	if (thread == _kernel.threads) {
 800329a:	4b0a      	ldr	r3, [pc, #40]	@ (80032c4 <z_thread_monitor_exit+0x38>)
 800329c:	6a1b      	ldr	r3, [r3, #32]
 800329e:	4283      	cmp	r3, r0
 80032a0:	d104      	bne.n	80032ac <z_thread_monitor_exit+0x20>
		_kernel.threads = _kernel.threads->next_thread;
 80032a2:	6f1a      	ldr	r2, [r3, #112]	@ 0x70
 80032a4:	4b07      	ldr	r3, [pc, #28]	@ (80032c4 <z_thread_monitor_exit+0x38>)
 80032a6:	621a      	str	r2, [r3, #32]
 80032a8:	e007      	b.n	80032ba <z_thread_monitor_exit+0x2e>
		struct k_thread *prev_thread;

		prev_thread = _kernel.threads;
		while ((prev_thread != NULL) &&
			(thread != prev_thread->next_thread)) {
			prev_thread = prev_thread->next_thread;
 80032aa:	4613      	mov	r3, r2
		while ((prev_thread != NULL) &&
 80032ac:	b113      	cbz	r3, 80032b4 <z_thread_monitor_exit+0x28>
			(thread != prev_thread->next_thread)) {
 80032ae:	6f1a      	ldr	r2, [r3, #112]	@ 0x70
		while ((prev_thread != NULL) &&
 80032b0:	4282      	cmp	r2, r0
 80032b2:	d1fa      	bne.n	80032aa <z_thread_monitor_exit+0x1e>
		}
		if (prev_thread != NULL) {
 80032b4:	b10b      	cbz	r3, 80032ba <z_thread_monitor_exit+0x2e>
			prev_thread->next_thread = thread->next_thread;
 80032b6:	6f02      	ldr	r2, [r0, #112]	@ 0x70
 80032b8:	671a      	str	r2, [r3, #112]	@ 0x70
  __ASM volatile ("MSR basepri, %0" : : "r" (basePri) : "memory");
 80032ba:	f381 8811 	msr	BASEPRI, r1
 80032be:	f3bf 8f6f 	isb	sy
		}
	}

	k_spin_unlock(&z_thread_monitor_lock, key);
}
 80032c2:	4770      	bx	lr
 80032c4:	20000400 	.word	0x20000400

080032c8 <first>:
	return list->head == list;
 80032c8:	4b03      	ldr	r3, [pc, #12]	@ (80032d8 <first+0x10>)
 80032ca:	6818      	ldr	r0, [r3, #0]
	return sys_dlist_is_empty(list) ? NULL : list->head;
 80032cc:	4298      	cmp	r0, r3
 80032ce:	d000      	beq.n	80032d2 <first+0xa>
static struct _timeout *first(void)
{
	sys_dnode_t *t = sys_dlist_peek_head(&timeout_list);

	return (t == NULL) ? NULL : CONTAINER_OF(t, struct _timeout, node);
}
 80032d0:	4770      	bx	lr
 80032d2:	2000      	movs	r0, #0
	return (t == NULL) ? NULL : CONTAINER_OF(t, struct _timeout, node);
 80032d4:	e7fc      	b.n	80032d0 <first+0x8>
 80032d6:	bf00      	nop
 80032d8:	20000054 	.word	0x20000054

080032dc <next>:
	return (node != NULL) ? sys_dlist_peek_next_no_check(list, node) : NULL;
 80032dc:	b130      	cbz	r0, 80032ec <next+0x10>
	return (node == list->tail) ? NULL : node->next;
 80032de:	4a04      	ldr	r2, [pc, #16]	@ (80032f0 <next+0x14>)
 80032e0:	6852      	ldr	r2, [r2, #4]
 80032e2:	4290      	cmp	r0, r2
 80032e4:	d001      	beq.n	80032ea <next+0xe>
 80032e6:	6800      	ldr	r0, [r0, #0]
 80032e8:	4770      	bx	lr
 80032ea:	2000      	movs	r0, #0
static struct _timeout *next(struct _timeout *t)
{
	sys_dnode_t *n = sys_dlist_peek_next(&timeout_list, &t->node);

	return (n == NULL) ? NULL : CONTAINER_OF(n, struct _timeout, node);
}
 80032ec:	4770      	bx	lr
 80032ee:	bf00      	nop
 80032f0:	20000054 	.word	0x20000054

080032f4 <elapsed>:

	sys_dlist_remove(&t->node);
}

static int32_t elapsed(void)
{
 80032f4:	b508      	push	{r3, lr}
	 *
	 * The distinction is implemented by looking at announce_remaining which
	 * will be non-zero while sys_clock_announce() is executing and zero
	 * otherwise.
	 */
	return announce_remaining == 0 ? sys_clock_elapsed() : 0U;
 80032f6:	4b04      	ldr	r3, [pc, #16]	@ (8003308 <elapsed+0x14>)
 80032f8:	681b      	ldr	r3, [r3, #0]
 80032fa:	b10b      	cbz	r3, 8003300 <elapsed+0xc>
 80032fc:	2000      	movs	r0, #0
}
 80032fe:	bd08      	pop	{r3, pc}
	return announce_remaining == 0 ? sys_clock_elapsed() : 0U;
 8003300:	f7ff f9bc 	bl	800267c <sys_clock_elapsed>
 8003304:	e7fb      	b.n	80032fe <elapsed+0xa>
 8003306:	bf00      	nop
 8003308:	20000430 	.word	0x20000430

0800330c <z_add_timeout>:

	return ret;
}

k_ticks_t z_add_timeout(struct _timeout *to, _timeout_func_t fn, k_timeout_t timeout)
{
 800330c:	e92d 4ff0 	stmdb	sp!, {r4, r5, r6, r7, r8, r9, sl, fp, lr}
 8003310:	b083      	sub	sp, #12
	k_ticks_t ticks = 0;

	if (K_TIMEOUT_EQ(timeout, K_FOREVER)) {
 8003312:	f1b3 3fff 	cmp.w	r3, #4294967295
 8003316:	bf08      	it	eq
 8003318:	f1b2 3fff 	cmpeq.w	r2, #4294967295
 800331c:	d00e      	beq.n	800333c <z_add_timeout+0x30>
 800331e:	4604      	mov	r4, r0
 8003320:	4691      	mov	r9, r2
 8003322:	461f      	mov	r7, r3
#ifdef CONFIG_KERNEL_COHERENCE
	__ASSERT_NO_MSG(sys_cache_is_mem_coherent(to));
#endif /* CONFIG_KERNEL_COHERENCE */

	__ASSERT(!sys_dnode_is_linked(&to->node), "");
	to->fn = fn;
 8003324:	6081      	str	r1, [r0, #8]

	K_SPINLOCK(&timeout_lock) {
 8003326:	2300      	movs	r3, #0
  __ASM volatile ("MRS %0, basepri" : "=r" (result) );
 8003328:	f3ef 8a11 	mrs	sl, BASEPRI
  __ASM volatile ("MSR basepri_max, %0" : : "r" (basePri) : "memory");
 800332c:	2210      	movs	r2, #16
 800332e:	f382 8812 	msr	BASEPRI_MAX, r2
 8003332:	f3bf 8f6f 	isb	sy
	k_ticks_t ticks = 0;
 8003336:	461d      	mov	r5, r3
 8003338:	9301      	str	r3, [sp, #4]
 800333a:	e035      	b.n	80033a8 <z_add_timeout+0x9c>
		return 0;
 800333c:	2500      	movs	r5, #0
 800333e:	9501      	str	r5, [sp, #4]
			sys_clock_set_timeout(next_timeout(ticks_elapsed), false);
		}
	}

	return ticks;
}
 8003340:	4628      	mov	r0, r5
 8003342:	9901      	ldr	r1, [sp, #4]
 8003344:	b003      	add	sp, #12
 8003346:	e8bd 8ff0 	ldmia.w	sp!, {r4, r5, r6, r7, r8, r9, sl, fp, pc}
			ticks_elapsed = elapsed();
 800334a:	f7ff ffd3 	bl	80032f4 <elapsed>
 800334e:	4680      	mov	r8, r0
			to->dticks = timeout.ticks + 1 + ticks_elapsed;
 8003350:	3501      	adds	r5, #1
 8003352:	f147 0600 	adc.w	r6, r7, #0
 8003356:	1945      	adds	r5, r0, r5
 8003358:	eb46 76e0 	adc.w	r6, r6, r0, asr #31
 800335c:	6125      	str	r5, [r4, #16]
 800335e:	6166      	str	r6, [r4, #20]
			ticks = curr_tick + to->dticks;
 8003360:	4a34      	ldr	r2, [pc, #208]	@ (8003434 <z_add_timeout+0x128>)
 8003362:	6813      	ldr	r3, [r2, #0]
 8003364:	6852      	ldr	r2, [r2, #4]
 8003366:	18ed      	adds	r5, r5, r3
 8003368:	eb46 0302 	adc.w	r3, r6, r2
 800336c:	9301      	str	r3, [sp, #4]
			has_elapsed = true;
 800336e:	f04f 0b01 	mov.w	fp, #1
 8003372:	e038      	b.n	80033e6 <z_add_timeout+0xda>
				t->dticks -= to->dticks;
 8003374:	1ac9      	subs	r1, r1, r3
 8003376:	eb66 0202 	sbc.w	r2, r6, r2
 800337a:	6101      	str	r1, [r0, #16]
 800337c:	6142      	str	r2, [r0, #20]
	sys_dnode_t *const prev = successor->prev;
 800337e:	6843      	ldr	r3, [r0, #4]
	node->prev = prev;
 8003380:	6063      	str	r3, [r4, #4]
	node->next = successor;
 8003382:	6020      	str	r0, [r4, #0]
	prev->next = node;
 8003384:	601c      	str	r4, [r3, #0]
	successor->prev = node;
 8003386:	6044      	str	r4, [r0, #4]
		if (t == NULL) {
 8003388:	e005      	b.n	8003396 <z_add_timeout+0x8a>
	sys_dnode_t *const tail = list->tail;
 800338a:	4b2b      	ldr	r3, [pc, #172]	@ (8003438 <z_add_timeout+0x12c>)
 800338c:	685a      	ldr	r2, [r3, #4]
	node->next = list;
 800338e:	6023      	str	r3, [r4, #0]
	node->prev = tail;
 8003390:	6062      	str	r2, [r4, #4]
	tail->next = node;
 8003392:	6014      	str	r4, [r2, #0]
	list->tail = node;
 8003394:	605c      	str	r4, [r3, #4]
		if (to == first() && announce_remaining == 0) {
 8003396:	f7ff ff97 	bl	80032c8 <first>
 800339a:	4284      	cmp	r4, r0
 800339c:	d037      	beq.n	800340e <z_add_timeout+0x102>
  __ASM volatile ("MSR basepri, %0" : : "r" (basePri) : "memory");
 800339e:	f38a 8811 	msr	BASEPRI, sl
 80033a2:	f3bf 8f6f 	isb	sy
	K_SPINLOCK(&timeout_lock) {
 80033a6:	2301      	movs	r3, #1
 80033a8:	2b00      	cmp	r3, #0
 80033aa:	d1c9      	bne.n	8003340 <z_add_timeout+0x34>
		if (Z_IS_TIMEOUT_RELATIVE(timeout)) {
 80033ac:	464d      	mov	r5, r9
 80033ae:	9701      	str	r7, [sp, #4]
 80033b0:	2f00      	cmp	r7, #0
 80033b2:	daca      	bge.n	800334a <z_add_timeout+0x3e>
			k_ticks_t dticks = Z_TICK_ABS(timeout.ticks) - curr_tick;
 80033b4:	4b1f      	ldr	r3, [pc, #124]	@ (8003434 <z_add_timeout+0x128>)
 80033b6:	6819      	ldr	r1, [r3, #0]
 80033b8:	685b      	ldr	r3, [r3, #4]
 80033ba:	1869      	adds	r1, r5, r1
 80033bc:	eb43 0307 	adc.w	r3, r3, r7
 80033c0:	f06f 0201 	mvn.w	r2, #1
 80033c4:	1a52      	subs	r2, r2, r1
 80033c6:	f04f 31ff 	mov.w	r1, #4294967295
 80033ca:	eb61 0303 	sbc.w	r3, r1, r3
			to->dticks = max(1, dticks);
 80033ce:	4610      	mov	r0, r2
 80033d0:	4619      	mov	r1, r3
 80033d2:	2a01      	cmp	r2, #1
 80033d4:	f173 0300 	sbcs.w	r3, r3, #0
 80033d8:	da01      	bge.n	80033de <z_add_timeout+0xd2>
 80033da:	2001      	movs	r0, #1
 80033dc:	2100      	movs	r1, #0
 80033de:	6120      	str	r0, [r4, #16]
 80033e0:	6161      	str	r1, [r4, #20]
		bool has_elapsed = false;
 80033e2:	f04f 0b00 	mov.w	fp, #0
		for (t = first(); t != NULL; t = next(t)) {
 80033e6:	f7ff ff6f 	bl	80032c8 <first>
 80033ea:	2800      	cmp	r0, #0
 80033ec:	d0cd      	beq.n	800338a <z_add_timeout+0x7e>
			if (t->dticks > to->dticks) {
 80033ee:	6901      	ldr	r1, [r0, #16]
 80033f0:	6946      	ldr	r6, [r0, #20]
 80033f2:	6923      	ldr	r3, [r4, #16]
 80033f4:	6962      	ldr	r2, [r4, #20]
 80033f6:	428b      	cmp	r3, r1
 80033f8:	eb72 0e06 	sbcs.w	lr, r2, r6
 80033fc:	dbba      	blt.n	8003374 <z_add_timeout+0x68>
			to->dticks -= t->dticks;
 80033fe:	1a5b      	subs	r3, r3, r1
 8003400:	eb62 0206 	sbc.w	r2, r2, r6
 8003404:	6123      	str	r3, [r4, #16]
 8003406:	6162      	str	r2, [r4, #20]
		for (t = first(); t != NULL; t = next(t)) {
 8003408:	f7ff ff68 	bl	80032dc <next>
 800340c:	e7ed      	b.n	80033ea <z_add_timeout+0xde>
		if (to == first() && announce_remaining == 0) {
 800340e:	4b0b      	ldr	r3, [pc, #44]	@ (800343c <z_add_timeout+0x130>)
 8003410:	681b      	ldr	r3, [r3, #0]
 8003412:	2b00      	cmp	r3, #0
 8003414:	d1c3      	bne.n	800339e <z_add_timeout+0x92>
			if (!has_elapsed) {
 8003416:	f1bb 0f00 	cmp.w	fp, #0
 800341a:	d006      	beq.n	800342a <z_add_timeout+0x11e>
			sys_clock_set_timeout(next_timeout(ticks_elapsed), false);
 800341c:	4640      	mov	r0, r8
 800341e:	f001 ffe5 	bl	80053ec <next_timeout>
 8003422:	2100      	movs	r1, #0
 8003424:	f7ff f89a 	bl	800255c <sys_clock_set_timeout>
 8003428:	e7b9      	b.n	800339e <z_add_timeout+0x92>
				ticks_elapsed = elapsed();
 800342a:	f7ff ff63 	bl	80032f4 <elapsed>
 800342e:	4680      	mov	r8, r0
 8003430:	e7f4      	b.n	800341c <z_add_timeout+0x110>
 8003432:	bf00      	nop
 8003434:	200002b0 	.word	0x200002b0
 8003438:	20000054 	.word	0x20000054
 800343c:	20000430 	.word	0x20000430

08003440 <sys_clock_announce>:
	}
	return ret;
}

void sys_clock_announce(int32_t ticks)
{
 8003440:	b570      	push	{r4, r5, r6, lr}
  __ASM volatile ("MRS %0, basepri" : "=r" (result) );
 8003442:	f3ef 8611 	mrs	r6, BASEPRI
  __ASM volatile ("MSR basepri_max, %0" : : "r" (basePri) : "memory");
 8003446:	2310      	movs	r3, #16
 8003448:	f383 8812 	msr	BASEPRI_MAX, r3
 800344c:	f3bf 8f6f 	isb	sy
		announce_remaining += ticks;
		k_spin_unlock(&timeout_lock, key);
		return;
	}

	announce_remaining = ticks;
 8003450:	4b2a      	ldr	r3, [pc, #168]	@ (80034fc <sys_clock_announce+0xbc>)
 8003452:	6018      	str	r0, [r3, #0]

	struct _timeout *t;

	for (t = first();
 8003454:	f7ff ff38 	bl	80032c8 <first>
 8003458:	4604      	mov	r4, r0
 800345a:	e023      	b.n	80034a4 <sys_clock_announce+0x64>
	     (t != NULL) && (t->dticks <= announce_remaining);
	     t = first()) {
		int dt = t->dticks;

		curr_tick += dt;
 800345c:	4a28      	ldr	r2, [pc, #160]	@ (8003500 <sys_clock_announce+0xc0>)
 800345e:	6813      	ldr	r3, [r2, #0]
 8003460:	6851      	ldr	r1, [r2, #4]
 8003462:	195b      	adds	r3, r3, r5
 8003464:	eb41 71e5 	adc.w	r1, r1, r5, asr #31
 8003468:	6013      	str	r3, [r2, #0]
 800346a:	6051      	str	r1, [r2, #4]
		t->dticks = 0;
 800346c:	2200      	movs	r2, #0
 800346e:	2300      	movs	r3, #0
 8003470:	e9c4 2304 	strd	r2, r3, [r4, #16]
		remove_timeout(t);
 8003474:	4620      	mov	r0, r4
 8003476:	f001 ffa2 	bl	80053be <remove_timeout>
  __ASM volatile ("MSR basepri, %0" : : "r" (basePri) : "memory");
 800347a:	f386 8811 	msr	BASEPRI, r6
 800347e:	f3bf 8f6f 	isb	sy

		k_spin_unlock(&timeout_lock, key);
		t->fn(t);
 8003482:	68a3      	ldr	r3, [r4, #8]
 8003484:	4620      	mov	r0, r4
 8003486:	4798      	blx	r3
  __ASM volatile ("MRS %0, basepri" : "=r" (result) );
 8003488:	f3ef 8611 	mrs	r6, BASEPRI
  __ASM volatile ("MSR basepri_max, %0" : : "r" (basePri) : "memory");
 800348c:	2310      	movs	r3, #16
 800348e:	f383 8812 	msr	BASEPRI_MAX, r3
 8003492:	f3bf 8f6f 	isb	sy
		key = k_spin_lock(&timeout_lock);
		announce_remaining -= dt;
 8003496:	4a19      	ldr	r2, [pc, #100]	@ (80034fc <sys_clock_announce+0xbc>)
 8003498:	6813      	ldr	r3, [r2, #0]
 800349a:	1b5b      	subs	r3, r3, r5
 800349c:	6013      	str	r3, [r2, #0]
	     t = first()) {
 800349e:	f7ff ff13 	bl	80032c8 <first>
 80034a2:	4604      	mov	r4, r0
	     (t != NULL) && (t->dticks <= announce_remaining);
 80034a4:	b13c      	cbz	r4, 80034b6 <sys_clock_announce+0x76>
 80034a6:	6925      	ldr	r5, [r4, #16]
 80034a8:	6961      	ldr	r1, [r4, #20]
 80034aa:	4b14      	ldr	r3, [pc, #80]	@ (80034fc <sys_clock_announce+0xbc>)
 80034ac:	681a      	ldr	r2, [r3, #0]
 80034ae:	17d3      	asrs	r3, r2, #31
 80034b0:	42aa      	cmp	r2, r5
 80034b2:	418b      	sbcs	r3, r1
 80034b4:	dad2      	bge.n	800345c <sys_clock_announce+0x1c>
	}

	if (t != NULL) {
 80034b6:	b144      	cbz	r4, 80034ca <sys_clock_announce+0x8a>
		t->dticks -= announce_remaining;
 80034b8:	6923      	ldr	r3, [r4, #16]
 80034ba:	6962      	ldr	r2, [r4, #20]
 80034bc:	490f      	ldr	r1, [pc, #60]	@ (80034fc <sys_clock_announce+0xbc>)
 80034be:	6809      	ldr	r1, [r1, #0]
 80034c0:	1a5b      	subs	r3, r3, r1
 80034c2:	eb62 72e1 	sbc.w	r2, r2, r1, asr #31
 80034c6:	6123      	str	r3, [r4, #16]
 80034c8:	6162      	str	r2, [r4, #20]
	}

	curr_tick += announce_remaining;
 80034ca:	4a0d      	ldr	r2, [pc, #52]	@ (8003500 <sys_clock_announce+0xc0>)
 80034cc:	4d0b      	ldr	r5, [pc, #44]	@ (80034fc <sys_clock_announce+0xbc>)
 80034ce:	6828      	ldr	r0, [r5, #0]
 80034d0:	6813      	ldr	r3, [r2, #0]
 80034d2:	6851      	ldr	r1, [r2, #4]
 80034d4:	181b      	adds	r3, r3, r0
 80034d6:	eb41 71e0 	adc.w	r1, r1, r0, asr #31
 80034da:	6013      	str	r3, [r2, #0]
 80034dc:	6051      	str	r1, [r2, #4]
	announce_remaining = 0;
 80034de:	2400      	movs	r4, #0
 80034e0:	602c      	str	r4, [r5, #0]

	sys_clock_set_timeout(next_timeout(0), false);
 80034e2:	4620      	mov	r0, r4
 80034e4:	f001 ff82 	bl	80053ec <next_timeout>
 80034e8:	4621      	mov	r1, r4
 80034ea:	f7ff f837 	bl	800255c <sys_clock_set_timeout>
  __ASM volatile ("MSR basepri, %0" : : "r" (basePri) : "memory");
 80034ee:	f386 8811 	msr	BASEPRI, r6
 80034f2:	f3bf 8f6f 	isb	sy

	k_spin_unlock(&timeout_lock, key);

#ifdef CONFIG_TIMESLICING
	z_time_slice();
 80034f6:	f7ff fe91 	bl	800321c <z_time_slice>
#endif /* CONFIG_TIMESLICING */
}
 80034fa:	bd70      	pop	{r4, r5, r6, pc}
 80034fc:	20000430 	.word	0x20000430
 8003500:	200002b0 	.word	0x200002b0

08003504 <boot_banner>:
#define BANNER_VERSION KERNEL_VERSION_STRING
#endif /* BUILD_VERSION */
#endif /* !BANNER_VERSION */

void boot_banner(void)
{
 8003504:	b508      	push	{r3, lr}
	  */
	printk("\x1b[3J\x1b[2J\x1b[H");
#endif /* CONFIG_BOOT_CLEAR_SCREEN */

#ifdef CONFIG_BOOT_BANNER
	printk("*** " CONFIG_BOOT_BANNER_STRING " " BANNER_VERSION BANNER_POSTFIX " ***\n");
 8003506:	4802      	ldr	r0, [pc, #8]	@ (8003510 <boot_banner+0xc>)
 8003508:	f000 fe6f 	bl	80041ea <printk>
#endif /* CONFIG_BOOT_BANNER */
}
 800350c:	bd08      	pop	{r3, pc}
 800350e:	bf00      	nop
 8003510:	08006108 	.word	0x08006108

08003514 <memset>:
 8003514:	b570      	push	{r4, r5, r6, lr}
 8003516:	0786      	lsls	r6, r0, #30
 8003518:	d04f      	beq.n	80035ba <memset+0xa6>
 800351a:	1884      	adds	r4, r0, r2
 800351c:	4684      	mov	ip, r0
 800351e:	e004      	b.n	800352a <memset+0x16>
 8003520:	f803 1b01 	strb.w	r1, [r3], #1
 8003524:	079d      	lsls	r5, r3, #30
 8003526:	d004      	beq.n	8003532 <memset+0x1e>
 8003528:	469c      	mov	ip, r3
 800352a:	4564      	cmp	r4, ip
 800352c:	4663      	mov	r3, ip
 800352e:	d1f7      	bne.n	8003520 <memset+0xc>
 8003530:	bd70      	pop	{r4, r5, r6, pc}
 8003532:	3a01      	subs	r2, #1
 8003534:	4402      	add	r2, r0
 8003536:	eba2 020c 	sub.w	r2, r2, ip
 800353a:	2a03      	cmp	r2, #3
 800353c:	d92f      	bls.n	800359e <memset+0x8a>
 800353e:	b2cc      	uxtb	r4, r1
 8003540:	2a0f      	cmp	r2, #15
 8003542:	eb04 2404 	add.w	r4, r4, r4, lsl #8
 8003546:	eb04 4404 	add.w	r4, r4, r4, lsl #16
 800354a:	d938      	bls.n	80035be <memset+0xaa>
 800354c:	f1a2 0610 	sub.w	r6, r2, #16
 8003550:	469c      	mov	ip, r3
 8003552:	f04f 0e00 	mov.w	lr, #0
 8003556:	0935      	lsrs	r5, r6, #4
 8003558:	3501      	adds	r5, #1
 800355a:	f10e 0e01 	add.w	lr, lr, #1
 800355e:	45ae      	cmp	lr, r5
 8003560:	e9cc 4400 	strd	r4, r4, [ip]
 8003564:	e9cc 4402 	strd	r4, r4, [ip, #8]
 8003568:	f10c 0c10 	add.w	ip, ip, #16
 800356c:	d3f5      	bcc.n	800355a <memset+0x46>
 800356e:	f026 060f 	bic.w	r6, r6, #15
 8003572:	3310      	adds	r3, #16
 8003574:	f012 0f0c 	tst.w	r2, #12
 8003578:	f002 050f 	and.w	r5, r2, #15
 800357c:	4433      	add	r3, r6
 800357e:	d01a      	beq.n	80035b6 <memset+0xa2>
 8003580:	1f2a      	subs	r2, r5, #4
 8003582:	601c      	str	r4, [r3, #0]
 8003584:	2a03      	cmp	r2, #3
 8003586:	d905      	bls.n	8003594 <memset+0x80>
 8003588:	f1a5 0208 	sub.w	r2, r5, #8
 800358c:	605c      	str	r4, [r3, #4]
 800358e:	2a03      	cmp	r2, #3
 8003590:	bf88      	it	hi
 8003592:	609c      	strhi	r4, [r3, #8]
 8003594:	f005 0203 	and.w	r2, r5, #3
 8003598:	f025 0503 	bic.w	r5, r5, #3
 800359c:	442b      	add	r3, r5
 800359e:	1e54      	subs	r4, r2, #1
 80035a0:	2a00      	cmp	r2, #0
 80035a2:	d0c5      	beq.n	8003530 <memset+0x1c>
 80035a4:	b2c9      	uxtb	r1, r1
 80035a6:	7019      	strb	r1, [r3, #0]
 80035a8:	2c00      	cmp	r4, #0
 80035aa:	d0c1      	beq.n	8003530 <memset+0x1c>
 80035ac:	2c01      	cmp	r4, #1
 80035ae:	7059      	strb	r1, [r3, #1]
 80035b0:	bf18      	it	ne
 80035b2:	7099      	strbne	r1, [r3, #2]
 80035b4:	bd70      	pop	{r4, r5, r6, pc}
 80035b6:	462a      	mov	r2, r5
 80035b8:	e7f1      	b.n	800359e <memset+0x8a>
 80035ba:	4603      	mov	r3, r0
 80035bc:	e7bd      	b.n	800353a <memset+0x26>
 80035be:	4615      	mov	r5, r2
 80035c0:	e7de      	b.n	8003580 <memset+0x6c>
 80035c2:	bf00      	nop

080035c4 <strncpy>:
 80035c4:	b538      	push	{r3, r4, r5, lr}
 80035c6:	ea40 0301 	orr.w	r3, r0, r1
 80035ca:	4604      	mov	r4, r0
 80035cc:	079b      	lsls	r3, r3, #30
 80035ce:	d101      	bne.n	80035d4 <strncpy+0x10>
 80035d0:	2a03      	cmp	r2, #3
 80035d2:	d80e      	bhi.n	80035f2 <strncpy+0x2e>
 80035d4:	4620      	mov	r0, r4
 80035d6:	1e4b      	subs	r3, r1, #1
 80035d8:	b14a      	cbz	r2, 80035ee <strncpy+0x2a>
 80035da:	f813 1f01 	ldrb.w	r1, [r3, #1]!
 80035de:	3a01      	subs	r2, #1
 80035e0:	f800 1b01 	strb.w	r1, [r0], #1
 80035e4:	2900      	cmp	r1, #0
 80035e6:	d1f7      	bne.n	80035d8 <strncpy+0x14>
 80035e8:	b10a      	cbz	r2, 80035ee <strncpy+0x2a>
 80035ea:	f7ff ff93 	bl	8003514 <memset>
 80035ee:	4620      	mov	r0, r4
 80035f0:	bd38      	pop	{r3, r4, r5, pc}
 80035f2:	468c      	mov	ip, r1
 80035f4:	f8dc 5000 	ldr.w	r5, [ip]
 80035f8:	4661      	mov	r1, ip
 80035fa:	f10c 0c04 	add.w	ip, ip, #4
 80035fe:	f1a5 3301 	sub.w	r3, r5, #16843009	@ 0x1010101
 8003602:	ea23 0305 	bic.w	r3, r3, r5
 8003606:	f013 3f80 	tst.w	r3, #2155905152	@ 0x80808080
 800360a:	d1e4      	bne.n	80035d6 <strncpy+0x12>
 800360c:	3a04      	subs	r2, #4
 800360e:	f840 5b04 	str.w	r5, [r0], #4
 8003612:	2a03      	cmp	r2, #3
 8003614:	d8ee      	bhi.n	80035f4 <strncpy+0x30>
 8003616:	4661      	mov	r1, ip
 8003618:	e7dd      	b.n	80035d6 <strncpy+0x12>
 800361a:	bf00      	nop

0800361c <strnlen>:
 800361c:	b171      	cbz	r1, 800363c <strnlen+0x20>
 800361e:	4603      	mov	r3, r0
 8003620:	eb01 0c00 	add.w	ip, r1, r0
 8003624:	e001      	b.n	800362a <strnlen+0xe>
 8003626:	4563      	cmp	r3, ip
 8003628:	d006      	beq.n	8003638 <strnlen+0x1c>
 800362a:	461a      	mov	r2, r3
 800362c:	3301      	adds	r3, #1
 800362e:	7811      	ldrb	r1, [r2, #0]
 8003630:	2900      	cmp	r1, #0
 8003632:	d1f8      	bne.n	8003626 <strnlen+0xa>
 8003634:	1a10      	subs	r0, r2, r0
 8003636:	4770      	bx	lr
 8003638:	1a18      	subs	r0, r3, r0
 800363a:	4770      	bx	lr
 800363c:	4608      	mov	r0, r1
 800363e:	4770      	bx	lr

08003640 <printf>:
 8003640:	b40f      	push	{r0, r1, r2, r3}
 8003642:	b500      	push	{lr}
 8003644:	b083      	sub	sp, #12
 8003646:	4b06      	ldr	r3, [pc, #24]	@ (8003660 <printf+0x20>)
 8003648:	aa04      	add	r2, sp, #16
 800364a:	6818      	ldr	r0, [r3, #0]
 800364c:	f852 1b04 	ldr.w	r1, [r2], #4
 8003650:	9201      	str	r2, [sp, #4]
 8003652:	f000 f88f 	bl	8003774 <__l_vfprintf>
 8003656:	b003      	add	sp, #12
 8003658:	f85d eb04 	ldr.w	lr, [sp], #4
 800365c:	b004      	add	sp, #16
 800365e:	4770      	bx	lr
 8003660:	08006294 	.word	0x08006294

08003664 <__ultoa_invert>:
 8003664:	b530      	push	{r4, r5, lr}
 8003666:	468e      	mov	lr, r1
 8003668:	f003 011f 	and.w	r1, r3, #31
 800366c:	4684      	mov	ip, r0
 800366e:	2908      	cmp	r1, #8
 8003670:	d06c      	beq.n	800374c <__ultoa_invert+0xe8>
 8003672:	f1c3 0337 	rsb	r3, r3, #55	@ 0x37
 8003676:	2910      	cmp	r1, #16
 8003678:	4610      	mov	r0, r2
 800367a:	b2dc      	uxtb	r4, r3
 800367c:	d04a      	beq.n	8003714 <__ultoa_invert+0xb0>
 800367e:	ea4f 029c 	mov.w	r2, ip, lsr #2
 8003682:	ea4f 055c 	mov.w	r5, ip, lsr #1
 8003686:	ea42 728e 	orr.w	r2, r2, lr, lsl #30
 800368a:	ea45 75ce 	orr.w	r5, r5, lr, lsl #31
 800368e:	ea4f 015e 	mov.w	r1, lr, lsr #1
 8003692:	fa5f f38c 	uxtb.w	r3, ip
 8003696:	eb12 0c05 	adds.w	ip, r2, r5
 800369a:	eb41 019e 	adc.w	r1, r1, lr, lsr #2
 800369e:	ea4f 121c 	mov.w	r2, ip, lsr #4
 80036a2:	ea42 7201 	orr.w	r2, r2, r1, lsl #28
 80036a6:	eb12 0c0c 	adds.w	ip, r2, ip
 80036aa:	eb41 1111 	adc.w	r1, r1, r1, lsr #4
 80036ae:	ea4f 221c 	mov.w	r2, ip, lsr #8
 80036b2:	ea42 6201 	orr.w	r2, r2, r1, lsl #24
 80036b6:	eb12 020c 	adds.w	r2, r2, ip
 80036ba:	eb41 2111 	adc.w	r1, r1, r1, lsr #8
 80036be:	ea4f 4c12 	mov.w	ip, r2, lsr #16
 80036c2:	ea4c 4c01 	orr.w	ip, ip, r1, lsl #16
 80036c6:	eb1c 0c02 	adds.w	ip, ip, r2
 80036ca:	eb41 4111 	adc.w	r1, r1, r1, lsr #16
 80036ce:	eb11 0c0c 	adds.w	ip, r1, ip
 80036d2:	f141 0100 	adc.w	r1, r1, #0
 80036d6:	ea4f 0cdc 	mov.w	ip, ip, lsr #3
 80036da:	ea4c 7c41 	orr.w	ip, ip, r1, lsl #29
 80036de:	ea4f 0ed1 	mov.w	lr, r1, lsr #3
 80036e2:	eb0c 028c 	add.w	r2, ip, ip, lsl #2
 80036e6:	eba3 0342 	sub.w	r3, r3, r2, lsl #1
 80036ea:	b2db      	uxtb	r3, r3
 80036ec:	f1a3 020a 	sub.w	r2, r3, #10
 80036f0:	2b09      	cmp	r3, #9
 80036f2:	f103 0130 	add.w	r1, r3, #48	@ 0x30
 80036f6:	b2d2      	uxtb	r2, r2
 80036f8:	d922      	bls.n	8003740 <__ultoa_invert+0xdc>
 80036fa:	f11c 0c01 	adds.w	ip, ip, #1
 80036fe:	eb04 0102 	add.w	r1, r4, r2
 8003702:	f14e 0e00 	adc.w	lr, lr, #0
 8003706:	2a09      	cmp	r2, #9
 8003708:	f101 0230 	add.w	r2, r1, #48	@ 0x30
 800370c:	d92e      	bls.n	800376c <__ultoa_invert+0x108>
 800370e:	f800 2b01 	strb.w	r2, [r0], #1
 8003712:	e7b4      	b.n	800367e <__ultoa_invert+0x1a>
 8003714:	f00c 030f 	and.w	r3, ip, #15
 8003718:	ea4f 121c 	mov.w	r2, ip, lsr #4
 800371c:	ea4f 111e 	mov.w	r1, lr, lsr #4
 8003720:	2b09      	cmp	r3, #9
 8003722:	eb04 0503 	add.w	r5, r4, r3
 8003726:	ea42 720e 	orr.w	r2, r2, lr, lsl #28
 800372a:	468e      	mov	lr, r1
 800372c:	bf88      	it	hi
 800372e:	b2eb      	uxtbhi	r3, r5
 8003730:	4694      	mov	ip, r2
 8003732:	430a      	orrs	r2, r1
 8003734:	f103 0330 	add.w	r3, r3, #48	@ 0x30
 8003738:	f800 3b01 	strb.w	r3, [r0], #1
 800373c:	d1ea      	bne.n	8003714 <__ultoa_invert+0xb0>
 800373e:	bd30      	pop	{r4, r5, pc}
 8003740:	ea5c 030e 	orrs.w	r3, ip, lr
 8003744:	f800 1b01 	strb.w	r1, [r0], #1
 8003748:	d199      	bne.n	800367e <__ultoa_invert+0x1a>
 800374a:	bd30      	pop	{r4, r5, pc}
 800374c:	4610      	mov	r0, r2
 800374e:	f00c 0307 	and.w	r3, ip, #7
 8003752:	ea4f 0cdc 	mov.w	ip, ip, lsr #3
 8003756:	3330      	adds	r3, #48	@ 0x30
 8003758:	ea4c 7c4e 	orr.w	ip, ip, lr, lsl #29
 800375c:	ea4f 0ede 	mov.w	lr, lr, lsr #3
 8003760:	f800 3b01 	strb.w	r3, [r0], #1
 8003764:	ea5c 030e 	orrs.w	r3, ip, lr
 8003768:	d1f1      	bne.n	800374e <__ultoa_invert+0xea>
 800376a:	bd30      	pop	{r4, r5, pc}
 800376c:	3326      	adds	r3, #38	@ 0x26
 800376e:	f800 3b01 	strb.w	r3, [r0], #1
 8003772:	e784      	b.n	800367e <__ultoa_invert+0x1a>

08003774 <__l_vfprintf>:
 8003774:	e92d 4ff0 	stmdb	sp!, {r4, r5, r6, r7, r8, r9, sl, fp, lr}
 8003778:	7883      	ldrb	r3, [r0, #2]
 800377a:	b08b      	sub	sp, #44	@ 0x2c
 800377c:	f8d0 9004 	ldr.w	r9, [r0, #4]
 8003780:	079e      	lsls	r6, r3, #30
 8003782:	f140 8130 	bpl.w	80039e6 <__l_vfprintf+0x272>
 8003786:	460b      	mov	r3, r1
 8003788:	4680      	mov	r8, r0
 800378a:	460c      	mov	r4, r1
 800378c:	f813 0b01 	ldrb.w	r0, [r3], #1
 8003790:	2800      	cmp	r0, #0
 8003792:	f000 83d6 	beq.w	8003f42 <__l_vfprintf+0x7ce>
 8003796:	2600      	movs	r6, #0
 8003798:	9200      	str	r2, [sp, #0]
 800379a:	e00c      	b.n	80037b6 <__l_vfprintf+0x42>
 800379c:	461c      	mov	r4, r3
 800379e:	4641      	mov	r1, r8
 80037a0:	3601      	adds	r6, #1
 80037a2:	47c8      	blx	r9
 80037a4:	2800      	cmp	r0, #0
 80037a6:	f2c0 8118 	blt.w	80039da <__l_vfprintf+0x266>
 80037aa:	4623      	mov	r3, r4
 80037ac:	f813 0b01 	ldrb.w	r0, [r3], #1
 80037b0:	2800      	cmp	r0, #0
 80037b2:	f000 811a 	beq.w	80039ea <__l_vfprintf+0x276>
 80037b6:	2825      	cmp	r0, #37	@ 0x25
 80037b8:	d1f0      	bne.n	800379c <__l_vfprintf+0x28>
 80037ba:	7865      	ldrb	r5, [r4, #1]
 80037bc:	3402      	adds	r4, #2
 80037be:	2d25      	cmp	r5, #37	@ 0x25
 80037c0:	d0ed      	beq.n	800379e <__l_vfprintf+0x2a>
 80037c2:	f04f 0b00 	mov.w	fp, #0
 80037c6:	46da      	mov	sl, fp
 80037c8:	465f      	mov	r7, fp
 80037ca:	2f1f      	cmp	r7, #31
 80037cc:	d95d      	bls.n	800388a <__l_vfprintf+0x116>
 80037ce:	2f7f      	cmp	r7, #127	@ 0x7f
 80037d0:	f200 808a 	bhi.w	80038e8 <__l_vfprintf+0x174>
 80037d4:	f1a5 0330 	sub.w	r3, r5, #48	@ 0x30
 80037d8:	2b09      	cmp	r3, #9
 80037da:	d811      	bhi.n	8003800 <__l_vfprintf+0x8c>
 80037dc:	067d      	lsls	r5, r7, #25
 80037de:	f100 8132 	bmi.w	8003a46 <__l_vfprintf+0x2d2>
 80037e2:	eb0a 0a8a 	add.w	sl, sl, sl, lsl #2
 80037e6:	f814 5b01 	ldrb.w	r5, [r4], #1
 80037ea:	f047 0720 	orr.w	r7, r7, #32
 80037ee:	eb03 0a4a 	add.w	sl, r3, sl, lsl #1
 80037f2:	f1a5 0330 	sub.w	r3, r5, #48	@ 0x30
 80037f6:	2d00      	cmp	r5, #0
 80037f8:	f000 80e1 	beq.w	80039be <__l_vfprintf+0x24a>
 80037fc:	2b09      	cmp	r3, #9
 80037fe:	d9f0      	bls.n	80037e2 <__l_vfprintf+0x6e>
 8003800:	2d2a      	cmp	r5, #42	@ 0x2a
 8003802:	f000 810e 	beq.w	8003a22 <__l_vfprintf+0x2ae>
 8003806:	2d2e      	cmp	r5, #46	@ 0x2e
 8003808:	f000 816c 	beq.w	8003ae4 <__l_vfprintf+0x370>
 800380c:	f1a5 034c 	sub.w	r3, r5, #76	@ 0x4c
 8003810:	2b2e      	cmp	r3, #46	@ 0x2e
 8003812:	f200 8125 	bhi.w	8003a60 <__l_vfprintf+0x2ec>
 8003816:	e8df f013 	tbh	[pc, r3, lsl #1]
 800381a:	0061      	.short	0x0061
 800381c:	01230123 	.word	0x01230123
 8003820:	01230123 	.word	0x01230123
 8003824:	01230123 	.word	0x01230123
 8003828:	01230123 	.word	0x01230123
 800382c:	01230123 	.word	0x01230123
 8003830:	01230123 	.word	0x01230123
 8003834:	01230123 	.word	0x01230123
 8003838:	01230123 	.word	0x01230123
 800383c:	01230123 	.word	0x01230123
 8003840:	01230123 	.word	0x01230123
 8003844:	01230123 	.word	0x01230123
 8003848:	01230123 	.word	0x01230123
 800384c:	01230123 	.word	0x01230123
 8003850:	01510123 	.word	0x01510123
 8003854:	00610123 	.word	0x00610123
 8003858:	015d0123 	.word	0x015d0123
 800385c:	01230123 	.word	0x01230123
 8003860:	01230123 	.word	0x01230123
 8003864:	01230123 	.word	0x01230123
 8003868:	00cd0123 	.word	0x00cd0123
 800386c:	01230123 	.word	0x01230123
 8003870:	01230123 	.word	0x01230123
 8003874:	00cd0123 	.word	0x00cd0123
 8003878:	f047 0702 	orr.w	r7, r7, #2
 800387c:	f814 5b01 	ldrb.w	r5, [r4], #1
 8003880:	f047 0704 	orr.w	r7, r7, #4
 8003884:	2d00      	cmp	r5, #0
 8003886:	f000 809a 	beq.w	80039be <__l_vfprintf+0x24a>
 800388a:	f1a5 0320 	sub.w	r3, r5, #32
 800388e:	2b10      	cmp	r3, #16
 8003890:	d8a0      	bhi.n	80037d4 <__l_vfprintf+0x60>
 8003892:	a201      	add	r2, pc, #4	@ (adr r2, 8003898 <__l_vfprintf+0x124>)
 8003894:	f852 f023 	ldr.w	pc, [r2, r3, lsl #2]
 8003898:	0800387d 	.word	0x0800387d
 800389c:	080037d5 	.word	0x080037d5
 80038a0:	080037d5 	.word	0x080037d5
 80038a4:	080039f3 	.word	0x080039f3
 80038a8:	080037d5 	.word	0x080037d5
 80038ac:	080037d5 	.word	0x080037d5
 80038b0:	080037d5 	.word	0x080037d5
 80038b4:	080039b5 	.word	0x080039b5
 80038b8:	080037d5 	.word	0x080037d5
 80038bc:	080037d5 	.word	0x080037d5
 80038c0:	080037d5 	.word	0x080037d5
 80038c4:	08003879 	.word	0x08003879
 80038c8:	080037d5 	.word	0x080037d5
 80038cc:	08003a13 	.word	0x08003a13
 80038d0:	080037d5 	.word	0x080037d5
 80038d4:	080037d5 	.word	0x080037d5
 80038d8:	08003a03 	.word	0x08003a03
 80038dc:	f814 5b01 	ldrb.w	r5, [r4], #1
 80038e0:	f447 7720 	orr.w	r7, r7, #640	@ 0x280
 80038e4:	2d00      	cmp	r5, #0
 80038e6:	d06a      	beq.n	80039be <__l_vfprintf+0x24a>
 80038e8:	f1a5 034c 	sub.w	r3, r5, #76	@ 0x4c
 80038ec:	2b2e      	cmp	r3, #46	@ 0x2e
 80038ee:	f200 80b7 	bhi.w	8003a60 <__l_vfprintf+0x2ec>
 80038f2:	a201      	add	r2, pc, #4	@ (adr r2, 80038f8 <__l_vfprintf+0x184>)
 80038f4:	f852 f023 	ldr.w	pc, [r2, r3, lsl #2]
 80038f8:	080038dd 	.word	0x080038dd
 80038fc:	08003a61 	.word	0x08003a61
 8003900:	08003a61 	.word	0x08003a61
 8003904:	08003a61 	.word	0x08003a61
 8003908:	08003a61 	.word	0x08003a61
 800390c:	08003a61 	.word	0x08003a61
 8003910:	08003a61 	.word	0x08003a61
 8003914:	08003a61 	.word	0x08003a61
 8003918:	08003a61 	.word	0x08003a61
 800391c:	08003a61 	.word	0x08003a61
 8003920:	08003a61 	.word	0x08003a61
 8003924:	08003a61 	.word	0x08003a61
 8003928:	08003a61 	.word	0x08003a61
 800392c:	08003a61 	.word	0x08003a61
 8003930:	08003a61 	.word	0x08003a61
 8003934:	08003a61 	.word	0x08003a61
 8003938:	08003a61 	.word	0x08003a61
 800393c:	08003a61 	.word	0x08003a61
 8003940:	08003a61 	.word	0x08003a61
 8003944:	08003a61 	.word	0x08003a61
 8003948:	08003a61 	.word	0x08003a61
 800394c:	08003a61 	.word	0x08003a61
 8003950:	08003a61 	.word	0x08003a61
 8003954:	08003a61 	.word	0x08003a61
 8003958:	08003a61 	.word	0x08003a61
 800395c:	08003a61 	.word	0x08003a61
 8003960:	08003a61 	.word	0x08003a61
 8003964:	08003a61 	.word	0x08003a61
 8003968:	08003ab5 	.word	0x08003ab5
 800396c:	08003a61 	.word	0x08003a61
 8003970:	080038dd 	.word	0x080038dd
 8003974:	08003a61 	.word	0x08003a61
 8003978:	08003acd 	.word	0x08003acd
 800397c:	08003a61 	.word	0x08003a61
 8003980:	08003a61 	.word	0x08003a61
 8003984:	08003a61 	.word	0x08003a61
 8003988:	08003a61 	.word	0x08003a61
 800398c:	08003a61 	.word	0x08003a61
 8003990:	08003a61 	.word	0x08003a61
 8003994:	08003a61 	.word	0x08003a61
 8003998:	08003b99 	.word	0x08003b99
 800399c:	08003a61 	.word	0x08003a61
 80039a0:	08003a61 	.word	0x08003a61
 80039a4:	08003a61 	.word	0x08003a61
 80039a8:	08003a61 	.word	0x08003a61
 80039ac:	08003a61 	.word	0x08003a61
 80039b0:	08003b99 	.word	0x08003b99
 80039b4:	f814 5b01 	ldrb.w	r5, [r4], #1
 80039b8:	2d00      	cmp	r5, #0
 80039ba:	f47f af06 	bne.w	80037ca <__l_vfprintf+0x56>
 80039be:	2500      	movs	r5, #0
 80039c0:	4641      	mov	r1, r8
 80039c2:	2025      	movs	r0, #37	@ 0x25
 80039c4:	47c8      	blx	r9
 80039c6:	2800      	cmp	r0, #0
 80039c8:	db07      	blt.n	80039da <__l_vfprintf+0x266>
 80039ca:	4628      	mov	r0, r5
 80039cc:	4641      	mov	r1, r8
 80039ce:	47c8      	blx	r9
 80039d0:	2800      	cmp	r0, #0
 80039d2:	f106 0602 	add.w	r6, r6, #2
 80039d6:	f6bf aee8 	bge.w	80037aa <__l_vfprintf+0x36>
 80039da:	f898 3002 	ldrb.w	r3, [r8, #2]
 80039de:	f043 0304 	orr.w	r3, r3, #4
 80039e2:	f888 3002 	strb.w	r3, [r8, #2]
 80039e6:	f04f 36ff 	mov.w	r6, #4294967295
 80039ea:	4630      	mov	r0, r6
 80039ec:	b00b      	add	sp, #44	@ 0x2c
 80039ee:	e8bd 8ff0 	ldmia.w	sp!, {r4, r5, r6, r7, r8, r9, sl, fp, pc}
 80039f2:	f814 5b01 	ldrb.w	r5, [r4], #1
 80039f6:	f047 0710 	orr.w	r7, r7, #16
 80039fa:	2d00      	cmp	r5, #0
 80039fc:	f47f af45 	bne.w	800388a <__l_vfprintf+0x116>
 8003a00:	e7dd      	b.n	80039be <__l_vfprintf+0x24a>
 8003a02:	f814 5b01 	ldrb.w	r5, [r4], #1
 8003a06:	f047 0701 	orr.w	r7, r7, #1
 8003a0a:	2d00      	cmp	r5, #0
 8003a0c:	f47f af3d 	bne.w	800388a <__l_vfprintf+0x116>
 8003a10:	e7d5      	b.n	80039be <__l_vfprintf+0x24a>
 8003a12:	f814 5b01 	ldrb.w	r5, [r4], #1
 8003a16:	f047 0708 	orr.w	r7, r7, #8
 8003a1a:	2d00      	cmp	r5, #0
 8003a1c:	f47f af35 	bne.w	800388a <__l_vfprintf+0x116>
 8003a20:	e7cd      	b.n	80039be <__l_vfprintf+0x24a>
 8003a22:	9900      	ldr	r1, [sp, #0]
 8003a24:	0678      	lsls	r0, r7, #25
 8003a26:	f851 2b04 	ldr.w	r2, [r1], #4
 8003a2a:	f140 80c1 	bpl.w	8003bb0 <__l_vfprintf+0x43c>
 8003a2e:	f814 5b01 	ldrb.w	r5, [r4], #1
 8003a32:	2d00      	cmp	r5, #0
 8003a34:	f000 8234 	beq.w	8003ea0 <__l_vfprintf+0x72c>
 8003a38:	f1a5 0330 	sub.w	r3, r5, #48	@ 0x30
 8003a3c:	4693      	mov	fp, r2
 8003a3e:	9100      	str	r1, [sp, #0]
 8003a40:	2b09      	cmp	r3, #9
 8003a42:	f63f aedd 	bhi.w	8003800 <__l_vfprintf+0x8c>
 8003a46:	eb0b 0b8b 	add.w	fp, fp, fp, lsl #2
 8003a4a:	f814 5b01 	ldrb.w	r5, [r4], #1
 8003a4e:	eb03 0b4b 	add.w	fp, r3, fp, lsl #1
 8003a52:	2d00      	cmp	r5, #0
 8003a54:	d0b3      	beq.n	80039be <__l_vfprintf+0x24a>
 8003a56:	f1a5 0330 	sub.w	r3, r5, #48	@ 0x30
 8003a5a:	2b09      	cmp	r3, #9
 8003a5c:	d9f3      	bls.n	8003a46 <__l_vfprintf+0x2d2>
 8003a5e:	e6cf      	b.n	8003800 <__l_vfprintf+0x8c>
 8003a60:	f045 0220 	orr.w	r2, r5, #32
 8003a64:	f1a2 0365 	sub.w	r3, r2, #101	@ 0x65
 8003a68:	2a61      	cmp	r2, #97	@ 0x61
 8003a6a:	bf18      	it	ne
 8003a6c:	2b02      	cmpne	r3, #2
 8003a6e:	bf94      	ite	ls
 8003a70:	2301      	movls	r3, #1
 8003a72:	2300      	movhi	r3, #0
 8003a74:	f1bb 0f00 	cmp.w	fp, #0
 8003a78:	f2c0 8094 	blt.w	8003ba4 <__l_vfprintf+0x430>
 8003a7c:	2b00      	cmp	r3, #0
 8003a7e:	d13a      	bne.n	8003af6 <__l_vfprintf+0x382>
 8003a80:	f1a5 0363 	sub.w	r3, r5, #99	@ 0x63
 8003a84:	2b12      	cmp	r3, #18
 8003a86:	f200 81bc 	bhi.w	8003e02 <__l_vfprintf+0x68e>
 8003a8a:	e8df f013 	tbh	[pc, r3, lsl #1]
 8003a8e:	00fe      	.short	0x00fe
 8003a90:	01ba00a3 	.word	0x01ba00a3
 8003a94:	01ba01ba 	.word	0x01ba01ba
 8003a98:	00a301ba 	.word	0x00a301ba
 8003a9c:	01ba01ba 	.word	0x01ba01ba
 8003aa0:	01ba01ba 	.word	0x01ba01ba
 8003aa4:	01d101ba 	.word	0x01d101ba
 8003aa8:	01ba0159 	.word	0x01ba0159
 8003aac:	014501ba 	.word	0x014501ba
 8003ab0:	010801ba 	.word	0x010801ba
 8003ab4:	05f8      	lsls	r0, r7, #23
 8003ab6:	bf48      	it	mi
 8003ab8:	f447 7700 	orrmi.w	r7, r7, #512	@ 0x200
 8003abc:	f814 5b01 	ldrb.w	r5, [r4], #1
 8003ac0:	f447 7780 	orr.w	r7, r7, #256	@ 0x100
 8003ac4:	2d00      	cmp	r5, #0
 8003ac6:	f47f af0f 	bne.w	80038e8 <__l_vfprintf+0x174>
 8003aca:	e778      	b.n	80039be <__l_vfprintf+0x24a>
 8003acc:	063d      	lsls	r5, r7, #24
 8003ace:	bf48      	it	mi
 8003ad0:	f447 7700 	orrmi.w	r7, r7, #512	@ 0x200
 8003ad4:	f814 5b01 	ldrb.w	r5, [r4], #1
 8003ad8:	f047 0780 	orr.w	r7, r7, #128	@ 0x80
 8003adc:	2d00      	cmp	r5, #0
 8003ade:	f47f af03 	bne.w	80038e8 <__l_vfprintf+0x174>
 8003ae2:	e76c      	b.n	80039be <__l_vfprintf+0x24a>
 8003ae4:	067b      	lsls	r3, r7, #25
 8003ae6:	d480      	bmi.n	80039ea <__l_vfprintf+0x276>
 8003ae8:	f814 5b01 	ldrb.w	r5, [r4], #1
 8003aec:	f047 0740 	orr.w	r7, r7, #64	@ 0x40
 8003af0:	2d00      	cmp	r5, #0
 8003af2:	d1b0      	bne.n	8003a56 <__l_vfprintf+0x2e2>
 8003af4:	e763      	b.n	80039be <__l_vfprintf+0x24a>
 8003af6:	9b00      	ldr	r3, [sp, #0]
 8003af8:	f103 0b07 	add.w	fp, r3, #7
 8003afc:	f02b 0b07 	bic.w	fp, fp, #7
 8003b00:	f10b 0308 	add.w	r3, fp, #8
 8003b04:	f04f 0b07 	mov.w	fp, #7
 8003b08:	9300      	str	r3, [sp, #0]
 8003b0a:	4bb5      	ldr	r3, [pc, #724]	@ (8003de0 <__l_vfprintf+0x66c>)
 8003b0c:	0739      	lsls	r1, r7, #28
 8003b0e:	46d4      	mov	ip, sl
 8003b10:	d418      	bmi.n	8003b44 <__l_vfprintf+0x3d0>
 8003b12:	45d3      	cmp	fp, sl
 8003b14:	d216      	bcs.n	8003b44 <__l_vfprintf+0x3d0>
 8003b16:	464d      	mov	r5, r9
 8003b18:	461f      	mov	r7, r3
 8003b1a:	46d1      	mov	r9, sl
 8003b1c:	e002      	b.n	8003b24 <__l_vfprintf+0x3b0>
 8003b1e:	4593      	cmp	fp, r2
 8003b20:	d208      	bcs.n	8003b34 <__l_vfprintf+0x3c0>
 8003b22:	4692      	mov	sl, r2
 8003b24:	4641      	mov	r1, r8
 8003b26:	2020      	movs	r0, #32
 8003b28:	47a8      	blx	r5
 8003b2a:	2800      	cmp	r0, #0
 8003b2c:	f10a 32ff 	add.w	r2, sl, #4294967295
 8003b30:	daf5      	bge.n	8003b1e <__l_vfprintf+0x3aa>
 8003b32:	e752      	b.n	80039da <__l_vfprintf+0x266>
 8003b34:	46cc      	mov	ip, r9
 8003b36:	3601      	adds	r6, #1
 8003b38:	463b      	mov	r3, r7
 8003b3a:	46a9      	mov	r9, r5
 8003b3c:	4466      	add	r6, ip
 8003b3e:	4694      	mov	ip, r2
 8003b40:	eba6 060a 	sub.w	r6, r6, sl
 8003b44:	9401      	str	r4, [sp, #4]
 8003b46:	eb03 070b 	add.w	r7, r3, fp
 8003b4a:	464c      	mov	r4, r9
 8003b4c:	461d      	mov	r5, r3
 8003b4e:	46e2      	mov	sl, ip
 8003b50:	4699      	mov	r9, r3
 8003b52:	e005      	b.n	8003b60 <__l_vfprintf+0x3ec>
 8003b54:	f815 0b01 	ldrb.w	r0, [r5], #1
 8003b58:	47a0      	blx	r4
 8003b5a:	2800      	cmp	r0, #0
 8003b5c:	f6ff af3d 	blt.w	80039da <__l_vfprintf+0x266>
 8003b60:	42bd      	cmp	r5, r7
 8003b62:	4641      	mov	r1, r8
 8003b64:	d1f6      	bne.n	8003b54 <__l_vfprintf+0x3e0>
 8003b66:	464b      	mov	r3, r9
 8003b68:	ebaa 0a0b 	sub.w	sl, sl, fp
 8003b6c:	46a1      	mov	r9, r4
 8003b6e:	9c01      	ldr	r4, [sp, #4]
 8003b70:	1af3      	subs	r3, r6, r3
 8003b72:	441d      	add	r5, r3
 8003b74:	462e      	mov	r6, r5
 8003b76:	44aa      	add	sl, r5
 8003b78:	464d      	mov	r5, r9
 8003b7a:	e005      	b.n	8003b88 <__l_vfprintf+0x414>
 8003b7c:	47a8      	blx	r5
 8003b7e:	2800      	cmp	r0, #0
 8003b80:	f106 0601 	add.w	r6, r6, #1
 8003b84:	f6ff af29 	blt.w	80039da <__l_vfprintf+0x266>
 8003b88:	ebaa 0306 	sub.w	r3, sl, r6
 8003b8c:	4641      	mov	r1, r8
 8003b8e:	2020      	movs	r0, #32
 8003b90:	2b00      	cmp	r3, #0
 8003b92:	dcf3      	bgt.n	8003b7c <__l_vfprintf+0x408>
 8003b94:	46a9      	mov	r9, r5
 8003b96:	e608      	b.n	80037aa <__l_vfprintf+0x36>
 8003b98:	f814 5b01 	ldrb.w	r5, [r4], #1
 8003b9c:	2d00      	cmp	r5, #0
 8003b9e:	f47f ae16 	bne.w	80037ce <__l_vfprintf+0x5a>
 8003ba2:	e70c      	b.n	80039be <__l_vfprintf+0x24a>
 8003ba4:	f027 0740 	bic.w	r7, r7, #64	@ 0x40
 8003ba8:	f04f 0b00 	mov.w	fp, #0
 8003bac:	b2bf      	uxth	r7, r7
 8003bae:	e765      	b.n	8003a7c <__l_vfprintf+0x308>
 8003bb0:	2a00      	cmp	r2, #0
 8003bb2:	f2c0 8117 	blt.w	8003de4 <__l_vfprintf+0x670>
 8003bb6:	f814 5b01 	ldrb.w	r5, [r4], #1
 8003bba:	f047 0720 	orr.w	r7, r7, #32
 8003bbe:	2d00      	cmp	r5, #0
 8003bc0:	f000 816e 	beq.w	8003ea0 <__l_vfprintf+0x72c>
 8003bc4:	f1a5 0330 	sub.w	r3, r5, #48	@ 0x30
 8003bc8:	4692      	mov	sl, r2
 8003bca:	9100      	str	r1, [sp, #0]
 8003bcc:	2b09      	cmp	r3, #9
 8003bce:	f67f ae08 	bls.w	80037e2 <__l_vfprintf+0x6e>
 8003bd2:	e615      	b.n	8003800 <__l_vfprintf+0x8c>
 8003bd4:	063a      	lsls	r2, r7, #24
 8003bd6:	9b00      	ldr	r3, [sp, #0]
 8003bd8:	f100 811b 	bmi.w	8003e12 <__l_vfprintf+0x69e>
 8003bdc:	461a      	mov	r2, r3
 8003bde:	05f9      	lsls	r1, r7, #23
 8003be0:	f852 3b04 	ldr.w	r3, [r2], #4
 8003be4:	9201      	str	r2, [sp, #4]
 8003be6:	f100 81ae 	bmi.w	8003f46 <__l_vfprintf+0x7d2>
 8003bea:	461a      	mov	r2, r3
 8003bec:	17db      	asrs	r3, r3, #31
 8003bee:	f027 0110 	bic.w	r1, r7, #16
 8003bf2:	2b00      	cmp	r3, #0
 8003bf4:	b289      	uxth	r1, r1
 8003bf6:	9100      	str	r1, [sp, #0]
 8003bf8:	f2c0 818b 	blt.w	8003f12 <__l_vfprintf+0x79e>
 8003bfc:	ea52 0103 	orrs.w	r1, r2, r3
 8003c00:	f040 8222 	bne.w	8004048 <__l_vfprintf+0x8d4>
 8003c04:	f007 0340 	and.w	r3, r7, #64	@ 0x40
 8003c08:	9302      	str	r3, [sp, #8]
 8003c0a:	067b      	lsls	r3, r7, #25
 8003c0c:	d503      	bpl.n	8003c16 <__l_vfprintf+0x4a2>
 8003c0e:	f1bb 0f00 	cmp.w	fp, #0
 8003c12:	f000 8170 	beq.w	8003ef6 <__l_vfprintf+0x782>
 8003c16:	2000      	movs	r0, #0
 8003c18:	4601      	mov	r1, r0
 8003c1a:	aa04      	add	r2, sp, #16
 8003c1c:	230a      	movs	r3, #10
 8003c1e:	9203      	str	r2, [sp, #12]
 8003c20:	f7ff fd20 	bl	8003664 <__ultoa_invert>
 8003c24:	9a03      	ldr	r2, [sp, #12]
 8003c26:	1a83      	subs	r3, r0, r2
 8003c28:	9a02      	ldr	r2, [sp, #8]
 8003c2a:	2a00      	cmp	r2, #0
 8003c2c:	f000 8168 	beq.w	8003f00 <__l_vfprintf+0x78c>
 8003c30:	9a00      	ldr	r2, [sp, #0]
 8003c32:	459b      	cmp	fp, r3
 8003c34:	4659      	mov	r1, fp
 8003c36:	f022 0201 	bic.w	r2, r2, #1
 8003c3a:	bfb8      	it	lt
 8003c3c:	4619      	movlt	r1, r3
 8003c3e:	b292      	uxth	r2, r2
 8003c40:	9200      	str	r2, [sp, #0]
 8003c42:	f8dd c000 	ldr.w	ip, [sp]
 8003c46:	f240 4706 	movw	r7, #1030	@ 0x406
 8003c4a:	f00c 0008 	and.w	r0, ip, #8
 8003c4e:	ea1c 0f07 	tst.w	ip, r7
 8003c52:	4602      	mov	r2, r0
 8003c54:	f000 820e 	beq.w	8004074 <__l_vfprintf+0x900>
 8003c58:	3101      	adds	r1, #1
 8003c5a:	2800      	cmp	r0, #0
 8003c5c:	f000 8163 	beq.w	8003f26 <__l_vfprintf+0x7b2>
 8003c60:	ebaa 0a01 	sub.w	sl, sl, r1
 8003c64:	9302      	str	r3, [sp, #8]
 8003c66:	4641      	mov	r1, r8
 8003c68:	9b00      	ldr	r3, [sp, #0]
 8003c6a:	1c75      	adds	r5, r6, #1
 8003c6c:	f013 0f02 	tst.w	r3, #2
 8003c70:	bf14      	ite	ne
 8003c72:	202b      	movne	r0, #43	@ 0x2b
 8003c74:	2020      	moveq	r0, #32
 8003c76:	f413 6f80 	tst.w	r3, #1024	@ 0x400
 8003c7a:	bf18      	it	ne
 8003c7c:	202d      	movne	r0, #45	@ 0x2d
 8003c7e:	47c8      	blx	r9
 8003c80:	2800      	cmp	r0, #0
 8003c82:	9b02      	ldr	r3, [sp, #8]
 8003c84:	f280 8094 	bge.w	8003db0 <__l_vfprintf+0x63c>
 8003c88:	e6a7      	b.n	80039da <__l_vfprintf+0x266>
 8003c8a:	9900      	ldr	r1, [sp, #0]
 8003c8c:	f04f 0b01 	mov.w	fp, #1
 8003c90:	ab04      	add	r3, sp, #16
 8003c92:	f851 2b04 	ldr.w	r2, [r1], #4
 8003c96:	f88d 2010 	strb.w	r2, [sp, #16]
 8003c9a:	9100      	str	r1, [sp, #0]
 8003c9c:	e736      	b.n	8003b0c <__l_vfprintf+0x398>
 8003c9e:	f027 0710 	bic.w	r7, r7, #16
 8003ca2:	230a      	movs	r3, #10
 8003ca4:	b2bf      	uxth	r7, r7
 8003ca6:	f017 0280 	ands.w	r2, r7, #128	@ 0x80
 8003caa:	d04e      	beq.n	8003d4a <__l_vfprintf+0x5d6>
 8003cac:	f417 7100 	ands.w	r1, r7, #512	@ 0x200
 8003cb0:	9a00      	ldr	r2, [sp, #0]
 8003cb2:	f000 8090 	beq.w	8003dd6 <__l_vfprintf+0x662>
 8003cb6:	3207      	adds	r2, #7
 8003cb8:	f022 0207 	bic.w	r2, r2, #7
 8003cbc:	6851      	ldr	r1, [r2, #4]
 8003cbe:	f852 0b08 	ldr.w	r0, [r2], #8
 8003cc2:	9201      	str	r2, [sp, #4]
 8003cc4:	f007 0c40 	and.w	ip, r7, #64	@ 0x40
 8003cc8:	ea50 0201 	orrs.w	r2, r0, r1
 8003ccc:	f8cd c000 	str.w	ip, [sp]
 8003cd0:	d148      	bne.n	8003d64 <__l_vfprintf+0x5f0>
 8003cd2:	4662      	mov	r2, ip
 8003cd4:	b11a      	cbz	r2, 8003cde <__l_vfprintf+0x56a>
 8003cd6:	f1bb 0f00 	cmp.w	fp, #0
 8003cda:	f000 8113 	beq.w	8003f04 <__l_vfprintf+0x790>
 8003cde:	aa04      	add	r2, sp, #16
 8003ce0:	2100      	movs	r1, #0
 8003ce2:	2000      	movs	r0, #0
 8003ce4:	9202      	str	r2, [sp, #8]
 8003ce6:	f7ff fcbd 	bl	8003664 <__ultoa_invert>
 8003cea:	9a02      	ldr	r2, [sp, #8]
 8003cec:	9900      	ldr	r1, [sp, #0]
 8003cee:	1a83      	subs	r3, r0, r2
 8003cf0:	2900      	cmp	r1, #0
 8003cf2:	f000 80db 	beq.w	8003eac <__l_vfprintf+0x738>
 8003cf6:	f027 0117 	bic.w	r1, r7, #23
 8003cfa:	459b      	cmp	fp, r3
 8003cfc:	b289      	uxth	r1, r1
 8003cfe:	9100      	str	r1, [sp, #0]
 8003d00:	f340 80a2 	ble.w	8003e48 <__l_vfprintf+0x6d4>
 8003d04:	2d00      	cmp	r5, #0
 8003d06:	f040 80bf 	bne.w	8003e88 <__l_vfprintf+0x714>
 8003d0a:	0739      	lsls	r1, r7, #28
 8003d0c:	f140 81c6 	bpl.w	800409c <__l_vfprintf+0x928>
 8003d10:	ebaa 0a0b 	sub.w	sl, sl, fp
 8003d14:	4635      	mov	r5, r6
 8003d16:	e04e      	b.n	8003db6 <__l_vfprintf+0x642>
 8003d18:	9d00      	ldr	r5, [sp, #0]
 8003d1a:	f855 3b04 	ldr.w	r3, [r5], #4
 8003d1e:	2b00      	cmp	r3, #0
 8003d20:	f000 80b0 	beq.w	8003e84 <__l_vfprintf+0x710>
 8003d24:	f017 0f40 	tst.w	r7, #64	@ 0x40
 8003d28:	4618      	mov	r0, r3
 8003d2a:	9301      	str	r3, [sp, #4]
 8003d2c:	bf14      	ite	ne
 8003d2e:	4659      	movne	r1, fp
 8003d30:	f04f 31ff 	moveq.w	r1, #4294967295
 8003d34:	f7ff fc72 	bl	800361c <strnlen>
 8003d38:	9b01      	ldr	r3, [sp, #4]
 8003d3a:	4683      	mov	fp, r0
 8003d3c:	9500      	str	r5, [sp, #0]
 8003d3e:	e6e5      	b.n	8003b0c <__l_vfprintf+0x398>
 8003d40:	f047 0710 	orr.w	r7, r7, #16
 8003d44:	2310      	movs	r3, #16
 8003d46:	2578      	movs	r5, #120	@ 0x78
 8003d48:	e7ad      	b.n	8003ca6 <__l_vfprintf+0x532>
 8003d4a:	9900      	ldr	r1, [sp, #0]
 8003d4c:	f851 0b04 	ldr.w	r0, [r1], #4
 8003d50:	9101      	str	r1, [sp, #4]
 8003d52:	f417 7180 	ands.w	r1, r7, #256	@ 0x100
 8003d56:	d0b5      	beq.n	8003cc4 <__l_vfprintf+0x550>
 8003d58:	f417 7100 	ands.w	r1, r7, #512	@ 0x200
 8003d5c:	d066      	beq.n	8003e2c <__l_vfprintf+0x6b8>
 8003d5e:	b2c0      	uxtb	r0, r0
 8003d60:	4611      	mov	r1, r2
 8003d62:	e7af      	b.n	8003cc4 <__l_vfprintf+0x550>
 8003d64:	aa04      	add	r2, sp, #16
 8003d66:	9202      	str	r2, [sp, #8]
 8003d68:	f7ff fc7c 	bl	8003664 <__ultoa_invert>
 8003d6c:	9a02      	ldr	r2, [sp, #8]
 8003d6e:	9900      	ldr	r1, [sp, #0]
 8003d70:	1a83      	subs	r3, r0, r2
 8003d72:	2900      	cmp	r1, #0
 8003d74:	d15f      	bne.n	8003e36 <__l_vfprintf+0x6c2>
 8003d76:	f027 0106 	bic.w	r1, r7, #6
 8003d7a:	06ff      	lsls	r7, r7, #27
 8003d7c:	b289      	uxth	r1, r1
 8003d7e:	9100      	str	r1, [sp, #0]
 8003d80:	f140 8098 	bpl.w	8003eb4 <__l_vfprintf+0x740>
 8003d84:	9a00      	ldr	r2, [sp, #0]
 8003d86:	f002 0208 	and.w	r2, r2, #8
 8003d8a:	2d00      	cmp	r5, #0
 8003d8c:	f040 8099 	bne.w	8003ec2 <__l_vfprintf+0x74e>
 8003d90:	1c59      	adds	r1, r3, #1
 8003d92:	2a00      	cmp	r2, #0
 8003d94:	f000 80e2 	beq.w	8003f5c <__l_vfprintf+0x7e8>
 8003d98:	ebaa 0a01 	sub.w	sl, sl, r1
 8003d9c:	2030      	movs	r0, #48	@ 0x30
 8003d9e:	4641      	mov	r1, r8
 8003da0:	9300      	str	r3, [sp, #0]
 8003da2:	47c8      	blx	r9
 8003da4:	2800      	cmp	r0, #0
 8003da6:	f106 0501 	add.w	r5, r6, #1
 8003daa:	9b00      	ldr	r3, [sp, #0]
 8003dac:	f6ff ae15 	blt.w	80039da <__l_vfprintf+0x266>
 8003db0:	459b      	cmp	fp, r3
 8003db2:	f340 8152 	ble.w	800405a <__l_vfprintf+0x8e6>
 8003db6:	eb0b 0605 	add.w	r6, fp, r5
 8003dba:	464f      	mov	r7, r9
 8003dbc:	4699      	mov	r9, r3
 8003dbe:	1af6      	subs	r6, r6, r3
 8003dc0:	e001      	b.n	8003dc6 <__l_vfprintf+0x652>
 8003dc2:	42b5      	cmp	r5, r6
 8003dc4:	d06e      	beq.n	8003ea4 <__l_vfprintf+0x730>
 8003dc6:	4641      	mov	r1, r8
 8003dc8:	2030      	movs	r0, #48	@ 0x30
 8003dca:	47b8      	blx	r7
 8003dcc:	2800      	cmp	r0, #0
 8003dce:	f105 0501 	add.w	r5, r5, #1
 8003dd2:	daf6      	bge.n	8003dc2 <__l_vfprintf+0x64e>
 8003dd4:	e601      	b.n	80039da <__l_vfprintf+0x266>
 8003dd6:	f852 0b04 	ldr.w	r0, [r2], #4
 8003dda:	9201      	str	r2, [sp, #4]
 8003ddc:	e772      	b.n	8003cc4 <__l_vfprintf+0x550>
 8003dde:	bf00      	nop
 8003de0:	0800613c 	.word	0x0800613c
 8003de4:	f814 5b01 	ldrb.w	r5, [r4], #1
 8003de8:	f1c2 0a00 	rsb	sl, r2, #0
 8003dec:	f047 0728 	orr.w	r7, r7, #40	@ 0x28
 8003df0:	2d00      	cmp	r5, #0
 8003df2:	d055      	beq.n	8003ea0 <__l_vfprintf+0x72c>
 8003df4:	f1a5 0330 	sub.w	r3, r5, #48	@ 0x30
 8003df8:	9100      	str	r1, [sp, #0]
 8003dfa:	2b09      	cmp	r3, #9
 8003dfc:	f67f acf1 	bls.w	80037e2 <__l_vfprintf+0x6e>
 8003e00:	e4fe      	b.n	8003800 <__l_vfprintf+0x8c>
 8003e02:	2a78      	cmp	r2, #120	@ 0x78
 8003e04:	f47f addc 	bne.w	80039c0 <__l_vfprintf+0x24c>
 8003e08:	f1c5 0378 	rsb	r3, r5, #120	@ 0x78
 8003e0c:	f043 0310 	orr.w	r3, r3, #16
 8003e10:	e749      	b.n	8003ca6 <__l_vfprintf+0x532>
 8003e12:	05b8      	lsls	r0, r7, #22
 8003e14:	f140 809d 	bpl.w	8003f52 <__l_vfprintf+0x7de>
 8003e18:	3307      	adds	r3, #7
 8003e1a:	f023 0307 	bic.w	r3, r3, #7
 8003e1e:	461a      	mov	r2, r3
 8003e20:	685b      	ldr	r3, [r3, #4]
 8003e22:	4611      	mov	r1, r2
 8003e24:	f851 2b08 	ldr.w	r2, [r1], #8
 8003e28:	9101      	str	r1, [sp, #4]
 8003e2a:	e6e0      	b.n	8003bee <__l_vfprintf+0x47a>
 8003e2c:	b280      	uxth	r0, r0
 8003e2e:	e749      	b.n	8003cc4 <__l_vfprintf+0x550>
 8003e30:	2308      	movs	r3, #8
 8003e32:	2500      	movs	r5, #0
 8003e34:	e737      	b.n	8003ca6 <__l_vfprintf+0x532>
 8003e36:	f027 0107 	bic.w	r1, r7, #7
 8003e3a:	455b      	cmp	r3, fp
 8003e3c:	b289      	uxth	r1, r1
 8003e3e:	9100      	str	r1, [sp, #0]
 8003e40:	f2c0 8124 	blt.w	800408c <__l_vfprintf+0x918>
 8003e44:	06f9      	lsls	r1, r7, #27
 8003e46:	d49d      	bmi.n	8003d84 <__l_vfprintf+0x610>
 8003e48:	0739      	lsls	r1, r7, #28
 8003e4a:	f140 8143 	bpl.w	80040d4 <__l_vfprintf+0x960>
 8003e4e:	ebaa 0a03 	sub.w	sl, sl, r3
 8003e52:	18d5      	adds	r5, r2, r3
 8003e54:	4623      	mov	r3, r4
 8003e56:	4693      	mov	fp, r2
 8003e58:	464c      	mov	r4, r9
 8003e5a:	462f      	mov	r7, r5
 8003e5c:	4699      	mov	r9, r3
 8003e5e:	e005      	b.n	8003e6c <__l_vfprintf+0x6f8>
 8003e60:	f817 0d01 	ldrb.w	r0, [r7, #-1]!
 8003e64:	47a0      	blx	r4
 8003e66:	2800      	cmp	r0, #0
 8003e68:	f6ff adb7 	blt.w	80039da <__l_vfprintf+0x266>
 8003e6c:	45bb      	cmp	fp, r7
 8003e6e:	4641      	mov	r1, r8
 8003e70:	d1f6      	bne.n	8003e60 <__l_vfprintf+0x6ec>
 8003e72:	464b      	mov	r3, r9
 8003e74:	465a      	mov	r2, fp
 8003e76:	46a1      	mov	r9, r4
 8003e78:	4435      	add	r5, r6
 8003e7a:	461c      	mov	r4, r3
 8003e7c:	9b01      	ldr	r3, [sp, #4]
 8003e7e:	1aad      	subs	r5, r5, r2
 8003e80:	9300      	str	r3, [sp, #0]
 8003e82:	e677      	b.n	8003b74 <__l_vfprintf+0x400>
 8003e84:	4b9a      	ldr	r3, [pc, #616]	@ (80040f0 <__l_vfprintf+0x97c>)
 8003e86:	e74d      	b.n	8003d24 <__l_vfprintf+0x5b0>
 8003e88:	465a      	mov	r2, fp
 8003e8a:	f001 0008 	and.w	r0, r1, #8
 8003e8e:	b281      	uxth	r1, r0
 8003e90:	2800      	cmp	r0, #0
 8003e92:	f000 8088 	beq.w	8003fa6 <__l_vfprintf+0x832>
 8003e96:	ebaa 0a0b 	sub.w	sl, sl, fp
 8003e9a:	4635      	mov	r5, r6
 8003e9c:	4693      	mov	fp, r2
 8003e9e:	e787      	b.n	8003db0 <__l_vfprintf+0x63c>
 8003ea0:	9100      	str	r1, [sp, #0]
 8003ea2:	e58c      	b.n	80039be <__l_vfprintf+0x24a>
 8003ea4:	464b      	mov	r3, r9
 8003ea6:	aa04      	add	r2, sp, #16
 8003ea8:	46b9      	mov	r9, r7
 8003eaa:	e7d2      	b.n	8003e52 <__l_vfprintf+0x6de>
 8003eac:	f027 0716 	bic.w	r7, r7, #22
 8003eb0:	b2b9      	uxth	r1, r7
 8003eb2:	9100      	str	r1, [sp, #0]
 8003eb4:	f011 0108 	ands.w	r1, r1, #8
 8003eb8:	d067      	beq.n	8003f8a <__l_vfprintf+0x816>
 8003eba:	ebaa 0a03 	sub.w	sl, sl, r3
 8003ebe:	4635      	mov	r5, r6
 8003ec0:	e776      	b.n	8003db0 <__l_vfprintf+0x63c>
 8003ec2:	1c99      	adds	r1, r3, #2
 8003ec4:	2a00      	cmp	r2, #0
 8003ec6:	d056      	beq.n	8003f76 <__l_vfprintf+0x802>
 8003ec8:	ebaa 0a01 	sub.w	sl, sl, r1
 8003ecc:	4641      	mov	r1, r8
 8003ece:	2030      	movs	r0, #48	@ 0x30
 8003ed0:	9300      	str	r3, [sp, #0]
 8003ed2:	47c8      	blx	r9
 8003ed4:	2800      	cmp	r0, #0
 8003ed6:	f6ff ad80 	blt.w	80039da <__l_vfprintf+0x266>
 8003eda:	9b00      	ldr	r3, [sp, #0]
 8003edc:	2d00      	cmp	r5, #0
 8003ede:	d048      	beq.n	8003f72 <__l_vfprintf+0x7fe>
 8003ee0:	4628      	mov	r0, r5
 8003ee2:	4641      	mov	r1, r8
 8003ee4:	9300      	str	r3, [sp, #0]
 8003ee6:	47c8      	blx	r9
 8003ee8:	2800      	cmp	r0, #0
 8003eea:	f106 0502 	add.w	r5, r6, #2
 8003eee:	9b00      	ldr	r3, [sp, #0]
 8003ef0:	f6bf af5e 	bge.w	8003db0 <__l_vfprintf+0x63c>
 8003ef4:	e571      	b.n	80039da <__l_vfprintf+0x266>
 8003ef6:	f027 0711 	bic.w	r7, r7, #17
 8003efa:	b2bb      	uxth	r3, r7
 8003efc:	9300      	str	r3, [sp, #0]
 8003efe:	2300      	movs	r3, #0
 8003f00:	4619      	mov	r1, r3
 8003f02:	e69e      	b.n	8003c42 <__l_vfprintf+0x4ce>
 8003f04:	f017 0308 	ands.w	r3, r7, #8
 8003f08:	f000 8087 	beq.w	800401a <__l_vfprintf+0x8a6>
 8003f0c:	2300      	movs	r3, #0
 8003f0e:	aa04      	add	r2, sp, #16
 8003f10:	e79f      	b.n	8003e52 <__l_vfprintf+0x6de>
 8003f12:	4250      	negs	r0, r2
 8003f14:	f441 6280 	orr.w	r2, r1, #1024	@ 0x400
 8003f18:	9200      	str	r2, [sp, #0]
 8003f1a:	f007 0240 	and.w	r2, r7, #64	@ 0x40
 8003f1e:	eb63 0143 	sbc.w	r1, r3, r3, lsl #1
 8003f22:	9202      	str	r2, [sp, #8]
 8003f24:	e679      	b.n	8003c1a <__l_vfprintf+0x4a6>
 8003f26:	ea5f 77cc 	movs.w	r7, ip, lsl #31
 8003f2a:	4660      	mov	r0, ip
 8003f2c:	d545      	bpl.n	8003fba <__l_vfprintf+0x846>
 8003f2e:	458a      	cmp	sl, r1
 8003f30:	ebaa 0001 	sub.w	r0, sl, r1
 8003f34:	f340 8083 	ble.w	800403e <__l_vfprintf+0x8ca>
 8003f38:	eb03 0b00 	add.w	fp, r3, r0
 8003f3c:	4610      	mov	r0, r2
 8003f3e:	4682      	mov	sl, r0
 8003f40:	e690      	b.n	8003c64 <__l_vfprintf+0x4f0>
 8003f42:	4606      	mov	r6, r0
 8003f44:	e551      	b.n	80039ea <__l_vfprintf+0x276>
 8003f46:	05ba      	lsls	r2, r7, #22
 8003f48:	d572      	bpl.n	8004030 <__l_vfprintf+0x8bc>
 8003f4a:	b25a      	sxtb	r2, r3
 8003f4c:	f343 13c0 	sbfx	r3, r3, #7, #1
 8003f50:	e64d      	b.n	8003bee <__l_vfprintf+0x47a>
 8003f52:	f853 2b04 	ldr.w	r2, [r3], #4
 8003f56:	9301      	str	r3, [sp, #4]
 8003f58:	17d3      	asrs	r3, r2, #31
 8003f5a:	e648      	b.n	8003bee <__l_vfprintf+0x47a>
 8003f5c:	9a00      	ldr	r2, [sp, #0]
 8003f5e:	07d0      	lsls	r0, r2, #31
 8003f60:	d56a      	bpl.n	8004038 <__l_vfprintf+0x8c4>
 8003f62:	4551      	cmp	r1, sl
 8003f64:	ebaa 0201 	sub.w	r2, sl, r1
 8003f68:	da74      	bge.n	8004054 <__l_vfprintf+0x8e0>
 8003f6a:	eb03 0b02 	add.w	fp, r3, r2
 8003f6e:	46aa      	mov	sl, r5
 8003f70:	e7ac      	b.n	8003ecc <__l_vfprintf+0x758>
 8003f72:	1c75      	adds	r5, r6, #1
 8003f74:	e71c      	b.n	8003db0 <__l_vfprintf+0x63c>
 8003f76:	9a00      	ldr	r2, [sp, #0]
 8003f78:	07d2      	lsls	r2, r2, #31
 8003f7a:	d575      	bpl.n	8004068 <__l_vfprintf+0x8f4>
 8003f7c:	4551      	cmp	r1, sl
 8003f7e:	ebaa 0001 	sub.w	r0, sl, r1
 8003f82:	db5f      	blt.n	8004044 <__l_vfprintf+0x8d0>
 8003f84:	4682      	mov	sl, r0
 8003f86:	469b      	mov	fp, r3
 8003f88:	e7a0      	b.n	8003ecc <__l_vfprintf+0x758>
 8003f8a:	9800      	ldr	r0, [sp, #0]
 8003f8c:	07c0      	lsls	r0, r0, #31
 8003f8e:	d567      	bpl.n	8004060 <__l_vfprintf+0x8ec>
 8003f90:	459a      	cmp	sl, r3
 8003f92:	ebaa 0003 	sub.w	r0, sl, r3
 8003f96:	dd0e      	ble.n	8003fb6 <__l_vfprintf+0x842>
 8003f98:	eb03 0b00 	add.w	fp, r3, r0
 8003f9c:	2900      	cmp	r1, #0
 8003f9e:	d066      	beq.n	800406e <__l_vfprintf+0x8fa>
 8003fa0:	f04f 0a00 	mov.w	sl, #0
 8003fa4:	e792      	b.n	8003ecc <__l_vfprintf+0x758>
 8003fa6:	9800      	ldr	r0, [sp, #0]
 8003fa8:	07c7      	lsls	r7, r0, #31
 8003faa:	d56a      	bpl.n	8004082 <__l_vfprintf+0x90e>
 8003fac:	45d3      	cmp	fp, sl
 8003fae:	ebaa 000b 	sub.w	r0, sl, fp
 8003fb2:	dbf1      	blt.n	8003f98 <__l_vfprintf+0x824>
 8003fb4:	aa04      	add	r2, sp, #16
 8003fb6:	4682      	mov	sl, r0
 8003fb8:	e74b      	b.n	8003e52 <__l_vfprintf+0x6de>
 8003fba:	458a      	cmp	sl, r1
 8003fbc:	f77f ae50 	ble.w	8003c60 <__l_vfprintf+0x4ec>
 8003fc0:	e9cd 3402 	strd	r3, r4, [sp, #8]
 8003fc4:	4633      	mov	r3, r6
 8003fc6:	464c      	mov	r4, r9
 8003fc8:	462e      	mov	r6, r5
 8003fca:	4689      	mov	r9, r1
 8003fcc:	460d      	mov	r5, r1
 8003fce:	461f      	mov	r7, r3
 8003fd0:	e002      	b.n	8003fd8 <__l_vfprintf+0x864>
 8003fd2:	4552      	cmp	r2, sl
 8003fd4:	da08      	bge.n	8003fe8 <__l_vfprintf+0x874>
 8003fd6:	4615      	mov	r5, r2
 8003fd8:	4641      	mov	r1, r8
 8003fda:	2020      	movs	r0, #32
 8003fdc:	47a0      	blx	r4
 8003fde:	2800      	cmp	r0, #0
 8003fe0:	f105 0201 	add.w	r2, r5, #1
 8003fe4:	daf5      	bge.n	8003fd2 <__l_vfprintf+0x85e>
 8003fe6:	e4f8      	b.n	80039da <__l_vfprintf+0x266>
 8003fe8:	4638      	mov	r0, r7
 8003fea:	462f      	mov	r7, r5
 8003fec:	4635      	mov	r5, r6
 8003fee:	4649      	mov	r1, r9
 8003ff0:	4606      	mov	r6, r0
 8003ff2:	ebaa 0a02 	sub.w	sl, sl, r2
 8003ff6:	9a00      	ldr	r2, [sp, #0]
 8003ff8:	46a1      	mov	r9, r4
 8003ffa:	3601      	adds	r6, #1
 8003ffc:	1a76      	subs	r6, r6, r1
 8003ffe:	443e      	add	r6, r7
 8004000:	06d7      	lsls	r7, r2, #27
 8004002:	e9dd 3402 	ldrd	r3, r4, [sp, #8]
 8004006:	f53f af61 	bmi.w	8003ecc <__l_vfprintf+0x758>
 800400a:	4611      	mov	r1, r2
 800400c:	f240 4206 	movw	r2, #1030	@ 0x406
 8004010:	4211      	tst	r1, r2
 8004012:	f47f ae27 	bne.w	8003c64 <__l_vfprintf+0x4f0>
 8004016:	4635      	mov	r5, r6
 8004018:	e6ca      	b.n	8003db0 <__l_vfprintf+0x63c>
 800401a:	f1ba 0f00 	cmp.w	sl, #0
 800401e:	dd5b      	ble.n	80040d8 <__l_vfprintf+0x964>
 8004020:	f027 0717 	bic.w	r7, r7, #23
 8004024:	469b      	mov	fp, r3
 8004026:	b2bb      	uxth	r3, r7
 8004028:	4659      	mov	r1, fp
 800402a:	9300      	str	r3, [sp, #0]
 800402c:	465b      	mov	r3, fp
 800402e:	e7c7      	b.n	8003fc0 <__l_vfprintf+0x84c>
 8004030:	b21a      	sxth	r2, r3
 8004032:	f343 33c0 	sbfx	r3, r3, #15, #1
 8004036:	e5da      	b.n	8003bee <__l_vfprintf+0x47a>
 8004038:	4551      	cmp	r1, sl
 800403a:	dbc1      	blt.n	8003fc0 <__l_vfprintf+0x84c>
 800403c:	e6ac      	b.n	8003d98 <__l_vfprintf+0x624>
 800403e:	469b      	mov	fp, r3
 8004040:	4682      	mov	sl, r0
 8004042:	e60f      	b.n	8003c64 <__l_vfprintf+0x4f0>
 8004044:	2110      	movs	r1, #16
 8004046:	e7a7      	b.n	8003f98 <__l_vfprintf+0x824>
 8004048:	4619      	mov	r1, r3
 800404a:	f007 0340 	and.w	r3, r7, #64	@ 0x40
 800404e:	4610      	mov	r0, r2
 8004050:	9302      	str	r3, [sp, #8]
 8004052:	e5e2      	b.n	8003c1a <__l_vfprintf+0x4a6>
 8004054:	4692      	mov	sl, r2
 8004056:	469b      	mov	fp, r3
 8004058:	e738      	b.n	8003ecc <__l_vfprintf+0x758>
 800405a:	462e      	mov	r6, r5
 800405c:	aa04      	add	r2, sp, #16
 800405e:	e6f8      	b.n	8003e52 <__l_vfprintf+0x6de>
 8004060:	459a      	cmp	sl, r3
 8004062:	dd0a      	ble.n	800407a <__l_vfprintf+0x906>
 8004064:	4619      	mov	r1, r3
 8004066:	e7ab      	b.n	8003fc0 <__l_vfprintf+0x84c>
 8004068:	4551      	cmp	r1, sl
 800406a:	dba9      	blt.n	8003fc0 <__l_vfprintf+0x84c>
 800406c:	e72c      	b.n	8003ec8 <__l_vfprintf+0x754>
 800406e:	4635      	mov	r5, r6
 8004070:	468a      	mov	sl, r1
 8004072:	e69d      	b.n	8003db0 <__l_vfprintf+0x63c>
 8004074:	465a      	mov	r2, fp
 8004076:	468b      	mov	fp, r1
 8004078:	e709      	b.n	8003e8e <__l_vfprintf+0x71a>
 800407a:	ebaa 0a03 	sub.w	sl, sl, r3
 800407e:	4635      	mov	r5, r6
 8004080:	e696      	b.n	8003db0 <__l_vfprintf+0x63c>
 8004082:	45d3      	cmp	fp, sl
 8004084:	da2a      	bge.n	80040dc <__l_vfprintf+0x968>
 8004086:	4659      	mov	r1, fp
 8004088:	4693      	mov	fp, r2
 800408a:	e799      	b.n	8003fc0 <__l_vfprintf+0x84c>
 800408c:	b975      	cbnz	r5, 80040ac <__l_vfprintf+0x938>
 800408e:	f027 0217 	bic.w	r2, r7, #23
 8004092:	0738      	lsls	r0, r7, #28
 8004094:	b292      	uxth	r2, r2
 8004096:	9200      	str	r2, [sp, #0]
 8004098:	f53f ae3a 	bmi.w	8003d10 <__l_vfprintf+0x59c>
 800409c:	4659      	mov	r1, fp
 800409e:	2500      	movs	r5, #0
 80040a0:	458a      	cmp	sl, r1
 80040a2:	dc8d      	bgt.n	8003fc0 <__l_vfprintf+0x84c>
 80040a4:	ebaa 0a01 	sub.w	sl, sl, r1
 80040a8:	4635      	mov	r5, r6
 80040aa:	e681      	b.n	8003db0 <__l_vfprintf+0x63c>
 80040ac:	06fa      	lsls	r2, r7, #27
 80040ae:	d51a      	bpl.n	80040e6 <__l_vfprintf+0x972>
 80040b0:	0738      	lsls	r0, r7, #28
 80040b2:	f10b 0102 	add.w	r1, fp, #2
 80040b6:	f53f af07 	bmi.w	8003ec8 <__l_vfprintf+0x754>
 80040ba:	4551      	cmp	r1, sl
 80040bc:	db80      	blt.n	8003fc0 <__l_vfprintf+0x84c>
 80040be:	ebaa 0a01 	sub.w	sl, sl, r1
 80040c2:	2030      	movs	r0, #48	@ 0x30
 80040c4:	4641      	mov	r1, r8
 80040c6:	9300      	str	r3, [sp, #0]
 80040c8:	47c8      	blx	r9
 80040ca:	2800      	cmp	r0, #0
 80040cc:	9b00      	ldr	r3, [sp, #0]
 80040ce:	f6bf af07 	bge.w	8003ee0 <__l_vfprintf+0x76c>
 80040d2:	e482      	b.n	80039da <__l_vfprintf+0x266>
 80040d4:	4619      	mov	r1, r3
 80040d6:	e7e3      	b.n	80040a0 <__l_vfprintf+0x92c>
 80040d8:	aa04      	add	r2, sp, #16
 80040da:	e6ba      	b.n	8003e52 <__l_vfprintf+0x6de>
 80040dc:	ebaa 0a0b 	sub.w	sl, sl, fp
 80040e0:	4635      	mov	r5, r6
 80040e2:	4693      	mov	fp, r2
 80040e4:	e664      	b.n	8003db0 <__l_vfprintf+0x63c>
 80040e6:	9900      	ldr	r1, [sp, #0]
 80040e8:	465a      	mov	r2, fp
 80040ea:	f001 0008 	and.w	r0, r1, #8
 80040ee:	e6ce      	b.n	8003e8e <__l_vfprintf+0x71a>
 80040f0:	08006134 	.word	0x08006134

080040f4 <_OffsetAbsSyms>:

#include <gen_offset.h>

#include "offsets_aarch32.c"

GEN_ABS_SYM_END
 80040f4:	4770      	bx	lr

080040f6 <free_list_add_bidx>:
		free_list_remove_bidx(h, c, bidx);
	}
}

static void free_list_add_bidx(struct z_heap *h, chunkid_t c, int bidx)
{
 80040f6:	b510      	push	{r4, lr}
	struct z_heap_bucket *b = &h->buckets[bidx];

	if (b->next == 0U) {
 80040f8:	1d13      	adds	r3, r2, #4
 80040fa:	f850 4023 	ldr.w	r4, [r0, r3, lsl #2]
 80040fe:	b974      	cbnz	r4, 800411e <free_list_add_bidx+0x28>
		CHECK((h->avail_buckets & BIT(bidx)) == 0);

		/* Empty list, first item */
		h->avail_buckets |= BIT(bidx);
 8004100:	68c3      	ldr	r3, [r0, #12]
 8004102:	2401      	movs	r4, #1
 8004104:	4094      	lsls	r4, r2
 8004106:	4323      	orrs	r3, r4
 8004108:	60c3      	str	r3, [r0, #12]
		b->next = c;
 800410a:	3204      	adds	r2, #4
 800410c:	f840 1022 	str.w	r1, [r0, r2, lsl #2]
			     enum chunk_fields f, chunkid_t val)
{
	CHECK(c <= h->end_chunk);

	chunk_unit_t *buf = chunk_buf(h);
	void *cmem = &buf[c];
 8004110:	00cb      	lsls	r3, r1, #3
	if (big_heap(h)) {
		CHECK(val == (uint32_t)val);
		((uint32_t *)cmem)[f] = val;
	} else {
		CHECK(val == (uint16_t)val);
		((uint16_t *)cmem)[f] = val;
 8004112:	1d1a      	adds	r2, r3, #4
 8004114:	b289      	uxth	r1, r1
 8004116:	5281      	strh	r1, [r0, r2]
 8004118:	3306      	adds	r3, #6
 800411a:	52c1      	strh	r1, [r0, r3]
	}

#ifdef CONFIG_SYS_HEAP_RUNTIME_STATS
	h->free_bytes += chunk_usable_bytes(h, c);
#endif
}
 800411c:	bd10      	pop	{r4, pc}
	void *cmem = &buf[c];
 800411e:	00e2      	lsls	r2, r4, #3
		return ((uint16_t *)cmem)[f];
 8004120:	3204      	adds	r2, #4
 8004122:	5a83      	ldrh	r3, [r0, r2]
	void *cmem = &buf[c];
 8004124:	ea4f 0cc1 	mov.w	ip, r1, lsl #3
		((uint16_t *)cmem)[f] = val;
 8004128:	f10c 0e04 	add.w	lr, ip, #4
 800412c:	f820 300e 	strh.w	r3, [r0, lr]
 8004130:	f10c 0c06 	add.w	ip, ip, #6
 8004134:	f820 400c 	strh.w	r4, [r0, ip]
	void *cmem = &buf[c];
 8004138:	00db      	lsls	r3, r3, #3
		((uint16_t *)cmem)[f] = val;
 800413a:	3306      	adds	r3, #6
 800413c:	b289      	uxth	r1, r1
 800413e:	52c1      	strh	r1, [r0, r3]
 8004140:	5281      	strh	r1, [r0, r2]
 8004142:	e7eb      	b.n	800411c <free_list_add_bidx+0x26>

08004144 <free_list_add>:

static void free_list_add(struct z_heap *h, chunkid_t c)
{
 8004144:	b508      	push	{r3, lr}
		return ((uint16_t *)cmem)[f];
 8004146:	eb00 03c1 	add.w	r3, r0, r1, lsl #3
 800414a:	885a      	ldrh	r2, [r3, #2]
	return chunk_field(h, c, SIZE_AND_USED) & 1U;
}

static inline chunksz_t chunk_size(struct z_heap *h, chunkid_t c)
{
	return chunk_field(h, c, SIZE_AND_USED) >> 1;
 800414c:	0852      	lsrs	r2, r2, #1
}

static inline int bucket_idx(struct z_heap *h, chunksz_t sz)
{
	unsigned int usable_sz = sz - min_chunk_size(h) + 1;
	return 31 - __builtin_clz(usable_sz);
 800414e:	fab2 f282 	clz	r2, r2
	if (!undersized_chunk(h, c)) {
		int bidx = bucket_idx(h, chunk_size(h, c));
		free_list_add_bidx(h, c, bidx);
 8004152:	f1c2 021f 	rsb	r2, r2, #31
 8004156:	f7ff ffce 	bl	80040f6 <free_list_add_bidx>
	}
}
 800415a:	bd08      	pop	{r3, pc}

0800415c <sys_heap_init>:
	}
	return ptr2;
}

void sys_heap_init(struct sys_heap *heap, void *mem, size_t bytes)
{
 800415c:	b570      	push	{r4, r5, r6, lr}
 800415e:	4603      	mov	r3, r0
		__ASSERT(bytes / CHUNK_UNIT <= 0x7fffffffU, "heap size is too big");
	}

	/* Reserve the end marker chunk's header */
	__ASSERT(bytes > heap_footer_bytes(bytes), "heap size is too small");
	bytes -= heap_footer_bytes(bytes);
 8004160:	3a04      	subs	r2, #4

	/* Round the start up, the end down */
	uintptr_t addr = ROUND_UP(mem, CHUNK_UNIT);
 8004162:	1dc8      	adds	r0, r1, #7
 8004164:	f020 0007 	bic.w	r0, r0, #7
	uintptr_t end = ROUND_DOWN((uint8_t *)mem + bytes, CHUNK_UNIT);
 8004168:	440a      	add	r2, r1
 800416a:	f022 0207 	bic.w	r2, r2, #7
	chunksz_t heap_sz = (end - addr) / CHUNK_UNIT;
 800416e:	1a12      	subs	r2, r2, r0
 8004170:	08d5      	lsrs	r5, r2, #3

	CHECK(end > addr);
	__ASSERT(heap_sz > chunksz(sizeof(struct z_heap)), "heap size is too small");

	struct z_heap *h = (struct z_heap *)addr;
	heap->heap = h;
 8004172:	6018      	str	r0, [r3, #0]
	h->end_chunk = heap_sz;
 8004174:	6085      	str	r5, [r0, #8]
	h->avail_buckets = 0;
 8004176:	2300      	movs	r3, #0
 8004178:	60c3      	str	r3, [r0, #12]
 800417a:	fab5 f185 	clz	r1, r5

#if CONFIG_SYS_HEAP_ARRAY_SIZE
	sys_heap_array_save(heap);
#endif

	int nb_buckets = bucket_idx(h, heap_sz) + 1;
 800417e:	f1c1 0e20 	rsb	lr, r1, #32
	chunksz_t chunk0_size = chunksz(sizeof(struct z_heap) +
 8004182:	f1c1 0124 	rsb	r1, r1, #36	@ 0x24
				     nb_buckets * sizeof(struct z_heap_bucket)) +
 8004186:	0089      	lsls	r1, r1, #2
	return (bytes + CHUNK_UNIT - 1U) / CHUNK_UNIT;
 8004188:	1dce      	adds	r6, r1, #7
 800418a:	08f1      	lsrs	r1, r6, #3
				CHUNK_TRAILER_SIZE;

	__ASSERT(chunk0_size + min_chunk_size(h) <= heap_sz, "heap size is too small");

	for (int i = 0; i < nb_buckets; i++) {
 800418c:	e005      	b.n	800419a <sys_heap_init+0x3e>
		h->buckets[i].next = 0;
 800418e:	f103 0c04 	add.w	ip, r3, #4
 8004192:	2400      	movs	r4, #0
 8004194:	f840 402c 	str.w	r4, [r0, ip, lsl #2]
	for (int i = 0; i < nb_buckets; i++) {
 8004198:	3301      	adds	r3, #1
 800419a:	4573      	cmp	r3, lr
 800419c:	dbf7      	blt.n	800418e <sys_heap_init+0x32>
		((uint16_t *)cmem)[f] = val;
 800419e:	fa1f fe81 	uxth.w	lr, r1
 80041a2:	ea4f 044e 	mov.w	r4, lr, lsl #1
 80041a6:	b2a4      	uxth	r4, r4
 80041a8:	8044      	strh	r4, [r0, #2]
 80041aa:	f04f 0c00 	mov.w	ip, #0
 80041ae:	f8a0 c000 	strh.w	ip, [r0]
			((uint16_t *)cmem)[SIZE_AND_USED] |= 1U;
 80041b2:	f044 0401 	orr.w	r4, r4, #1
 80041b6:	8044      	strh	r4, [r0, #2]
	if (SYS_HEAP_HARDENING_FULL) {
		set_chunk_canary(h, 0);
	}

	/* chunk containing the free heap */
	set_chunk_size(h, chunk0_size, heap_sz - chunk0_size);
 80041b8:	1a6b      	subs	r3, r5, r1
	void *cmem = &buf[c];
 80041ba:	f026 0407 	bic.w	r4, r6, #7
		((uint16_t *)cmem)[f] = val;
 80041be:	1ca5      	adds	r5, r4, #2
 80041c0:	b29b      	uxth	r3, r3
 80041c2:	005e      	lsls	r6, r3, #1
 80041c4:	5346      	strh	r6, [r0, r5]
 80041c6:	f820 e004 	strh.w	lr, [r0, r4]
	void *cmem = &buf[c];
 80041ca:	f022 0407 	bic.w	r4, r2, #7
		((uint16_t *)cmem)[f] = val;
 80041ce:	1c95      	adds	r5, r2, #2
 80041d0:	f820 c005 	strh.w	ip, [r0, r5]
 80041d4:	4402      	add	r2, r0
 80041d6:	5303      	strh	r3, [r0, r4]
			((uint16_t *)cmem)[SIZE_AND_USED] |= 1U;
 80041d8:	8853      	ldrh	r3, [r2, #2]
 80041da:	f043 0301 	orr.w	r3, r3, #1
 80041de:	8053      	strh	r3, [r2, #2]
	/* the end marker chunk */
	set_chunk_size(h, heap_sz, 0);
	set_left_chunk_size(h, heap_sz, heap_sz - chunk0_size);
	set_chunk_used(h, heap_sz, true);

	free_list_add(h, chunk0_size);
 80041e0:	f7ff ffb0 	bl	8004144 <free_list_add>
}
 80041e4:	bd70      	pop	{r4, r5, r6, pc}

080041e6 <arch_printk_char_out>:
}
 80041e6:	2000      	movs	r0, #0
 80041e8:	4770      	bx	lr

080041ea <printk>:
 *
 * @param fmt formatted string to output
 */

void printk(const char *fmt, ...)
{
 80041ea:	b40f      	push	{r0, r1, r2, r3}
 80041ec:	b500      	push	{lr}
 80041ee:	b083      	sub	sp, #12
 80041f0:	a904      	add	r1, sp, #16
 80041f2:	f851 0b04 	ldr.w	r0, [r1], #4
	va_list ap;

	va_start(ap, fmt);
 80041f6:	9101      	str	r1, [sp, #4]

	vprintk(fmt, ap);
 80041f8:	f7fc fa2c 	bl	8000654 <vprintk>

	va_end(ap);
}
 80041fc:	b003      	add	sp, #12
 80041fe:	f85d eb04 	ldr.w	lr, [sp], #4
 8004202:	b004      	add	sp, #16
 8004204:	4770      	bx	lr

08004206 <_ConfigAbsSyms>:
GEN_ABSOLUTE_SYM_KCONFIG(CONFIG_CHECK_INIT_PRIORITIES, 1);
GEN_ABSOLUTE_SYM_KCONFIG(CONFIG_WARN_DEPRECATED, 1);
GEN_ABSOLUTE_SYM_KCONFIG(CONFIG_ENFORCE_ZEPHYR_STDINT, 1);
GEN_ABSOLUTE_SYM_KCONFIG(CONFIG_LEGACY_GENERATED_INCLUDE_PATH, 1);

GEN_ABS_SYM_END
 8004206:	4770      	bx	lr

08004208 <pm_device_driver_init>:
	ARG_UNUSED(dev);
	return true;
}

static inline int pm_device_driver_init(const struct device *dev, pm_device_action_cb_t action_cb)
{
 8004208:	b538      	push	{r3, r4, r5, lr}
 800420a:	4605      	mov	r5, r0
 800420c:	460c      	mov	r4, r1
	int rc;

	/* When power management is not enabled, all drivers should initialise to active state */
	rc = action_cb(dev, PM_DEVICE_ACTION_TURN_ON);
 800420e:	2103      	movs	r1, #3
 8004210:	47a0      	blx	r4
	if ((rc < 0) && (rc != -ENOTSUP)) {
 8004212:	2800      	cmp	r0, #0
 8004214:	db06      	blt.n	8004224 <pm_device_driver_init+0x1c>
		return rc;
	}

	rc = action_cb(dev, PM_DEVICE_ACTION_RESUME);
 8004216:	2101      	movs	r1, #1
 8004218:	4628      	mov	r0, r5
 800421a:	47a0      	blx	r4
	if (rc < 0) {
 800421c:	2800      	cmp	r0, #0
 800421e:	db00      	blt.n	8004222 <pm_device_driver_init+0x1a>
		return rc;
	}

	return 0;
 8004220:	2000      	movs	r0, #0
}
 8004222:	bd38      	pop	{r3, r4, r5, pc}
	if ((rc < 0) && (rc != -ENOTSUP)) {
 8004224:	f110 0f86 	cmn.w	r0, #134	@ 0x86
 8004228:	d1fb      	bne.n	8004222 <pm_device_driver_init+0x1a>
 800422a:	e7f4      	b.n	8004216 <pm_device_driver_init+0xe>

0800422c <LL_GPIO_SetPinSpeed>:
  *         @arg @ref LL_GPIO_SPEED_FREQ_HIGH
  *         @arg @ref LL_GPIO_SPEED_FREQ_VERY_HIGH
  * @retval None
  */
__STATIC_INLINE void LL_GPIO_SetPinSpeed(GPIO_TypeDef *GPIOx, uint32_t Pin, uint32_t  Speed)
{
 800422c:	b410      	push	{r4}
  MODIFY_REG(GPIOx->OSPEEDR, (GPIO_OSPEEDR_OSPEED0 << (POSITION_VAL(Pin) * GPIO_OSPEEDR_OSPEED1_Pos)),
 800422e:	6884      	ldr	r4, [r0, #8]
   __ASM ("rbit %0, %1" : "=r" (result) : "r" (value) );
 8004230:	fa91 f3a1 	rbit	r3, r1
  if (value == 0U)
 8004234:	b19b      	cbz	r3, 800425e <LL_GPIO_SetPinSpeed+0x32>
  return __builtin_clz(value);
 8004236:	fab3 f383 	clz	r3, r3
 800423a:	005b      	lsls	r3, r3, #1
 800423c:	f04f 0c03 	mov.w	ip, #3
 8004240:	fa0c f303 	lsl.w	r3, ip, r3
 8004244:	ea24 0303 	bic.w	r3, r4, r3
   __ASM ("rbit %0, %1" : "=r" (result) : "r" (value) );
 8004248:	fa91 f1a1 	rbit	r1, r1
  if (value == 0U)
 800424c:	b149      	cbz	r1, 8004262 <LL_GPIO_SetPinSpeed+0x36>
  return __builtin_clz(value);
 800424e:	fab1 f181 	clz	r1, r1
 8004252:	0049      	lsls	r1, r1, #1
 8004254:	408a      	lsls	r2, r1
 8004256:	4313      	orrs	r3, r2
 8004258:	6083      	str	r3, [r0, #8]
             (Speed << (POSITION_VAL(Pin) * GPIO_OSPEEDR_OSPEED1_Pos)));
}
 800425a:	bc10      	pop	{r4}
 800425c:	4770      	bx	lr
    return 32U;
 800425e:	2320      	movs	r3, #32
 8004260:	e7eb      	b.n	800423a <LL_GPIO_SetPinSpeed+0xe>
 8004262:	2120      	movs	r1, #32
 8004264:	e7f5      	b.n	8004252 <LL_GPIO_SetPinSpeed+0x26>

08004266 <LL_GPIO_SetPinPull>:
  *         @arg @ref LL_GPIO_PULL_UP
  *         @arg @ref LL_GPIO_PULL_DOWN
  * @retval None
  */
__STATIC_INLINE void LL_GPIO_SetPinPull(GPIO_TypeDef *GPIOx, uint32_t Pin, uint32_t Pull)
{
 8004266:	b410      	push	{r4}
  MODIFY_REG(GPIOx->PUPDR, (GPIO_PUPDR_PUPD0 << (POSITION_VAL(Pin) * GPIO_PUPDR_PUPD1_Pos)),
 8004268:	68c4      	ldr	r4, [r0, #12]
   __ASM ("rbit %0, %1" : "=r" (result) : "r" (value) );
 800426a:	fa91 f3a1 	rbit	r3, r1
  if (value == 0U)
 800426e:	b19b      	cbz	r3, 8004298 <LL_GPIO_SetPinPull+0x32>
  return __builtin_clz(value);
 8004270:	fab3 f383 	clz	r3, r3
 8004274:	005b      	lsls	r3, r3, #1
 8004276:	f04f 0c03 	mov.w	ip, #3
 800427a:	fa0c f303 	lsl.w	r3, ip, r3
 800427e:	ea24 0303 	bic.w	r3, r4, r3
   __ASM ("rbit %0, %1" : "=r" (result) : "r" (value) );
 8004282:	fa91 f1a1 	rbit	r1, r1
  if (value == 0U)
 8004286:	b149      	cbz	r1, 800429c <LL_GPIO_SetPinPull+0x36>
  return __builtin_clz(value);
 8004288:	fab1 f181 	clz	r1, r1
 800428c:	0049      	lsls	r1, r1, #1
 800428e:	408a      	lsls	r2, r1
 8004290:	4313      	orrs	r3, r2
 8004292:	60c3      	str	r3, [r0, #12]
             (Pull << (POSITION_VAL(Pin) * GPIO_PUPDR_PUPD1_Pos)));
}
 8004294:	bc10      	pop	{r4}
 8004296:	4770      	bx	lr
    return 32U;
 8004298:	2320      	movs	r3, #32
 800429a:	e7eb      	b.n	8004274 <LL_GPIO_SetPinPull+0xe>
 800429c:	2120      	movs	r1, #32
 800429e:	e7f5      	b.n	800428c <LL_GPIO_SetPinPull+0x26>

080042a0 <ll_gpio_set_pin_pull>:
{
 80042a0:	b508      	push	{r3, lr}
	LL_GPIO_SetPinPull(GPIOx, Pin, Pull);
 80042a2:	f7ff ffe0 	bl	8004266 <LL_GPIO_SetPinPull>
}
 80042a6:	bd08      	pop	{r3, pc}

080042a8 <LL_GPIO_SetAFPin_0_7>:
  *         @arg @ref LL_GPIO_AF_14
  *         @arg @ref LL_GPIO_AF_15
  * @retval None
  */
__STATIC_INLINE void LL_GPIO_SetAFPin_0_7(GPIO_TypeDef *GPIOx, uint32_t Pin, uint32_t Alternate)
{
 80042a8:	b410      	push	{r4}
  MODIFY_REG(GPIOx->AFR[0], (GPIO_AFRL_AFSEL0 << (POSITION_VAL(Pin) * GPIO_AFRL_AFSEL1_Pos)),
 80042aa:	6a04      	ldr	r4, [r0, #32]
   __ASM ("rbit %0, %1" : "=r" (result) : "r" (value) );
 80042ac:	fa91 f3a1 	rbit	r3, r1
  if (value == 0U)
 80042b0:	b19b      	cbz	r3, 80042da <LL_GPIO_SetAFPin_0_7+0x32>
  return __builtin_clz(value);
 80042b2:	fab3 f383 	clz	r3, r3
 80042b6:	009b      	lsls	r3, r3, #2
 80042b8:	f04f 0c0f 	mov.w	ip, #15
 80042bc:	fa0c f303 	lsl.w	r3, ip, r3
 80042c0:	ea24 0303 	bic.w	r3, r4, r3
   __ASM ("rbit %0, %1" : "=r" (result) : "r" (value) );
 80042c4:	fa91 f1a1 	rbit	r1, r1
  if (value == 0U)
 80042c8:	b149      	cbz	r1, 80042de <LL_GPIO_SetAFPin_0_7+0x36>
  return __builtin_clz(value);
 80042ca:	fab1 f181 	clz	r1, r1
 80042ce:	0089      	lsls	r1, r1, #2
 80042d0:	408a      	lsls	r2, r1
 80042d2:	4313      	orrs	r3, r2
 80042d4:	6203      	str	r3, [r0, #32]
             (Alternate << (POSITION_VAL(Pin) * GPIO_AFRL_AFSEL1_Pos)));
}
 80042d6:	bc10      	pop	{r4}
 80042d8:	4770      	bx	lr
    return 32U;
 80042da:	2320      	movs	r3, #32
 80042dc:	e7eb      	b.n	80042b6 <LL_GPIO_SetAFPin_0_7+0xe>
 80042de:	2120      	movs	r1, #32
 80042e0:	e7f5      	b.n	80042ce <LL_GPIO_SetAFPin_0_7+0x26>

080042e2 <LL_GPIO_SetAFPin_8_15>:
  *         @arg @ref LL_GPIO_AF_14
  *         @arg @ref LL_GPIO_AF_15
  * @retval None
  */
__STATIC_INLINE void LL_GPIO_SetAFPin_8_15(GPIO_TypeDef *GPIOx, uint32_t Pin, uint32_t Alternate)
{
 80042e2:	b410      	push	{r4}
  MODIFY_REG(GPIOx->AFR[1], (GPIO_AFRH_AFSEL8 << (POSITION_VAL(Pin >> 8U) * GPIO_AFRH_AFSEL9_Pos)),
 80042e4:	6a44      	ldr	r4, [r0, #36]	@ 0x24
 80042e6:	0a09      	lsrs	r1, r1, #8
   __ASM ("rbit %0, %1" : "=r" (result) : "r" (value) );
 80042e8:	fa91 f3a1 	rbit	r3, r1
  if (value == 0U)
 80042ec:	b19b      	cbz	r3, 8004316 <LL_GPIO_SetAFPin_8_15+0x34>
  return __builtin_clz(value);
 80042ee:	fab3 f383 	clz	r3, r3
 80042f2:	009b      	lsls	r3, r3, #2
 80042f4:	f04f 0c0f 	mov.w	ip, #15
 80042f8:	fa0c f303 	lsl.w	r3, ip, r3
 80042fc:	ea24 0403 	bic.w	r4, r4, r3
   __ASM ("rbit %0, %1" : "=r" (result) : "r" (value) );
 8004300:	fa91 f1a1 	rbit	r1, r1
  if (value == 0U)
 8004304:	b149      	cbz	r1, 800431a <LL_GPIO_SetAFPin_8_15+0x38>
  return __builtin_clz(value);
 8004306:	fab1 f181 	clz	r1, r1
 800430a:	0089      	lsls	r1, r1, #2
 800430c:	408a      	lsls	r2, r1
 800430e:	4314      	orrs	r4, r2
 8004310:	6244      	str	r4, [r0, #36]	@ 0x24
             (Alternate << (POSITION_VAL(Pin >> 8U) * GPIO_AFRH_AFSEL9_Pos)));
}
 8004312:	bc10      	pop	{r4}
 8004314:	4770      	bx	lr
    return 32U;
 8004316:	2320      	movs	r3, #32
 8004318:	e7eb      	b.n	80042f2 <LL_GPIO_SetAFPin_8_15+0x10>
 800431a:	2120      	movs	r1, #32
 800431c:	e7f5      	b.n	800430a <LL_GPIO_SetAFPin_8_15+0x28>

0800431e <LL_GPIO_SetPinMode>:
{
 800431e:	b410      	push	{r4}
  MODIFY_REG(GPIOx->MODER, (GPIO_MODER_MODE0 << (POSITION_VAL(Pin) * GPIO_MODER_MODE1_Pos)),
 8004320:	6804      	ldr	r4, [r0, #0]
   __ASM ("rbit %0, %1" : "=r" (result) : "r" (value) );
 8004322:	fa91 f3a1 	rbit	r3, r1
  if (value == 0U)
 8004326:	b19b      	cbz	r3, 8004350 <LL_GPIO_SetPinMode+0x32>
  return __builtin_clz(value);
 8004328:	fab3 f383 	clz	r3, r3
 800432c:	005b      	lsls	r3, r3, #1
 800432e:	f04f 0c03 	mov.w	ip, #3
 8004332:	fa0c f303 	lsl.w	r3, ip, r3
 8004336:	ea24 0303 	bic.w	r3, r4, r3
   __ASM ("rbit %0, %1" : "=r" (result) : "r" (value) );
 800433a:	fa91 f1a1 	rbit	r1, r1
  if (value == 0U)
 800433e:	b149      	cbz	r1, 8004354 <LL_GPIO_SetPinMode+0x36>
  return __builtin_clz(value);
 8004340:	fab1 f181 	clz	r1, r1
 8004344:	0049      	lsls	r1, r1, #1
 8004346:	408a      	lsls	r2, r1
 8004348:	4313      	orrs	r3, r2
 800434a:	6003      	str	r3, [r0, #0]
}
 800434c:	bc10      	pop	{r4}
 800434e:	4770      	bx	lr
    return 32U;
 8004350:	2320      	movs	r3, #32
 8004352:	e7eb      	b.n	800432c <LL_GPIO_SetPinMode+0xe>
 8004354:	2120      	movs	r1, #32
 8004356:	e7f5      	b.n	8004344 <LL_GPIO_SetPinMode+0x26>

08004358 <stm32_gpioport_configure_pin>:
{
 8004358:	e92d 47f0 	stmdb	sp!, {r4, r5, r6, r7, r8, r9, sl, lr}
 800435c:	460f      	mov	r7, r1
 800435e:	4616      	mov	r6, r2
 8004360:	4698      	mov	r8, r3
	const struct gpio_stm32_config *dev_cfg = port->config;
 8004362:	6843      	ldr	r3, [r0, #4]
	GPIO_TypeDef *gpio = (GPIO_TypeDef *)dev_cfg->base;
 8004364:	685d      	ldr	r5, [r3, #4]
		pinval |= 1u << pinnum;
	} else {
		pinval |= (1u << (pinnum % 8)) | 0x04000000u;
	}
#else
	pinval = 1u << pinnum;
 8004366:	2401      	movs	r4, #1
 8004368:	408c      	lsls	r4, r1
	mode = config & (STM32_MODER_MASK << STM32_MODER_SHIFT);
 800436a:	f002 0930 	and.w	r9, r2, #48	@ 0x30
	LL_GPIO_SetPinOutputType(gpio, pin_ll, otype >> STM32_OTYPER_SHIFT);
 800436e:	f3c2 1380 	ubfx	r3, r2, #6, #1
  MODIFY_REG(GPIOx->OTYPER, PinMask, (PinMask * OutputType));
 8004372:	6868      	ldr	r0, [r5, #4]
 8004374:	ea6f 0a04 	mvn.w	sl, r4
 8004378:	ea20 0004 	bic.w	r0, r0, r4
 800437c:	408b      	lsls	r3, r1
 800437e:	4318      	orrs	r0, r3
 8004380:	6068      	str	r0, [r5, #4]
	LL_GPIO_SetPinSpeed(gpio, pin_ll, ospeed >> STM32_OSPEEDR_SHIFT);
 8004382:	f3c2 12c1 	ubfx	r2, r2, #7, #2
 8004386:	4621      	mov	r1, r4
 8004388:	4628      	mov	r0, r5
 800438a:	f7ff ff4f 	bl	800422c <LL_GPIO_SetPinSpeed>
	ll_gpio_set_pin_pull(gpio, pin_ll, pupd >> STM32_PUPDR_SHIFT);
 800438e:	f3c6 2241 	ubfx	r2, r6, #9, #2
 8004392:	4621      	mov	r1, r4
 8004394:	4628      	mov	r0, r5
 8004396:	f7ff ff83 	bl	80042a0 <ll_gpio_set_pin_pull>
	if (mode == STM32_MODER_ALT_MODE) {
 800439a:	f1b9 0f20 	cmp.w	r9, #32
 800439e:	d00e      	beq.n	80043be <stm32_gpioport_configure_pin+0x66>
	if (hslv) {
 80043a0:	f416 5f80 	tst.w	r6, #4096	@ 0x1000
 80043a4:	d019      	beq.n	80043da <stm32_gpioport_configure_pin+0x82>
  *         @arg @ref LL_GPIO_PIN_15
  * @retval None
  */
__STATIC_INLINE void LL_GPIO_EnableHighSPeedLowVoltage(GPIO_TypeDef *GPIOx, uint32_t PinMask)
{
  SET_BIT(GPIOx->HSLVR, PinMask);
 80043a6:	6aeb      	ldr	r3, [r5, #44]	@ 0x2c
 80043a8:	4323      	orrs	r3, r4
 80043aa:	62eb      	str	r3, [r5, #44]	@ 0x2c
	LL_GPIO_SetPinMode(gpio, pin_ll, mode >> STM32_MODER_SHIFT);
 80043ac:	ea4f 1219 	mov.w	r2, r9, lsr #4
 80043b0:	4621      	mov	r1, r4
 80043b2:	4628      	mov	r0, r5
 80043b4:	f7ff ffb3 	bl	800431e <LL_GPIO_SetPinMode>
}
 80043b8:	2000      	movs	r0, #0
 80043ba:	e8bd 87f0 	ldmia.w	sp!, {r4, r5, r6, r7, r8, r9, sl, pc}
		if (pin < 8) {
 80043be:	2f07      	cmp	r7, #7
 80043c0:	d805      	bhi.n	80043ce <stm32_gpioport_configure_pin+0x76>
			LL_GPIO_SetAFPin_0_7(gpio, pin_ll, func);
 80043c2:	4642      	mov	r2, r8
 80043c4:	4621      	mov	r1, r4
 80043c6:	4628      	mov	r0, r5
 80043c8:	f7ff ff6e 	bl	80042a8 <LL_GPIO_SetAFPin_0_7>
 80043cc:	e7e8      	b.n	80043a0 <stm32_gpioport_configure_pin+0x48>
			LL_GPIO_SetAFPin_8_15(gpio, pin_ll, func);
 80043ce:	4642      	mov	r2, r8
 80043d0:	4621      	mov	r1, r4
 80043d2:	4628      	mov	r0, r5
 80043d4:	f7ff ff85 	bl	80042e2 <LL_GPIO_SetAFPin_8_15>
 80043d8:	e7e2      	b.n	80043a0 <stm32_gpioport_configure_pin+0x48>
  *         @arg @ref LL_GPIO_PIN_15
  * @retval None
  */
__STATIC_INLINE void LL_GPIO_DisableHighSPeedLowVoltage(GPIO_TypeDef *GPIOx, uint32_t PinMask)
{
  CLEAR_BIT(GPIOx->HSLVR, PinMask);
 80043da:	6aeb      	ldr	r3, [r5, #44]	@ 0x2c
 80043dc:	ea0a 0303 	and.w	r3, sl, r3
 80043e0:	62eb      	str	r3, [r5, #44]	@ 0x2c
}
 80043e2:	e7e3      	b.n	80043ac <stm32_gpioport_configure_pin+0x54>

080043e4 <arch_early_memset>:
{
 80043e4:	b508      	push	{r3, lr}
	(void) memset(dst, c, n);
 80043e6:	f7ff f895 	bl	8003514 <memset>
}
 80043ea:	bd08      	pop	{r3, pc}

080043ec <arch_early_memcpy>:
{
 80043ec:	b508      	push	{r3, lr}
	(void) memcpy(dst, src, n);
 80043ee:	f7fb ff29 	bl	8000244 <__aeabi_memcpy>
}
 80043f2:	bd08      	pop	{r3, pc}

080043f4 <z_do_kernel_oops>:
 * @param esf exception frame
 * @param callee_regs Callee-saved registers (R4-R11)
 * @param exc_return EXC_RETURN value present in LR after exception entry.
 */
void z_do_kernel_oops(const struct arch_esf *esf, _callee_saved_t *callee_regs, uint32_t exc_return)
{
 80043f4:	b508      	push	{r3, lr}
 80043f6:	4601      	mov	r1, r0
	}

#endif /* CONFIG_USERSPACE */

#if !defined(CONFIG_EXTRA_EXCEPTION_INFO)
	z_arm_fatal_error(reason, esf);
 80043f8:	6800      	ldr	r0, [r0, #0]
 80043fa:	f7fc fa59 	bl	80008b0 <z_arm_fatal_error>
		.exc_return = exc_return,
	};

	z_arm_fatal_error(reason, &esf_copy);
#endif /* CONFIG_EXTRA_EXCEPTION_INFO */
}
 80043fe:	bd08      	pop	{r3, pc}

08004400 <z_arm_nmi>:
 * Simply call what is installed in 'static void(*handler)(void)'.
 *
 */

void z_arm_nmi(void)
{
 8004400:	b508      	push	{r3, lr}
	handler();
 8004402:	f7fc fa6d 	bl	80008e0 <z_SysNmiOnReset>
	z_arm_int_exit();
 8004406:	f7fc fdcd 	bl	8000fa4 <z_arm_exc_exit>
}
 800440a:	bd08      	pop	{r3, pc}

0800440c <memory_fault_recoverable>:
}
 800440c:	2000      	movs	r0, #0
 800440e:	4770      	bx	lr

08004410 <fault_handle>:
{
 8004410:	b508      	push	{r3, lr}
	*recoverable = false;
 8004412:	2300      	movs	r3, #0
 8004414:	7013      	strb	r3, [r2, #0]
	switch (fault) {
 8004416:	1ecb      	subs	r3, r1, #3
 8004418:	2b09      	cmp	r3, #9
 800441a:	d81a      	bhi.n	8004452 <fault_handle+0x42>
 800441c:	e8df f003 	tbb	[pc, r3]
 8004420:	110d0905 	.word	0x110d0905
 8004424:	19191919 	.word	0x19191919
 8004428:	1419      	.short	0x1419
		reason = hard_fault(esf, recoverable);
 800442a:	4611      	mov	r1, r2
 800442c:	f7fc fc1e 	bl	8000c6c <hard_fault>
		break;
 8004430:	e012      	b.n	8004458 <fault_handle+0x48>
		reason = mem_manage_fault(esf, 0, recoverable);
 8004432:	2100      	movs	r1, #0
 8004434:	f7fc fac4 	bl	80009c0 <mem_manage_fault>
		break;
 8004438:	e00e      	b.n	8004458 <fault_handle+0x48>
		reason = bus_fault(esf, 0, recoverable);
 800443a:	2100      	movs	r1, #0
 800443c:	f7fc fb3a 	bl	8000ab4 <bus_fault>
		break;
 8004440:	e00a      	b.n	8004458 <fault_handle+0x48>
		reason = usage_fault(esf);
 8004442:	f7fc fbad 	bl	8000ba0 <usage_fault>
		break;
 8004446:	e007      	b.n	8004458 <fault_handle+0x48>
		debug_monitor(esf, recoverable);
 8004448:	4611      	mov	r1, r2
 800444a:	f7fc fc6b 	bl	8000d24 <debug_monitor>
	uint32_t reason = K_ERR_CPU_EXCEPTION;
 800444e:	2000      	movs	r0, #0
		break;
 8004450:	e002      	b.n	8004458 <fault_handle+0x48>
		reserved_exception(esf, fault);
 8004452:	f7fc fc71 	bl	8000d38 <reserved_exception>
	uint32_t reason = K_ERR_CPU_EXCEPTION;
 8004456:	2000      	movs	r0, #0
}
 8004458:	bd08      	pop	{r3, pc}

0800445a <arm_irq_enable>:
 */

#if !defined(CONFIG_ARM_CUSTOM_INTERRUPT_CONTROLLER)

void arm_irq_enable(unsigned int irq)
{
 800445a:	b508      	push	{r3, lr}
	NVIC_EnableIRQ((IRQn_Type)irq);
 800445c:	b200      	sxth	r0, r0
 800445e:	f7fc fd0b 	bl	8000e78 <__NVIC_EnableIRQ>
}
 8004462:	bd08      	pop	{r3, pc}

08004464 <arm_irq_priority_set>:
 * The priority is verified if ASSERT_ON is enabled. The maximum number
 * of priority levels is a little complex, as there are some hardware
 * priority levels which are reserved.
 */
void arm_irq_priority_set(unsigned int irq, unsigned int prio, uint32_t flags)
{
 8004464:	b508      	push	{r3, lr}
	 * reduced set of priorities, like Cortex-M0/M0+).
	 */
	__ASSERT(prio <= (BIT(NUM_IRQ_PRIO_BITS) - 1),
		 "invalid priority %d for %d irq! values must be less than %lu\n",
		 prio - _IRQ_PRIO_OFFSET, irq, BIT(NUM_IRQ_PRIO_BITS) - (_IRQ_PRIO_OFFSET));
	NVIC_SetPriority((IRQn_Type)irq, prio);
 8004466:	3101      	adds	r1, #1
 8004468:	b200      	sxth	r0, r0
 800446a:	f7fc fd13 	bl	8000e94 <__NVIC_SetPriority>
}
 800446e:	bd08      	pop	{r3, pc}

08004470 <z_irq_spurious>:
 * Installed in all _sw_isr_table slots at boot time. Throws an error if
 * called.
 *
 */
void z_irq_spurious(const void *unused)
{
 8004470:	b508      	push	{r3, lr}
	ARG_UNUSED(unused);

	z_arm_fatal_error(K_ERR_SPURIOUS_IRQ, NULL);
 8004472:	2100      	movs	r1, #0
 8004474:	2001      	movs	r0, #1
 8004476:	f7fc fa1b 	bl	80008b0 <z_arm_fatal_error>
}
 800447a:	bd08      	pop	{r3, pc}

0800447c <configure_builtin_stack_guard>:
	uint32_t guard_start = thread->stack_info.start;
 800447c:	f8d0 3094 	ldr.w	r3, [r0, #148]	@ 0x94
  __ASM volatile ("MSR psplim, %0" : : "r" (ProcStackPtrLimit));
 8004480:	f383 880b 	msr	PSPLIM, r3
}
 8004484:	4770      	bx	lr

08004486 <arch_coprocessors_disable>:
}
 8004486:	f06f 0085 	mvn.w	r0, #133	@ 0x85
 800448a:	4770      	bx	lr

0800448c <arch_irq_unlock_outlined>:
  \details Enables FIQ interrupts by clearing special-purpose register FAULTMASK.
             Can only be executed in Privileged modes.
   */
  __STATIC_FORCEINLINE void __enable_fault_irq(void)
  {
    __ASM volatile ("cpsie f" : : : "memory");
 800448c:	b661      	cpsie	f
  __ASM volatile ("cpsie i" : : : "memory");
 800448e:	b662      	cpsie	i
  __ASM volatile ("MSR basepri, %0" : : "r" (basePri) : "memory");
 8004490:	f380 8811 	msr	BASEPRI, r0
  __ASM volatile ("isb 0xF":::"memory");
 8004494:	f3bf 8f6f 	isb	sy
#if defined(CONFIG_ARMV7_M_ARMV8_M_MAINLINE)
	__enable_fault_irq(); /* alters FAULTMASK */
	__enable_irq();       /* alters PRIMASK */
#endif
	arch_irq_unlock(key);
}
 8004498:	4770      	bx	lr

0800449a <arch_cpu_idle>:
  __ASM volatile ("cpsid i" : : : "memory");
 800449a:	b672      	cpsid	i
 800449c:	2300      	movs	r3, #0
 800449e:	f383 8811 	msr	BASEPRI, r3
  __ASM volatile ("isb 0xF":::"memory");
 80044a2:	f3bf 8f6f 	isb	sy
  __ASM volatile ("dsb 0xF":::"memory");
 80044a6:	f3bf 8f4f 	dsb	sy
	 * set by the caller as part of interrupt locking if necessary
	 * (i.e. if the caller sets _kernel.idle).
	 */
#endif

	SLEEP_IF_ALLOWED(__WFI);
 80044aa:	bf30      	wfi
  __ASM volatile ("cpsie i" : : : "memory");
 80044ac:	b662      	cpsie	i
  __ASM volatile ("isb 0xF":::"memory");
 80044ae:	f3bf 8f6f 	isb	sy
#if defined(CONFIG_TRACING)
	sys_trace_idle_exit();
#endif
	__enable_irq();
	__ISB();
}
 80044b2:	4770      	bx	lr

080044b4 <arm_cmse_mpu_region_get>:
__CMSE_TT_ASM ()

__extension__ static __inline __attribute__ ((__always_inline__))
cmse_address_info_t
cmse_TT (void *__p)
__CMSE_TT_ASM ()
 80044b4:	e840 f000 	tt	r0, r0

int arm_cmse_mpu_region_get(uint32_t addr)
{
	cmse_address_info_t addr_info = cmse_TT((void *)addr);

	if (addr_info.flags.mpu_region_valid) {
 80044b8:	f410 3f80 	tst.w	r0, #65536	@ 0x10000
 80044bc:	d001      	beq.n	80044c2 <arm_cmse_mpu_region_get+0xe>
		return addr_info.flags.mpu_region;
 80044be:	b2c0      	uxtb	r0, r0
 80044c0:	4770      	bx	lr
	}

	return -EINVAL;
 80044c2:	f06f 0015 	mvn.w	r0, #21
}
 80044c6:	4770      	bx	lr

080044c8 <region_init>:
{
 80044c8:	b508      	push	{r3, lr}
		(region_conf->base & MPU_RBAR_BASE_Msk)
 80044ca:	680b      	ldr	r3, [r1, #0]
 80044cc:	f023 0c1f 	bic.w	ip, r3, #31
		| (region_conf->attr.rbar &
 80044d0:	7a0b      	ldrb	r3, [r1, #8]
 80044d2:	f003 0e1f 	and.w	lr, r3, #31
		(region_conf->attr.r_limit & MPU_RLAR_LIMIT_Msk)
 80044d6:	68ca      	ldr	r2, [r1, #12]
 80044d8:	f022 021f 	bic.w	r2, r2, #31
		| ((region_conf->attr.mair_idx << MPU_RLAR_AttrIndx_Pos)
 80044dc:	095b      	lsrs	r3, r3, #5
 80044de:	ea42 0243 	orr.w	r2, r2, r3, lsl #1
	mpu_set_region(
 80044e2:	f042 0201 	orr.w	r2, r2, #1
 80044e6:	ea4c 010e 	orr.w	r1, ip, lr
 80044ea:	f7fc fe13 	bl	8001114 <mpu_set_region>
}
 80044ee:	bd08      	pop	{r3, pc}

080044f0 <mpu_partition_is_valid>:
		(part->size >= CONFIG_ARM_MPU_REGION_MIN_ALIGN_AND_SIZE)
 80044f0:	6843      	ldr	r3, [r0, #4]
		&&
 80044f2:	2b1f      	cmp	r3, #31
 80044f4:	d908      	bls.n	8004508 <mpu_partition_is_valid+0x18>
		&&
 80044f6:	f013 0f1f 	tst.w	r3, #31
 80044fa:	d107      	bne.n	800450c <mpu_partition_is_valid+0x1c>
		((part->start &
 80044fc:	6803      	ldr	r3, [r0, #0]
		&&
 80044fe:	f013 0f1f 	tst.w	r3, #31
 8004502:	d005      	beq.n	8004510 <mpu_partition_is_valid+0x20>
 8004504:	2000      	movs	r0, #0
 8004506:	4770      	bx	lr
 8004508:	2000      	movs	r0, #0
 800450a:	4770      	bx	lr
 800450c:	2000      	movs	r0, #0
 800450e:	4770      	bx	lr
 8004510:	2001      	movs	r0, #1
}
 8004512:	4770      	bx	lr

08004514 <mpu_configure_region>:
{
 8004514:	b500      	push	{lr}
 8004516:	b085      	sub	sp, #20
	region_conf.base = new_region->start;
 8004518:	680a      	ldr	r2, [r1, #0]
 800451a:	9200      	str	r2, [sp, #0]
		&new_region->attr, new_region->start, new_region->size);
 800451c:	684b      	ldr	r3, [r1, #4]
	p_attr->rbar = attr->rbar &
 800451e:	f8b1 e008 	ldrh.w	lr, [r1, #8]
 8004522:	f89d c008 	ldrb.w	ip, [sp, #8]
 8004526:	f36e 0c04 	bfi	ip, lr, #0, #5
 800452a:	f88d c008 	strb.w	ip, [sp, #8]
	p_attr->mair_idx = attr->mair_idx;
 800452e:	f8b1 c00a 	ldrh.w	ip, [r1, #10]
 8004532:	f89d 1008 	ldrb.w	r1, [sp, #8]
 8004536:	f36c 1147 	bfi	r1, ip, #5, #3
 800453a:	f88d 1008 	strb.w	r1, [sp, #8]
	p_attr->r_limit = REGION_LIMIT_ADDR(base, size);
 800453e:	f022 021f 	bic.w	r2, r2, #31
 8004542:	4413      	add	r3, r2
 8004544:	3b01      	subs	r3, #1
 8004546:	f023 031f 	bic.w	r3, r3, #31
 800454a:	9303      	str	r3, [sp, #12]
	return region_allocate_and_init(index,
 800454c:	4669      	mov	r1, sp
 800454e:	f7fc fe0b 	bl	8001168 <region_allocate_and_init>
}
 8004552:	b005      	add	sp, #20
 8004554:	f85d fb04 	ldr.w	pc, [sp], #4

08004558 <get_region_index>:
{
 8004558:	b570      	push	{r4, r5, r6, lr}
 800455a:	4604      	mov	r4, r0
 800455c:	460e      	mov	r6, r1
	uint32_t region_start_addr = arm_cmse_mpu_region_get(start);
 800455e:	f7ff ffa9 	bl	80044b4 <arm_cmse_mpu_region_get>
 8004562:	4605      	mov	r5, r0
	uint32_t region_end_addr = arm_cmse_mpu_region_get(start + size - 1);
 8004564:	4434      	add	r4, r6
 8004566:	1e60      	subs	r0, r4, #1
 8004568:	f7ff ffa4 	bl	80044b4 <arm_cmse_mpu_region_get>
	if (region_start_addr == region_end_addr) {
 800456c:	4285      	cmp	r5, r0
 800456e:	d101      	bne.n	8004574 <get_region_index+0x1c>
}
 8004570:	4628      	mov	r0, r5
 8004572:	bd70      	pop	{r4, r5, r6, pc}
	return -EINVAL;
 8004574:	f06f 0515 	mvn.w	r5, #21
 8004578:	e7fa      	b.n	8004570 <get_region_index+0x18>

0800457a <mpu_configure_regions_from_dt>:
{
 800457a:	b5f0      	push	{r4, r5, r6, r7, lr}
 800457c:	b087      	sub	sp, #28
 800457e:	4605      	mov	r5, r0
	num_regions = mem_attr_get_regions(&region);
 8004580:	a805      	add	r0, sp, #20
 8004582:	f7fc f949 	bl	8000818 <mem_attr_get_regions>
 8004586:	4606      	mov	r6, r0
	for (size_t idx = 0; idx < num_regions; idx++) {
 8004588:	2400      	movs	r4, #0
 800458a:	e042      	b.n	8004612 <mpu_configure_regions_from_dt+0x98>
		switch (DT_MEM_ARM_GET(region[idx].dt_attr)) {
 800458c:	f1b3 6f00 	cmp.w	r3, #134217728	@ 0x8000000
 8004590:	f000 80a3 	beq.w	80046da <mpu_configure_regions_from_dt+0x160>
 8004594:	f1b3 5f80 	cmp.w	r3, #268435456	@ 0x10000000
 8004598:	d13a      	bne.n	8004610 <mpu_configure_regions_from_dt+0x96>
			region_conf = _BUILD_REGION_CONF(region[idx], REGION_RAM_WT_ATTR);
 800459a:	6857      	ldr	r7, [r2, #4]
 800459c:	5809      	ldr	r1, [r1, r0]
 800459e:	f027 031f 	bic.w	r3, r7, #31
 80045a2:	6892      	ldr	r2, [r2, #8]
 80045a4:	4413      	add	r3, r2
 80045a6:	3b01      	subs	r3, #1
 80045a8:	f023 031f 	bic.w	r3, r3, #31
 80045ac:	9701      	str	r7, [sp, #4]
 80045ae:	9102      	str	r1, [sp, #8]
 80045b0:	f89d 200c 	ldrb.w	r2, [sp, #12]
 80045b4:	2101      	movs	r1, #1
 80045b6:	f361 0204 	bfi	r2, r1, #0, #5
 80045ba:	f88d 200c 	strb.w	r2, [sp, #12]
 80045be:	b2d2      	uxtb	r2, r2
 80045c0:	f022 02e0 	bic.w	r2, r2, #224	@ 0xe0
 80045c4:	f88d 200c 	strb.w	r2, [sp, #12]
 80045c8:	9304      	str	r3, [sp, #16]
			break;
 80045ca:	e017      	b.n	80045fc <mpu_configure_regions_from_dt+0x82>
			region_conf = _BUILD_REGION_CONF(region[idx], REGION_RAM_ATTR);
 80045cc:	6857      	ldr	r7, [r2, #4]
 80045ce:	5809      	ldr	r1, [r1, r0]
 80045d0:	f027 031f 	bic.w	r3, r7, #31
 80045d4:	6892      	ldr	r2, [r2, #8]
 80045d6:	4413      	add	r3, r2
 80045d8:	3b01      	subs	r3, #1
 80045da:	f023 031f 	bic.w	r3, r3, #31
 80045de:	9701      	str	r7, [sp, #4]
 80045e0:	9102      	str	r1, [sp, #8]
 80045e2:	f89d 200c 	ldrb.w	r2, [sp, #12]
 80045e6:	2101      	movs	r1, #1
 80045e8:	f361 0204 	bfi	r2, r1, #0, #5
 80045ec:	f88d 200c 	strb.w	r2, [sp, #12]
 80045f0:	b2d2      	uxtb	r2, r2
 80045f2:	f361 1247 	bfi	r2, r1, #5, #3
 80045f6:	f88d 200c 	strb.w	r2, [sp, #12]
 80045fa:	9304      	str	r3, [sp, #16]
		if (region_allocate_and_init((*reg_index),
 80045fc:	a901      	add	r1, sp, #4
 80045fe:	7828      	ldrb	r0, [r5, #0]
 8004600:	f7fc fdb2 	bl	8001168 <region_allocate_and_init>
 8004604:	2800      	cmp	r0, #0
 8004606:	f2c0 8082 	blt.w	800470e <mpu_configure_regions_from_dt+0x194>
		(*reg_index)++;
 800460a:	782b      	ldrb	r3, [r5, #0]
 800460c:	3301      	adds	r3, #1
 800460e:	702b      	strb	r3, [r5, #0]
	for (size_t idx = 0; idx < num_regions; idx++) {
 8004610:	3401      	adds	r4, #1
 8004612:	42b4      	cmp	r4, r6
 8004614:	d27e      	bcs.n	8004714 <mpu_configure_regions_from_dt+0x19a>
		switch (DT_MEM_ARM_GET(region[idx].dt_attr)) {
 8004616:	0120      	lsls	r0, r4, #4
 8004618:	9905      	ldr	r1, [sp, #20]
 800461a:	eb01 1204 	add.w	r2, r1, r4, lsl #4
 800461e:	68d3      	ldr	r3, [r2, #12]
 8004620:	f36f 0313 	bfc	r3, #0, #20
 8004624:	f1b3 7f80 	cmp.w	r3, #16777216	@ 0x1000000
 8004628:	d03d      	beq.n	80046a6 <mpu_configure_regions_from_dt+0x12c>
 800462a:	d8af      	bhi.n	800458c <mpu_configure_regions_from_dt+0x12>
 800462c:	f5b3 1f00 	cmp.w	r3, #2097152	@ 0x200000
 8004630:	d006      	beq.n	8004640 <mpu_configure_regions_from_dt+0xc6>
 8004632:	f5b3 0f80 	cmp.w	r3, #4194304	@ 0x400000
 8004636:	d01d      	beq.n	8004674 <mpu_configure_regions_from_dt+0xfa>
 8004638:	f5b3 1f80 	cmp.w	r3, #1048576	@ 0x100000
 800463c:	d0c6      	beq.n	80045cc <mpu_configure_regions_from_dt+0x52>
 800463e:	e7e7      	b.n	8004610 <mpu_configure_regions_from_dt+0x96>
			region_conf = _BUILD_REGION_CONF(region[idx], REGION_RAM_NOCACHE_ATTR);
 8004640:	6857      	ldr	r7, [r2, #4]
 8004642:	5809      	ldr	r1, [r1, r0]
 8004644:	f027 031f 	bic.w	r3, r7, #31
 8004648:	6892      	ldr	r2, [r2, #8]
 800464a:	4413      	add	r3, r2
 800464c:	3b01      	subs	r3, #1
 800464e:	f023 031f 	bic.w	r3, r3, #31
 8004652:	9701      	str	r7, [sp, #4]
 8004654:	9102      	str	r1, [sp, #8]
 8004656:	f89d 200c 	ldrb.w	r2, [sp, #12]
 800465a:	2101      	movs	r1, #1
 800465c:	f361 0204 	bfi	r2, r1, #0, #5
 8004660:	f88d 200c 	strb.w	r2, [sp, #12]
 8004664:	b2d2      	uxtb	r2, r2
 8004666:	2102      	movs	r1, #2
 8004668:	f361 1247 	bfi	r2, r1, #5, #3
 800466c:	f88d 200c 	strb.w	r2, [sp, #12]
 8004670:	9304      	str	r3, [sp, #16]
			break;
 8004672:	e7c3      	b.n	80045fc <mpu_configure_regions_from_dt+0x82>
			region_conf = _BUILD_REGION_CONF(region[idx], REGION_FLASH_ATTR);
 8004674:	6857      	ldr	r7, [r2, #4]
 8004676:	5809      	ldr	r1, [r1, r0]
 8004678:	f027 031f 	bic.w	r3, r7, #31
 800467c:	6892      	ldr	r2, [r2, #8]
 800467e:	4413      	add	r3, r2
 8004680:	3b01      	subs	r3, #1
 8004682:	f023 031f 	bic.w	r3, r3, #31
 8004686:	9701      	str	r7, [sp, #4]
 8004688:	9102      	str	r1, [sp, #8]
 800468a:	f89d 200c 	ldrb.w	r2, [sp, #12]
 800468e:	2106      	movs	r1, #6
 8004690:	f361 0204 	bfi	r2, r1, #0, #5
 8004694:	f88d 200c 	strb.w	r2, [sp, #12]
 8004698:	b2d2      	uxtb	r2, r2
 800469a:	f022 02e0 	bic.w	r2, r2, #224	@ 0xe0
 800469e:	f88d 200c 	strb.w	r2, [sp, #12]
 80046a2:	9304      	str	r3, [sp, #16]
			break;
 80046a4:	e7aa      	b.n	80045fc <mpu_configure_regions_from_dt+0x82>
			region_conf = _BUILD_REGION_CONF(region[idx], REGION_IO_ATTR);
 80046a6:	6857      	ldr	r7, [r2, #4]
 80046a8:	5809      	ldr	r1, [r1, r0]
 80046aa:	f027 031f 	bic.w	r3, r7, #31
 80046ae:	6892      	ldr	r2, [r2, #8]
 80046b0:	4413      	add	r3, r2
 80046b2:	3b01      	subs	r3, #1
 80046b4:	f023 031f 	bic.w	r3, r3, #31
 80046b8:	9701      	str	r7, [sp, #4]
 80046ba:	9102      	str	r1, [sp, #8]
 80046bc:	f89d 200c 	ldrb.w	r2, [sp, #12]
 80046c0:	2101      	movs	r1, #1
 80046c2:	f361 0204 	bfi	r2, r1, #0, #5
 80046c6:	f88d 200c 	strb.w	r2, [sp, #12]
 80046ca:	b2d2      	uxtb	r2, r2
 80046cc:	2103      	movs	r1, #3
 80046ce:	f361 1247 	bfi	r2, r1, #5, #3
 80046d2:	f88d 200c 	strb.w	r2, [sp, #12]
 80046d6:	9304      	str	r3, [sp, #16]
			break;
 80046d8:	e790      	b.n	80045fc <mpu_configure_regions_from_dt+0x82>
			region_conf = _BUILD_REGION_CONF(region[idx], REGION_DEVICE_ATTR);
 80046da:	6857      	ldr	r7, [r2, #4]
 80046dc:	5809      	ldr	r1, [r1, r0]
 80046de:	f027 031f 	bic.w	r3, r7, #31
 80046e2:	6892      	ldr	r2, [r2, #8]
 80046e4:	4413      	add	r3, r2
 80046e6:	3b01      	subs	r3, #1
 80046e8:	f023 031f 	bic.w	r3, r3, #31
 80046ec:	9701      	str	r7, [sp, #4]
 80046ee:	9102      	str	r1, [sp, #8]
 80046f0:	f89d 200c 	ldrb.w	r2, [sp, #12]
 80046f4:	2101      	movs	r1, #1
 80046f6:	f361 0204 	bfi	r2, r1, #0, #5
 80046fa:	f88d 200c 	strb.w	r2, [sp, #12]
 80046fe:	b2d2      	uxtb	r2, r2
 8004700:	2103      	movs	r1, #3
 8004702:	f361 1247 	bfi	r2, r1, #5, #3
 8004706:	f88d 200c 	strb.w	r2, [sp, #12]
 800470a:	9304      	str	r3, [sp, #16]
			break;
 800470c:	e776      	b.n	80045fc <mpu_configure_regions_from_dt+0x82>
			return -EINVAL;
 800470e:	f06f 0015 	mvn.w	r0, #21
 8004712:	e000      	b.n	8004716 <mpu_configure_regions_from_dt+0x19c>
	return 0;
 8004714:	2000      	movs	r0, #0
}
 8004716:	b007      	add	sp, #28
 8004718:	bdf0      	pop	{r4, r5, r6, r7, pc}

0800471a <arm_core_mpu_configure_static_mpu_regions>:
{
 800471a:	b508      	push	{r3, lr}
	if (mpu_configure_static_mpu_regions(static_regions, regions_num,
 800471c:	f7fc fe00 	bl	8001320 <mpu_configure_static_mpu_regions>
}
 8004720:	bd08      	pop	{r3, pc}

08004722 <arm_core_mpu_mark_areas_for_dynamic_regions>:
{
 8004722:	b508      	push	{r3, lr}
	if (mpu_mark_areas_for_dynamic_regions(dyn_region_areas,
 8004724:	f7fc fe06 	bl	8001334 <mpu_mark_areas_for_dynamic_regions>
}
 8004728:	bd08      	pop	{r3, pc}

0800472a <picolibc_put>:
{
 800472a:	b508      	push	{r3, lr}
		union { uintptr_t x; FILE * val; } parm1 = { .val = stream };
		return (int) arch_syscall_invoke2(parm0.x, parm1.x, K_SYSCALL_ZEPHYR_FPUTC);
	}
#endif
	compiler_barrier();
	return z_impl_zephyr_fputc(c, stream);
 800472c:	f7fc fe88 	bl	8001440 <z_impl_zephyr_fputc>
}
 8004730:	2000      	movs	r0, #0
 8004732:	bd08      	pop	{r3, pc}

08004734 <stm32_exti_init>:

/**
 * @brief Initializes the EXTI interrupt controller driver
 */
static int stm32_exti_init(const struct device *dev)
{
 8004734:	b508      	push	{r3, lr}
	ARG_UNUSED(dev);

	return stm32_exti_enable_clocks();
 8004736:	f7fc fea9 	bl	800148c <stm32_exti_enable_clocks>
}
 800473a:	bd08      	pop	{r3, pc}

0800473c <stm32_exti_gpio_intc_init>:
{
 800473c:	b508      	push	{r3, lr}
	DT_FOREACH_PROP_ELEM(EXTI_NODE,
 800473e:	220b      	movs	r2, #11
 8004740:	2101      	movs	r1, #1
 8004742:	2000      	movs	r0, #0
 8004744:	f7fc ff14 	bl	8001570 <stm32_fill_irq_table>
 8004748:	2200      	movs	r2, #0
 800474a:	4611      	mov	r1, r2
 800474c:	200b      	movs	r0, #11
 800474e:	f7ff fe89 	bl	8004464 <arm_irq_priority_set>
 8004752:	220c      	movs	r2, #12
 8004754:	2101      	movs	r1, #1
 8004756:	4608      	mov	r0, r1
 8004758:	f7fc ff0a 	bl	8001570 <stm32_fill_irq_table>
 800475c:	2200      	movs	r2, #0
 800475e:	4611      	mov	r1, r2
 8004760:	200c      	movs	r0, #12
 8004762:	f7ff fe7f 	bl	8004464 <arm_irq_priority_set>
 8004766:	220d      	movs	r2, #13
 8004768:	2101      	movs	r1, #1
 800476a:	2002      	movs	r0, #2
 800476c:	f7fc ff00 	bl	8001570 <stm32_fill_irq_table>
 8004770:	2200      	movs	r2, #0
 8004772:	4611      	mov	r1, r2
 8004774:	200d      	movs	r0, #13
 8004776:	f7ff fe75 	bl	8004464 <arm_irq_priority_set>
 800477a:	220e      	movs	r2, #14
 800477c:	2101      	movs	r1, #1
 800477e:	2003      	movs	r0, #3
 8004780:	f7fc fef6 	bl	8001570 <stm32_fill_irq_table>
 8004784:	2200      	movs	r2, #0
 8004786:	4611      	mov	r1, r2
 8004788:	200e      	movs	r0, #14
 800478a:	f7ff fe6b 	bl	8004464 <arm_irq_priority_set>
 800478e:	220f      	movs	r2, #15
 8004790:	2101      	movs	r1, #1
 8004792:	2004      	movs	r0, #4
 8004794:	f7fc feec 	bl	8001570 <stm32_fill_irq_table>
 8004798:	2200      	movs	r2, #0
 800479a:	4611      	mov	r1, r2
 800479c:	200f      	movs	r0, #15
 800479e:	f7ff fe61 	bl	8004464 <arm_irq_priority_set>
 80047a2:	2210      	movs	r2, #16
 80047a4:	2101      	movs	r1, #1
 80047a6:	2005      	movs	r0, #5
 80047a8:	f7fc fee2 	bl	8001570 <stm32_fill_irq_table>
 80047ac:	2200      	movs	r2, #0
 80047ae:	4611      	mov	r1, r2
 80047b0:	2010      	movs	r0, #16
 80047b2:	f7ff fe57 	bl	8004464 <arm_irq_priority_set>
 80047b6:	2211      	movs	r2, #17
 80047b8:	2101      	movs	r1, #1
 80047ba:	2006      	movs	r0, #6
 80047bc:	f7fc fed8 	bl	8001570 <stm32_fill_irq_table>
 80047c0:	2200      	movs	r2, #0
 80047c2:	4611      	mov	r1, r2
 80047c4:	2011      	movs	r0, #17
 80047c6:	f7ff fe4d 	bl	8004464 <arm_irq_priority_set>
 80047ca:	2212      	movs	r2, #18
 80047cc:	2101      	movs	r1, #1
 80047ce:	2007      	movs	r0, #7
 80047d0:	f7fc fece 	bl	8001570 <stm32_fill_irq_table>
 80047d4:	2200      	movs	r2, #0
 80047d6:	4611      	mov	r1, r2
 80047d8:	2012      	movs	r0, #18
 80047da:	f7ff fe43 	bl	8004464 <arm_irq_priority_set>
 80047de:	2213      	movs	r2, #19
 80047e0:	2101      	movs	r1, #1
 80047e2:	2008      	movs	r0, #8
 80047e4:	f7fc fec4 	bl	8001570 <stm32_fill_irq_table>
 80047e8:	2200      	movs	r2, #0
 80047ea:	4611      	mov	r1, r2
 80047ec:	2013      	movs	r0, #19
 80047ee:	f7ff fe39 	bl	8004464 <arm_irq_priority_set>
 80047f2:	2214      	movs	r2, #20
 80047f4:	2101      	movs	r1, #1
 80047f6:	2009      	movs	r0, #9
 80047f8:	f7fc feba 	bl	8001570 <stm32_fill_irq_table>
 80047fc:	2200      	movs	r2, #0
 80047fe:	4611      	mov	r1, r2
 8004800:	2014      	movs	r0, #20
 8004802:	f7ff fe2f 	bl	8004464 <arm_irq_priority_set>
 8004806:	2215      	movs	r2, #21
 8004808:	2101      	movs	r1, #1
 800480a:	200a      	movs	r0, #10
 800480c:	f7fc feb0 	bl	8001570 <stm32_fill_irq_table>
 8004810:	2200      	movs	r2, #0
 8004812:	4611      	mov	r1, r2
 8004814:	2015      	movs	r0, #21
 8004816:	f7ff fe25 	bl	8004464 <arm_irq_priority_set>
 800481a:	2216      	movs	r2, #22
 800481c:	2101      	movs	r1, #1
 800481e:	200b      	movs	r0, #11
 8004820:	f7fc fea6 	bl	8001570 <stm32_fill_irq_table>
 8004824:	2200      	movs	r2, #0
 8004826:	4611      	mov	r1, r2
 8004828:	2016      	movs	r0, #22
 800482a:	f7ff fe1b 	bl	8004464 <arm_irq_priority_set>
 800482e:	2217      	movs	r2, #23
 8004830:	2101      	movs	r1, #1
 8004832:	200c      	movs	r0, #12
 8004834:	f7fc fe9c 	bl	8001570 <stm32_fill_irq_table>
 8004838:	2200      	movs	r2, #0
 800483a:	4611      	mov	r1, r2
 800483c:	2017      	movs	r0, #23
 800483e:	f7ff fe11 	bl	8004464 <arm_irq_priority_set>
 8004842:	2218      	movs	r2, #24
 8004844:	2101      	movs	r1, #1
 8004846:	200d      	movs	r0, #13
 8004848:	f7fc fe92 	bl	8001570 <stm32_fill_irq_table>
 800484c:	2200      	movs	r2, #0
 800484e:	4611      	mov	r1, r2
 8004850:	2018      	movs	r0, #24
 8004852:	f7ff fe07 	bl	8004464 <arm_irq_priority_set>
 8004856:	2219      	movs	r2, #25
 8004858:	2101      	movs	r1, #1
 800485a:	200e      	movs	r0, #14
 800485c:	f7fc fe88 	bl	8001570 <stm32_fill_irq_table>
 8004860:	2200      	movs	r2, #0
 8004862:	4611      	mov	r1, r2
 8004864:	2019      	movs	r0, #25
 8004866:	f7ff fdfd 	bl	8004464 <arm_irq_priority_set>
 800486a:	221a      	movs	r2, #26
 800486c:	2101      	movs	r1, #1
 800486e:	200f      	movs	r0, #15
 8004870:	f7fc fe7e 	bl	8001570 <stm32_fill_irq_table>
 8004874:	2200      	movs	r2, #0
 8004876:	4611      	mov	r1, r2
 8004878:	201a      	movs	r0, #26
 800487a:	f7ff fdf3 	bl	8004464 <arm_irq_priority_set>
}
 800487e:	2000      	movs	r0, #0
 8004880:	bd08      	pop	{r3, pc}

08004882 <stm32_gpio_intc_get_pin_irq_line>:
 8004882:	f001 011f 	and.w	r1, r1, #31
}
 8004886:	2001      	movs	r0, #1
 8004888:	4088      	lsls	r0, r1
 800488a:	4770      	bx	lr

0800488c <stm32_exti_set_line_src_port>:
{
 800488c:	b508      	push	{r3, lr}
 800488e:	4603      	mov	r3, r0
 8004890:	4608      	mov	r0, r1
	return ((linenum & 0x3) << (16 + 3)) | (linenum >> 2);
 8004892:	04d9      	lsls	r1, r3, #19
 8004894:	f401 11c0 	and.w	r1, r1, #1572864	@ 0x180000
	LL_EXTI_SetEXTISource(port, ll_line);
 8004898:	ea41 0193 	orr.w	r1, r1, r3, lsr #2
 800489c:	f7fc fe52 	bl	8001544 <LL_EXTI_SetEXTISource>
}
 80048a0:	bd08      	pop	{r3, pc}

080048a2 <get_bus_clock>:
}
 80048a2:	fbb0 f0f1 	udiv	r0, r0, r1
 80048a6:	4770      	bx	lr

080048a8 <get_pllout_frequency>:
	uint32_t f_vco = (pllsrc_freq / pllm_div) *
 80048a8:	fbb0 f0f1 	udiv	r0, r0, r1
			 ((uint64_t)plln_mul * PLL_FRACN_DIVISOR + plln_frac) / PLL_FRACN_DIVISOR;
 80048ac:	0cd1      	lsrs	r1, r2, #19
 80048ae:	0352      	lsls	r2, r2, #13
 80048b0:	189b      	adds	r3, r3, r2
 80048b2:	f141 0100 	adc.w	r1, r1, #0
	uint32_t f_vco = (pllsrc_freq / pllm_div) *
 80048b6:	fba0 3203 	umull	r3, r2, r0, r3
 80048ba:	fb00 2201 	mla	r2, r0, r1, r2
			 ((uint64_t)plln_mul * PLL_FRACN_DIVISOR + plln_frac) / PLL_FRACN_DIVISOR;
 80048be:	0b5b      	lsrs	r3, r3, #13
 80048c0:	ea43 43c2 	orr.w	r3, r3, r2, lsl #19
}
 80048c4:	9800      	ldr	r0, [sp, #0]
 80048c6:	fbb3 f0f0 	udiv	r0, r3, r0
 80048ca:	4770      	bx	lr

080048cc <get_sysclk_frequency>:
{
 80048cc:	b500      	push	{lr}
 80048ce:	b083      	sub	sp, #12
	return get_pllout_frequency(get_pllsrc_frequency(PLL1_ID),
 80048d0:	2001      	movs	r0, #1
 80048d2:	f7fc ff39 	bl	8001748 <get_pllsrc_frequency>
 80048d6:	2102      	movs	r1, #2
 80048d8:	9100      	str	r1, [sp, #0]
 80048da:	2300      	movs	r3, #0
 80048dc:	2278      	movs	r2, #120	@ 0x78
 80048de:	f7ff ffe3 	bl	80048a8 <get_pllout_frequency>
}
 80048e2:	b003      	add	sp, #12
 80048e4:	f85d fb04 	ldr.w	pc, [sp], #4

080048e8 <stm32_clock_control_on>:
	if (!IN_RANGE(pclken->bus, STM32_PERIPH_BUS_MIN, STM32_PERIPH_BUS_MAX)) {
 80048e8:	880b      	ldrh	r3, [r1, #0]
 80048ea:	f3c3 030b 	ubfx	r3, r3, #0, #12
 80048ee:	f603 7278 	addw	r2, r3, #3960	@ 0xf78
 80048f2:	f3c2 020b 	ubfx	r2, r2, #0, #12
 80048f6:	2a20      	cmp	r2, #32
 80048f8:	d815      	bhi.n	8004926 <stm32_clock_control_on+0x3e>
{
 80048fa:	b082      	sub	sp, #8
	sys_set_bits(DT_REG_ADDR(DT_NODELABEL(rcc)) + pclken->bus,
 80048fc:	f103 4388 	add.w	r3, r3, #1140850688	@ 0x44000000
 8004900:	f503 3303 	add.w	r3, r3, #134144	@ 0x20c00
 8004904:	684a      	ldr	r2, [r1, #4]
	return temp & (1U << bit);
}

static ALWAYS_INLINE void sys_set_bits(mem_addr_t addr, unsigned int mask)
{
	uint32_t temp = *(volatile uint32_t *)addr;
 8004906:	6818      	ldr	r0, [r3, #0]

	*(volatile uint32_t *)addr = temp | mask;
 8004908:	4302      	orrs	r2, r0
 800490a:	601a      	str	r2, [r3, #0]
	temp = sys_read32(DT_REG_ADDR(DT_NODELABEL(rcc)) + pclken->bus);
 800490c:	880b      	ldrh	r3, [r1, #0]
 800490e:	f3c3 030b 	ubfx	r3, r3, #0, #12
 8004912:	f103 4388 	add.w	r3, r3, #1140850688	@ 0x44000000
 8004916:	f503 3303 	add.w	r3, r3, #134144	@ 0x20c00
	*(volatile uint16_t *)addr = data;
}

static ALWAYS_INLINE uint32_t sys_read32(mem_addr_t addr)
{
	return *(volatile uint32_t *)addr;
 800491a:	681b      	ldr	r3, [r3, #0]
 800491c:	9301      	str	r3, [sp, #4]
	UNUSED(temp);
 800491e:	9b01      	ldr	r3, [sp, #4]
	return 0;
 8004920:	2000      	movs	r0, #0
}
 8004922:	b002      	add	sp, #8
 8004924:	4770      	bx	lr
		return -ENOTSUP;
 8004926:	f06f 0085 	mvn.w	r0, #133	@ 0x85
}
 800492a:	4770      	bx	lr

0800492c <stm32_clock_control_off>:
	if (!IN_RANGE(pclken->bus, STM32_PERIPH_BUS_MIN, STM32_PERIPH_BUS_MAX)) {
 800492c:	880b      	ldrh	r3, [r1, #0]
 800492e:	f3c3 030b 	ubfx	r3, r3, #0, #12
 8004932:	f603 7278 	addw	r2, r3, #3960	@ 0xf78
 8004936:	f3c2 020b 	ubfx	r2, r2, #0, #12
 800493a:	2a20      	cmp	r2, #32
 800493c:	d80a      	bhi.n	8004954 <stm32_clock_control_off+0x28>
	sys_clear_bits(DT_REG_ADDR(DT_NODELABEL(rcc)) + pclken->bus,
 800493e:	f103 4388 	add.w	r3, r3, #1140850688	@ 0x44000000
 8004942:	f503 3303 	add.w	r3, r3, #134144	@ 0x20c00
 8004946:	6849      	ldr	r1, [r1, #4]
}

static ALWAYS_INLINE void sys_clear_bits(mem_addr_t addr, unsigned int mask)
{
	uint32_t temp = *(volatile uint32_t *)addr;
 8004948:	681a      	ldr	r2, [r3, #0]

	*(volatile uint32_t *)addr = temp & ~mask;
 800494a:	ea22 0201 	bic.w	r2, r2, r1
 800494e:	601a      	str	r2, [r3, #0]
	return 0;
 8004950:	2000      	movs	r0, #0
 8004952:	4770      	bx	lr
		return -ENOTSUP;
 8004954:	f06f 0085 	mvn.w	r0, #133	@ 0x85
}
 8004958:	4770      	bx	lr

0800495a <get_vco_output_range>:
	if (vco_input_range == LL_RCC_PLLINPUTRANGE_1_2) {
 800495a:	b108      	cbz	r0, 8004960 <get_vco_output_range+0x6>
	return LL_RCC_PLLVCORANGE_WIDE;
 800495c:	2000      	movs	r0, #0
 800495e:	4770      	bx	lr
		return LL_RCC_PLLVCORANGE_MEDIUM;
 8004960:	2001      	movs	r0, #1
}
 8004962:	4770      	bx	lr

08004964 <enabled_clock>:
	if ((src_clk == STM32_SRC_SYSCLK) ||
 8004964:	2801      	cmp	r0, #1
 8004966:	d024      	beq.n	80049b2 <enabled_clock+0x4e>
 8004968:	2808      	cmp	r0, #8
 800496a:	d024      	beq.n	80049b6 <enabled_clock+0x52>
	    (src_clk == STM32_SRC_HCLK) ||
 800496c:	2809      	cmp	r0, #9
 800496e:	d024      	beq.n	80049ba <enabled_clock+0x56>
	    (src_clk == STM32_SRC_PCLK1) ||
 8004970:	280a      	cmp	r0, #10
 8004972:	d024      	beq.n	80049be <enabled_clock+0x5a>
	    (src_clk == STM32_SRC_PCLK2) ||
 8004974:	280b      	cmp	r0, #11
 8004976:	d024      	beq.n	80049c2 <enabled_clock+0x5e>
	    (src_clk == STM32_SRC_PCLK3) ||
 8004978:	280c      	cmp	r0, #12
 800497a:	d024      	beq.n	80049c6 <enabled_clock+0x62>
	    (src_clk == STM32_SRC_TIMPCLK1) ||
 800497c:	280d      	cmp	r0, #13
 800497e:	d024      	beq.n	80049ca <enabled_clock+0x66>
	    ((src_clk == STM32_SRC_HSE) && IS_ENABLED(STM32_HSE_ENABLED)) ||
 8004980:	2804      	cmp	r0, #4
 8004982:	d024      	beq.n	80049ce <enabled_clock+0x6a>
	    ((src_clk == STM32_SRC_HSI) && IS_ENABLED(STM32_HSI_ENABLED)) ||
 8004984:	2807      	cmp	r0, #7
 8004986:	d024      	beq.n	80049d2 <enabled_clock+0x6e>
	    ((src_clk == STM32_SRC_HSI48) && IS_ENABLED(STM32_HSI48_ENABLED)) ||
 8004988:	2802      	cmp	r0, #2
 800498a:	d024      	beq.n	80049d6 <enabled_clock+0x72>
	    ((src_clk == STM32_SRC_LSI) && IS_ENABLED(STM32_LSI_ENABLED)) ||
 800498c:	2803      	cmp	r0, #3
 800498e:	d024      	beq.n	80049da <enabled_clock+0x76>
	    ((src_clk == STM32_SRC_CSI) && IS_ENABLED(STM32_CSI_ENABLED)) ||
 8004990:	280e      	cmp	r0, #14
 8004992:	d024      	beq.n	80049de <enabled_clock+0x7a>
	    ((src_clk == STM32_SRC_PLL1_P) && IS_ENABLED(STM32_PLL_P_ENABLED)) ||
 8004994:	280f      	cmp	r0, #15
 8004996:	d024      	beq.n	80049e2 <enabled_clock+0x7e>
	    ((src_clk == STM32_SRC_PLL1_Q) && IS_ENABLED(STM32_PLL_Q_ENABLED)) ||
 8004998:	2810      	cmp	r0, #16
 800499a:	d024      	beq.n	80049e6 <enabled_clock+0x82>
	    ((src_clk == STM32_SRC_PLL1_R) && IS_ENABLED(STM32_PLL_R_ENABLED)) ||
 800499c:	2811      	cmp	r0, #17
 800499e:	d024      	beq.n	80049ea <enabled_clock+0x86>
	    ((src_clk == STM32_SRC_PLL2_P) && IS_ENABLED(STM32_PLL2_P_ENABLED)) ||
 80049a0:	2812      	cmp	r0, #18
 80049a2:	d024      	beq.n	80049ee <enabled_clock+0x8a>
	    ((src_clk == STM32_SRC_PLL3_Q) && IS_ENABLED(STM32_PLL3_Q_ENABLED)) ||
 80049a4:	2813      	cmp	r0, #19
 80049a6:	d101      	bne.n	80049ac <enabled_clock+0x48>
		return 0;
 80049a8:	2000      	movs	r0, #0
}
 80049aa:	4770      	bx	lr
	return -ENOTSUP;
 80049ac:	f06f 0085 	mvn.w	r0, #133	@ 0x85
 80049b0:	4770      	bx	lr
		return 0;
 80049b2:	2000      	movs	r0, #0
 80049b4:	4770      	bx	lr
 80049b6:	2000      	movs	r0, #0
 80049b8:	4770      	bx	lr
 80049ba:	2000      	movs	r0, #0
 80049bc:	4770      	bx	lr
 80049be:	2000      	movs	r0, #0
 80049c0:	4770      	bx	lr
 80049c2:	2000      	movs	r0, #0
 80049c4:	4770      	bx	lr
 80049c6:	2000      	movs	r0, #0
 80049c8:	4770      	bx	lr
 80049ca:	2000      	movs	r0, #0
 80049cc:	4770      	bx	lr
 80049ce:	2000      	movs	r0, #0
 80049d0:	4770      	bx	lr
 80049d2:	2000      	movs	r0, #0
 80049d4:	4770      	bx	lr
 80049d6:	2000      	movs	r0, #0
 80049d8:	4770      	bx	lr
 80049da:	2000      	movs	r0, #0
 80049dc:	4770      	bx	lr
 80049de:	2000      	movs	r0, #0
 80049e0:	4770      	bx	lr
 80049e2:	2000      	movs	r0, #0
 80049e4:	4770      	bx	lr
 80049e6:	2000      	movs	r0, #0
 80049e8:	4770      	bx	lr
 80049ea:	2000      	movs	r0, #0
 80049ec:	4770      	bx	lr
 80049ee:	2000      	movs	r0, #0
 80049f0:	4770      	bx	lr

080049f2 <stm32_clock_control_configure>:
{
 80049f2:	b570      	push	{r4, r5, r6, lr}
	uint32_t enr = pclken->enr;
 80049f4:	684c      	ldr	r4, [r1, #4]
	uint32_t shift = STM32_DT_CLKSEL_SHIFT_GET(enr);
 80049f6:	f3c4 4504 	ubfx	r5, r4, #16, #5
	err = enabled_clock(pclken->bus);
 80049fa:	8808      	ldrh	r0, [r1, #0]
 80049fc:	f3c0 000b 	ubfx	r0, r0, #0, #12
 8004a00:	f7ff ffb0 	bl	8004964 <enabled_clock>
	if (err < 0) {
 8004a04:	2800      	cmp	r0, #0
 8004a06:	db15      	blt.n	8004a34 <stm32_clock_control_configure+0x42>
 8004a08:	b2a6      	uxth	r6, r4
	if (pclken->enr == NO_SEL) {
 8004a0a:	2cff      	cmp	r4, #255	@ 0xff
 8004a0c:	d013      	beq.n	8004a36 <stm32_clock_control_configure+0x44>
	stm32_reg_modify_bits((uint32_t *)(DT_REG_ADDR(DT_NODELABEL(rcc)) + reg),
 8004a0e:	f106 4288 	add.w	r2, r6, #1140850688	@ 0x44000000
 8004a12:	f502 3203 	add.w	r2, r2, #134144	@ 0x20c00
			      STM32_DT_CLKSEL_MASK_GET(enr) << shift,
 8004a16:	f3c4 5141 	ubfx	r1, r4, #21, #2
 8004a1a:	3101      	adds	r1, #1
 8004a1c:	2301      	movs	r3, #1
 8004a1e:	408b      	lsls	r3, r1
 8004a20:	3b01      	subs	r3, #1
 8004a22:	40ab      	lsls	r3, r5
			      STM32_DT_CLKSEL_VAL_GET(enr) << shift);
 8004a24:	0e24      	lsrs	r4, r4, #24
	stm32_reg_modify_bits((uint32_t *)(DT_REG_ADDR(DT_NODELABEL(rcc)) + reg),
 8004a26:	40ac      	lsls	r4, r5
 8004a28:	6811      	ldr	r1, [r2, #0]
}

static ALWAYS_INLINE void stm32_reg_modify_bits(volatile uint32_t *addr, uint32_t mask,
						uint32_t value)
{
	stm32_reg_write(addr, (stm32_reg_read(addr) & ~mask) | value);
 8004a2a:	ea21 0303 	bic.w	r3, r1, r3
 8004a2e:	431c      	orrs	r4, r3
}

static ALWAYS_INLINE void sys_write32(uint32_t data, mem_addr_t addr)
{
	*(volatile uint32_t *)addr = data;
 8004a30:	6014      	str	r4, [r2, #0]
	return 0;
 8004a32:	2000      	movs	r0, #0
}
 8004a34:	bd70      	pop	{r4, r5, r6, pc}
		return 0;
 8004a36:	2000      	movs	r0, #0
 8004a38:	e7fc      	b.n	8004a34 <stm32_clock_control_configure+0x42>

08004a3a <stm32_clock_control_get_status>:
{
 8004a3a:	b508      	push	{r3, lr}
	if (IN_RANGE(pclken->bus, STM32_PERIPH_BUS_MIN, STM32_PERIPH_BUS_MAX) == true) {
 8004a3c:	8808      	ldrh	r0, [r1, #0]
 8004a3e:	f3c0 000b 	ubfx	r0, r0, #0, #12
 8004a42:	f600 7378 	addw	r3, r0, #3960	@ 0xf78
 8004a46:	f3c3 030b 	ubfx	r3, r3, #0, #12
 8004a4a:	2b20      	cmp	r3, #32
 8004a4c:	d80b      	bhi.n	8004a66 <stm32_clock_control_get_status+0x2c>
		if ((sys_read32(DT_REG_ADDR(DT_NODELABEL(rcc)) + pclken->bus) & pclken->enr)
 8004a4e:	f100 4088 	add.w	r0, r0, #1140850688	@ 0x44000000
 8004a52:	f500 3003 	add.w	r0, r0, #134144	@ 0x20c00
	return *(volatile uint32_t *)addr;
 8004a56:	6802      	ldr	r2, [r0, #0]
 8004a58:	684b      	ldr	r3, [r1, #4]
 8004a5a:	4393      	bics	r3, r2
 8004a5c:	d001      	beq.n	8004a62 <stm32_clock_control_get_status+0x28>
			return CLOCK_CONTROL_STATUS_OFF;
 8004a5e:	2001      	movs	r0, #1
}
 8004a60:	bd08      	pop	{r3, pc}
			return CLOCK_CONTROL_STATUS_ON;
 8004a62:	2002      	movs	r0, #2
 8004a64:	e7fc      	b.n	8004a60 <stm32_clock_control_get_status+0x26>
		if (enabled_clock(pclken->bus) == 0) {
 8004a66:	f7ff ff7d 	bl	8004964 <enabled_clock>
 8004a6a:	b108      	cbz	r0, 8004a70 <stm32_clock_control_get_status+0x36>
			return CLOCK_CONTROL_STATUS_OFF;
 8004a6c:	2001      	movs	r0, #1
 8004a6e:	e7f7      	b.n	8004a60 <stm32_clock_control_get_status+0x26>
			return CLOCK_CONTROL_STATUS_ON;
 8004a70:	2002      	movs	r0, #2
 8004a72:	e7f5      	b.n	8004a60 <stm32_clock_control_get_status+0x26>

08004a74 <sys_slist_remove>:
 */
static inline void sys_slist_remove(sys_slist_t *list,
				    sys_snode_t *prev_node,
				    sys_snode_t *node);

Z_GENLIST_REMOVE(slist, snode)
 8004a74:	460b      	mov	r3, r1
 8004a76:	b139      	cbz	r1, 8004a88 <sys_slist_remove+0x14>
	return node->next;
 8004a78:	6811      	ldr	r1, [r2, #0]
	parent->next = child;
 8004a7a:	6019      	str	r1, [r3, #0]
	return list->tail;
 8004a7c:	6841      	ldr	r1, [r0, #4]
Z_GENLIST_REMOVE(slist, snode)
 8004a7e:	428a      	cmp	r2, r1
 8004a80:	d009      	beq.n	8004a96 <sys_slist_remove+0x22>
	parent->next = child;
 8004a82:	2300      	movs	r3, #0
 8004a84:	6013      	str	r3, [r2, #0]
Z_GENLIST_REMOVE(slist, snode)
 8004a86:	4770      	bx	lr
	return node->next;
 8004a88:	6813      	ldr	r3, [r2, #0]
	list->head = node;
 8004a8a:	6003      	str	r3, [r0, #0]
	return list->tail;
 8004a8c:	6841      	ldr	r1, [r0, #4]
Z_GENLIST_REMOVE(slist, snode)
 8004a8e:	428a      	cmp	r2, r1
 8004a90:	d1f7      	bne.n	8004a82 <sys_slist_remove+0xe>
	list->tail = node;
 8004a92:	6043      	str	r3, [r0, #4]
}
 8004a94:	e7f5      	b.n	8004a82 <sys_slist_remove+0xe>
	list->tail = node;
 8004a96:	6043      	str	r3, [r0, #4]
}
 8004a98:	e7f3      	b.n	8004a82 <sys_slist_remove+0xe>

08004a9a <sys_slist_find_and_remove>:
static inline size_t sys_slist_len(const sys_slist_t *list);

Z_GENLIST_LEN(slist, snode)

/** @} */
Z_GENLIST_FIND_AND_REMOVE(slist, snode)
 8004a9a:	b508      	push	{r3, lr}
 8004a9c:	460a      	mov	r2, r1
	return list->head;
 8004a9e:	6803      	ldr	r3, [r0, #0]
Z_GENLIST_FIND_AND_REMOVE(slist, snode)
 8004aa0:	2100      	movs	r1, #0
 8004aa2:	e001      	b.n	8004aa8 <sys_slist_find_and_remove+0xe>
 8004aa4:	4619      	mov	r1, r3
 8004aa6:	681b      	ldr	r3, [r3, #0]
 8004aa8:	b12b      	cbz	r3, 8004ab6 <sys_slist_find_and_remove+0x1c>
 8004aaa:	4293      	cmp	r3, r2
 8004aac:	d1fa      	bne.n	8004aa4 <sys_slist_find_and_remove+0xa>
 8004aae:	f7ff ffe1 	bl	8004a74 <sys_slist_remove>
 8004ab2:	2001      	movs	r0, #1
 8004ab4:	e000      	b.n	8004ab8 <sys_slist_find_and_remove+0x1e>
 8004ab6:	2000      	movs	r0, #0
 8004ab8:	bd08      	pop	{r3, pc}

08004aba <gpio_manage_callback>:
 * @return 0 on success, negative errno otherwise.
 */
static inline int gpio_manage_callback(sys_slist_t *callbacks,
					struct gpio_callback *callback,
					bool set)
{
 8004aba:	b570      	push	{r4, r5, r6, lr}
 8004abc:	4604      	mov	r4, r0
 8004abe:	460d      	mov	r5, r1
 8004ac0:	4616      	mov	r6, r2
	return list->head;
 8004ac2:	6803      	ldr	r3, [r0, #0]
	__ASSERT(callback, "No callback!");
	__ASSERT(callback->handler, "No callback handler!");

	if (!sys_slist_is_empty(callbacks)) {
 8004ac4:	b133      	cbz	r3, 8004ad4 <gpio_manage_callback+0x1a>
		if (!sys_slist_find_and_remove(callbacks, &callback->node)) {
 8004ac6:	f7ff ffe8 	bl	8004a9a <sys_slist_find_and_remove>
 8004aca:	b970      	cbnz	r0, 8004aea <gpio_manage_callback+0x30>
			if (!set) {
 8004acc:	b91e      	cbnz	r6, 8004ad6 <gpio_manage_callback+0x1c>
				return -EINVAL;
 8004ace:	f06f 0015 	mvn.w	r0, #21
 8004ad2:	e006      	b.n	8004ae2 <gpio_manage_callback+0x28>
			}
		}
	} else if (!set) {
 8004ad4:	b132      	cbz	r2, 8004ae4 <gpio_manage_callback+0x2a>
 8004ad6:	6823      	ldr	r3, [r4, #0]
	parent->next = child;
 8004ad8:	602b      	str	r3, [r5, #0]
	list->head = node;
 8004ada:	6025      	str	r5, [r4, #0]
	return list->tail;
 8004adc:	6863      	ldr	r3, [r4, #4]
Z_GENLIST_PREPEND(slist, snode)
 8004ade:	b143      	cbz	r3, 8004af2 <gpio_manage_callback+0x38>

	if (set) {
		sys_slist_prepend(callbacks, &callback->node);
	}

	return 0;
 8004ae0:	2000      	movs	r0, #0
}
 8004ae2:	bd70      	pop	{r4, r5, r6, pc}
		return -EINVAL;
 8004ae4:	f06f 0015 	mvn.w	r0, #21
 8004ae8:	e7fb      	b.n	8004ae2 <gpio_manage_callback+0x28>
	if (set) {
 8004aea:	2e00      	cmp	r6, #0
 8004aec:	d1f3      	bne.n	8004ad6 <gpio_manage_callback+0x1c>
	return 0;
 8004aee:	2000      	movs	r0, #0
 8004af0:	e7f7      	b.n	8004ae2 <gpio_manage_callback+0x28>
	list->tail = node;
 8004af2:	6065      	str	r5, [r4, #4]
 8004af4:	2000      	movs	r0, #0
}
 8004af6:	e7f4      	b.n	8004ae2 <gpio_manage_callback+0x28>

08004af8 <gpio_fire_callbacks>:
 * @param pins The actual pin mask that triggered the interrupt
 */
static inline void gpio_fire_callbacks(sys_slist_t *list,
					const struct device *port,
					uint32_t pins)
{
 8004af8:	b570      	push	{r4, r5, r6, lr}
 8004afa:	460e      	mov	r6, r1
 8004afc:	4615      	mov	r5, r2
	return list->head;
 8004afe:	6801      	ldr	r1, [r0, #0]
	struct gpio_callback *cb, *tmp;

	sys_port_trace_gpio_fire_callbacks_enter(list, port, pins);

	SYS_SLIST_FOR_EACH_CONTAINER_SAFE(list, cb, tmp, node) {
 8004b00:	b121      	cbz	r1, 8004b0c <gpio_fire_callbacks+0x14>
	return node->next;
 8004b02:	680c      	ldr	r4, [r1, #0]
 8004b04:	b13c      	cbz	r4, 8004b16 <gpio_fire_callbacks+0x1e>
Z_GENLIST_PEEK_NEXT(slist, snode)
 8004b06:	b931      	cbnz	r1, 8004b16 <gpio_fire_callbacks+0x1e>
 8004b08:	460c      	mov	r4, r1
 8004b0a:	e004      	b.n	8004b16 <gpio_fire_callbacks+0x1e>
 8004b0c:	460c      	mov	r4, r1
 8004b0e:	e002      	b.n	8004b16 <gpio_fire_callbacks+0x1e>
 8004b10:	4623      	mov	r3, r4
 8004b12:	4621      	mov	r1, r4
 8004b14:	461c      	mov	r4, r3
 8004b16:	b171      	cbz	r1, 8004b36 <gpio_fire_callbacks+0x3e>
		if (cb->pin_mask & pins) {
 8004b18:	688a      	ldr	r2, [r1, #8]
 8004b1a:	402a      	ands	r2, r5
 8004b1c:	d002      	beq.n	8004b24 <gpio_fire_callbacks+0x2c>
			__ASSERT(cb->handler, "No callback handler!");

			cb->handler(port, cb, cb->pin_mask & pins);
 8004b1e:	684b      	ldr	r3, [r1, #4]
 8004b20:	4630      	mov	r0, r6
 8004b22:	4798      	blx	r3
	SYS_SLIST_FOR_EACH_CONTAINER_SAFE(list, cb, tmp, node) {
 8004b24:	2c00      	cmp	r4, #0
 8004b26:	d0f3      	beq.n	8004b10 <gpio_fire_callbacks+0x18>
	return node->next;
 8004b28:	6823      	ldr	r3, [r4, #0]
 8004b2a:	2b00      	cmp	r3, #0
 8004b2c:	d0f1      	beq.n	8004b12 <gpio_fire_callbacks+0x1a>
Z_GENLIST_PEEK_NEXT(slist, snode)
 8004b2e:	2c00      	cmp	r4, #0
 8004b30:	d1ef      	bne.n	8004b12 <gpio_fire_callbacks+0x1a>
 8004b32:	4623      	mov	r3, r4
 8004b34:	e7ed      	b.n	8004b12 <gpio_fire_callbacks+0x1a>
			sys_port_trace_gpio_fire_callback(port, cb);
		}
	}
}
 8004b36:	bd70      	pop	{r4, r5, r6, pc}

08004b38 <gpio_stm32_isr>:
{
 8004b38:	b508      	push	{r3, lr}
 8004b3a:	4602      	mov	r2, r0
	struct gpio_stm32_data *data = dev->data;
 8004b3c:	6908      	ldr	r0, [r1, #16]
	gpio_fire_callbacks(&data->cb, dev, pin);
 8004b3e:	3008      	adds	r0, #8
 8004b40:	f7ff ffda 	bl	8004af8 <gpio_fire_callbacks>
}
 8004b44:	bd08      	pop	{r3, pc}

08004b46 <gpio_stm32_flags_to_conf>:
	if ((flags & GPIO_OUTPUT) != 0) {
 8004b46:	f410 3f00 	tst.w	r0, #131072	@ 0x20000
 8004b4a:	d014      	beq.n	8004b76 <gpio_stm32_flags_to_conf+0x30>
		if ((flags & GPIO_SINGLE_ENDED) != 0) {
 8004b4c:	f010 0f02 	tst.w	r0, #2
 8004b50:	d004      	beq.n	8004b5c <gpio_stm32_flags_to_conf+0x16>
			if (flags & GPIO_LINE_OPEN_DRAIN) {
 8004b52:	f010 0f04 	tst.w	r0, #4
 8004b56:	d034      	beq.n	8004bc2 <gpio_stm32_flags_to_conf+0x7c>
				cfg |= STM32_PINCFG_OPEN_DRAIN;
 8004b58:	2350      	movs	r3, #80	@ 0x50
 8004b5a:	e000      	b.n	8004b5e <gpio_stm32_flags_to_conf+0x18>
			cfg |= STM32_PINCFG_PUSH_PULL;
 8004b5c:	2310      	movs	r3, #16
		if ((flags & GPIO_PULL_UP) != 0) {
 8004b5e:	f010 0f10 	tst.w	r0, #16
 8004b62:	d002      	beq.n	8004b6a <gpio_stm32_flags_to_conf+0x24>
			cfg |= STM32_PINCFG_PULL_UP;
 8004b64:	f443 7300 	orr.w	r3, r3, #512	@ 0x200
 8004b68:	e012      	b.n	8004b90 <gpio_stm32_flags_to_conf+0x4a>
		} else if ((flags & GPIO_PULL_DOWN) != 0) {
 8004b6a:	f010 0f20 	tst.w	r0, #32
 8004b6e:	d00f      	beq.n	8004b90 <gpio_stm32_flags_to_conf+0x4a>
			cfg |= STM32_PINCFG_PULL_DOWN;
 8004b70:	f443 6380 	orr.w	r3, r3, #1024	@ 0x400
 8004b74:	e00c      	b.n	8004b90 <gpio_stm32_flags_to_conf+0x4a>
	} else if  ((flags & GPIO_INPUT) != 0) {
 8004b76:	f410 3f80 	tst.w	r0, #65536	@ 0x10000
 8004b7a:	d008      	beq.n	8004b8e <gpio_stm32_flags_to_conf+0x48>
		if ((flags & GPIO_PULL_UP) != 0) {
 8004b7c:	f010 0f10 	tst.w	r0, #16
 8004b80:	d114      	bne.n	8004bac <gpio_stm32_flags_to_conf+0x66>
		} else if ((flags & GPIO_PULL_DOWN) != 0) {
 8004b82:	f010 0320 	ands.w	r3, r0, #32
 8004b86:	d003      	beq.n	8004b90 <gpio_stm32_flags_to_conf+0x4a>
			cfg |= STM32_PINCFG_PULL_DOWN;
 8004b88:	f44f 6380 	mov.w	r3, #1024	@ 0x400
 8004b8c:	e000      	b.n	8004b90 <gpio_stm32_flags_to_conf+0x4a>
		cfg = STM32_PINCFG_MODE_ANALOG;
 8004b8e:	2330      	movs	r3, #48	@ 0x30
	switch (flags & (STM32_GPIO_SPEED_MASK << STM32_GPIO_SPEED_SHIFT)) {
 8004b90:	f400 60c0 	and.w	r0, r0, #1536	@ 0x600
 8004b94:	f5b0 6f80 	cmp.w	r0, #1024	@ 0x400
 8004b98:	d010      	beq.n	8004bbc <gpio_stm32_flags_to_conf+0x76>
 8004b9a:	f5b0 6fc0 	cmp.w	r0, #1536	@ 0x600
 8004b9e:	d008      	beq.n	8004bb2 <gpio_stm32_flags_to_conf+0x6c>
 8004ba0:	f5b0 7f00 	cmp.w	r0, #512	@ 0x200
 8004ba4:	d107      	bne.n	8004bb6 <gpio_stm32_flags_to_conf+0x70>
		cfg |= STM32_OSPEEDR_MEDIUM_SPEED;
 8004ba6:	f043 0380 	orr.w	r3, r3, #128	@ 0x80
		break;
 8004baa:	e004      	b.n	8004bb6 <gpio_stm32_flags_to_conf+0x70>
			cfg |= STM32_PINCFG_PULL_UP;
 8004bac:	f44f 7300 	mov.w	r3, #512	@ 0x200
 8004bb0:	e7ee      	b.n	8004b90 <gpio_stm32_flags_to_conf+0x4a>
		cfg |= STM32_OSPEEDR_VERY_HIGH_SPEED;
 8004bb2:	f443 73c0 	orr.w	r3, r3, #384	@ 0x180
	*pincfg = cfg;
 8004bb6:	600b      	str	r3, [r1, #0]
	return 0;
 8004bb8:	2000      	movs	r0, #0
 8004bba:	4770      	bx	lr
		cfg |= STM32_OSPEEDR_HIGH_SPEED;
 8004bbc:	f443 7380 	orr.w	r3, r3, #256	@ 0x100
		break;
 8004bc0:	e7f9      	b.n	8004bb6 <gpio_stm32_flags_to_conf+0x70>
				return -ENOTSUP;
 8004bc2:	f06f 0085 	mvn.w	r0, #133	@ 0x85
}
 8004bc6:	4770      	bx	lr

08004bc8 <gpio_stm32_port_get_raw>:
	const struct gpio_stm32_config *cfg = dev->config;
 8004bc8:	6843      	ldr	r3, [r0, #4]
	GPIO_TypeDef *gpio = (GPIO_TypeDef *)cfg->base;
 8004bca:	685b      	ldr	r3, [r3, #4]
  return (uint32_t)(READ_REG(GPIOx->IDR));
 8004bcc:	691b      	ldr	r3, [r3, #16]
	*value = LL_GPIO_ReadInputPort(gpio);
 8004bce:	600b      	str	r3, [r1, #0]
}
 8004bd0:	2000      	movs	r0, #0
 8004bd2:	4770      	bx	lr

08004bd4 <gpio_stm32_port_set_masked_raw>:
	const struct gpio_stm32_config *cfg = dev->config;
 8004bd4:	6843      	ldr	r3, [r0, #4]
	GPIO_TypeDef *gpio = (GPIO_TypeDef *)cfg->base;
 8004bd6:	685b      	ldr	r3, [r3, #4]
  return (uint32_t)(READ_REG(GPIOx->ODR));
 8004bd8:	6958      	ldr	r0, [r3, #20]
	LL_GPIO_WriteOutputPort(gpio, (port_value & ~mask) | (mask & value));
 8004bda:	4042      	eors	r2, r0
 8004bdc:	400a      	ands	r2, r1
 8004bde:	4042      	eors	r2, r0
  WRITE_REG(GPIOx->ODR, PortValue);
 8004be0:	615a      	str	r2, [r3, #20]
}
 8004be2:	2000      	movs	r0, #0
 8004be4:	4770      	bx	lr

08004be6 <gpio_stm32_port_set_bits_raw>:
	const struct gpio_stm32_config *cfg = dev->config;
 8004be6:	6843      	ldr	r3, [r0, #4]
	GPIO_TypeDef *gpio = (GPIO_TypeDef *)cfg->base;
 8004be8:	685b      	ldr	r3, [r3, #4]
	*(volatile uint32_t *)addr = data;
 8004bea:	6199      	str	r1, [r3, #24]
}
 8004bec:	2000      	movs	r0, #0
 8004bee:	4770      	bx	lr

08004bf0 <gpio_stm32_port_clear_bits_raw>:
	const struct gpio_stm32_config *cfg = dev->config;
 8004bf0:	6843      	ldr	r3, [r0, #4]
	GPIO_TypeDef *gpio = (GPIO_TypeDef *)cfg->base;
 8004bf2:	685b      	ldr	r3, [r3, #4]
  WRITE_REG(GPIOx->BRR, PinMask);
 8004bf4:	6299      	str	r1, [r3, #40]	@ 0x28
}
 8004bf6:	2000      	movs	r0, #0
 8004bf8:	4770      	bx	lr

08004bfa <gpio_stm32_port_toggle_bits>:
	const struct gpio_stm32_config *cfg = dev->config;
 8004bfa:	6843      	ldr	r3, [r0, #4]
	GPIO_TypeDef *gpio = (GPIO_TypeDef *)cfg->base;
 8004bfc:	685b      	ldr	r3, [r3, #4]
	return *(volatile uint32_t *)addr;
 8004bfe:	695a      	ldr	r2, [r3, #20]
	stm32_reg_write(&gpio->ODR, stm32_reg_read(&gpio->ODR) ^ pins);
 8004c00:	4051      	eors	r1, r2
	*(volatile uint32_t *)addr = data;
 8004c02:	6159      	str	r1, [r3, #20]
}
 8004c04:	2000      	movs	r0, #0
 8004c06:	4770      	bx	lr

08004c08 <gpio_stm32_manage_callback>:

static int gpio_stm32_manage_callback(const struct device *dev,
				      struct gpio_callback *callback,
				      bool set)
{
 8004c08:	b508      	push	{r3, lr}
	struct gpio_stm32_data *data = dev->data;
 8004c0a:	6900      	ldr	r0, [r0, #16]

	return gpio_manage_callback(&data->cb, callback, set);
 8004c0c:	3008      	adds	r0, #8
 8004c0e:	f7ff ff54 	bl	8004aba <gpio_manage_callback>
}
 8004c12:	bd08      	pop	{r3, pc}

08004c14 <gpio_stm32_disable_pin_irqs>:
{
 8004c14:	b538      	push	{r3, r4, r5, lr}
 8004c16:	4604      	mov	r4, r0
 8004c18:	460d      	mov	r5, r1
	if (port != stm32_exti_get_line_src_port(pin)) {
 8004c1a:	4608      	mov	r0, r1
 8004c1c:	f7fc fd66 	bl	80016ec <stm32_exti_get_line_src_port>
 8004c20:	42a0      	cmp	r0, r4
 8004c22:	d000      	beq.n	8004c26 <gpio_stm32_disable_pin_irqs+0x12>
}
 8004c24:	bd38      	pop	{r3, r4, r5, pc}
	stm32_gpio_irq_line_t irq_line = stm32_gpio_intc_get_pin_irq_line(port, pin);
 8004c26:	4629      	mov	r1, r5
 8004c28:	4620      	mov	r0, r4
 8004c2a:	f7ff fe2a 	bl	8004882 <stm32_gpio_intc_get_pin_irq_line>
 8004c2e:	4604      	mov	r4, r0
	stm32_gpio_intc_disable_line(irq_line);
 8004c30:	f7fc fcee 	bl	8001610 <stm32_gpio_intc_disable_line>
	stm32_gpio_intc_remove_irq_callback(irq_line);
 8004c34:	4620      	mov	r0, r4
 8004c36:	f7fc fd47 	bl	80016c8 <stm32_gpio_intc_remove_irq_callback>
	stm32_gpio_intc_select_line_trigger(irq_line, STM32_GPIO_IRQ_TRIG_NONE);
 8004c3a:	2100      	movs	r1, #0
 8004c3c:	4620      	mov	r0, r4
 8004c3e:	f7fc fcf1 	bl	8001624 <stm32_gpio_intc_select_line_trigger>
 8004c42:	e7ef      	b.n	8004c24 <gpio_stm32_disable_pin_irqs+0x10>

08004c44 <gpio_stm32_config>:
{
 8004c44:	e92d 43f0 	stmdb	sp!, {r4, r5, r6, r7, r8, r9, lr}
 8004c48:	b083      	sub	sp, #12
 8004c4a:	4605      	mov	r5, r0
 8004c4c:	460e      	mov	r6, r1
 8004c4e:	4614      	mov	r4, r2
	struct gpio_stm32_data *data = dev->data;
 8004c50:	f8d0 8010 	ldr.w	r8, [r0, #16]
	err = gpio_stm32_flags_to_conf(flags, &pincfg);
 8004c54:	a901      	add	r1, sp, #4
 8004c56:	4610      	mov	r0, r2
 8004c58:	f7ff ff75 	bl	8004b46 <gpio_stm32_flags_to_conf>
	if (err != 0) {
 8004c5c:	4607      	mov	r7, r0
 8004c5e:	bb68      	cbnz	r0, 8004cbc <gpio_stm32_config+0x78>
	if ((((flags & GPIO_OUTPUT) != 0) || ((flags & GPIO_INPUT) != 0)) &&
 8004c60:	f414 3940 	ands.w	r9, r4, #196608	@ 0x30000
 8004c64:	d014      	beq.n	8004c90 <gpio_stm32_config+0x4c>
	    !(data->pin_has_clock_enabled & BIT(pin))) {
 8004c66:	f8d8 3004 	ldr.w	r3, [r8, #4]
 8004c6a:	fa23 f206 	lsr.w	r2, r3, r6
	if ((((flags & GPIO_OUTPUT) != 0) || ((flags & GPIO_INPUT) != 0)) &&
 8004c6e:	f012 0f01 	tst.w	r2, #1
 8004c72:	d104      	bne.n	8004c7e <gpio_stm32_config+0x3a>
		data->pin_has_clock_enabled |= BIT(pin);
 8004c74:	2201      	movs	r2, #1
 8004c76:	40b2      	lsls	r2, r6
 8004c78:	4313      	orrs	r3, r2
 8004c7a:	f8c8 3004 	str.w	r3, [r8, #4]
	if ((flags & GPIO_OUTPUT) != 0) {
 8004c7e:	f414 3f00 	tst.w	r4, #131072	@ 0x20000
 8004c82:	d005      	beq.n	8004c90 <gpio_stm32_config+0x4c>
		if ((flags & GPIO_OUTPUT_INIT_HIGH) != 0) {
 8004c84:	f414 2f00 	tst.w	r4, #524288	@ 0x80000
 8004c88:	d11c      	bne.n	8004cc4 <gpio_stm32_config+0x80>
		} else if ((flags & GPIO_OUTPUT_INIT_LOW) != 0) {
 8004c8a:	f414 2f80 	tst.w	r4, #262144	@ 0x40000
 8004c8e:	d11f      	bne.n	8004cd0 <gpio_stm32_config+0x8c>
	stm32_gpioport_configure_pin(dev, pin, pincfg, 0);
 8004c90:	2300      	movs	r3, #0
 8004c92:	9a01      	ldr	r2, [sp, #4]
 8004c94:	4631      	mov	r1, r6
 8004c96:	4628      	mov	r0, r5
 8004c98:	f7ff fb5e 	bl	8004358 <stm32_gpioport_configure_pin>
	if (((flags & GPIO_OUTPUT) == 0) && ((flags & GPIO_INPUT) == 0) &&
 8004c9c:	f1b9 0f00 	cmp.w	r9, #0
 8004ca0:	d10c      	bne.n	8004cbc <gpio_stm32_config+0x78>
	    (data->pin_has_clock_enabled & BIT(pin))) {
 8004ca2:	f8d8 3004 	ldr.w	r3, [r8, #4]
	if (((flags & GPIO_OUTPUT) == 0) && ((flags & GPIO_INPUT) == 0) &&
 8004ca6:	fa23 f206 	lsr.w	r2, r3, r6
 8004caa:	f012 0f01 	tst.w	r2, #1
 8004cae:	d005      	beq.n	8004cbc <gpio_stm32_config+0x78>
		data->pin_has_clock_enabled &= ~BIT(pin);
 8004cb0:	2201      	movs	r2, #1
 8004cb2:	40b2      	lsls	r2, r6
 8004cb4:	ea23 0302 	bic.w	r3, r3, r2
 8004cb8:	f8c8 3004 	str.w	r3, [r8, #4]
}
 8004cbc:	4638      	mov	r0, r7
 8004cbe:	b003      	add	sp, #12
 8004cc0:	e8bd 83f0 	ldmia.w	sp!, {r4, r5, r6, r7, r8, r9, pc}
			gpio_stm32_port_set_bits_raw(dev, BIT(pin));
 8004cc4:	2101      	movs	r1, #1
 8004cc6:	40b1      	lsls	r1, r6
 8004cc8:	4628      	mov	r0, r5
 8004cca:	f7ff ff8c 	bl	8004be6 <gpio_stm32_port_set_bits_raw>
 8004cce:	e7df      	b.n	8004c90 <gpio_stm32_config+0x4c>
			gpio_stm32_port_clear_bits_raw(dev, BIT(pin));
 8004cd0:	2101      	movs	r1, #1
 8004cd2:	40b1      	lsls	r1, r6
 8004cd4:	4628      	mov	r0, r5
 8004cd6:	f7ff ff8b 	bl	8004bf0 <gpio_stm32_port_clear_bits_raw>
 8004cda:	e7d9      	b.n	8004c90 <gpio_stm32_config+0x4c>

08004cdc <pinctrl_lookup_state>:

#include <zephyr/drivers/pinctrl.h>

int pinctrl_lookup_state(const struct pinctrl_dev_config *config, uint8_t id,
			 const struct pinctrl_state **state)
{
 8004cdc:	b500      	push	{lr}
	*state = &config->states[0];
 8004cde:	6803      	ldr	r3, [r0, #0]
 8004ce0:	6013      	str	r3, [r2, #0]
	while (*state < &config->states[config->state_cnt]) {
 8004ce2:	e001      	b.n	8004ce8 <pinctrl_lookup_state+0xc>
		if (id == (*state)->id) {
			return 0;
		}

		(*state)++;
 8004ce4:	3308      	adds	r3, #8
 8004ce6:	6013      	str	r3, [r2, #0]
	while (*state < &config->states[config->state_cnt]) {
 8004ce8:	6813      	ldr	r3, [r2, #0]
 8004cea:	f890 c004 	ldrb.w	ip, [r0, #4]
 8004cee:	f8d0 e000 	ldr.w	lr, [r0]
 8004cf2:	eb0e 0ccc 	add.w	ip, lr, ip, lsl #3
 8004cf6:	4563      	cmp	r3, ip
 8004cf8:	d205      	bcs.n	8004d06 <pinctrl_lookup_state+0x2a>
		if (id == (*state)->id) {
 8004cfa:	f893 c005 	ldrb.w	ip, [r3, #5]
 8004cfe:	458c      	cmp	ip, r1
 8004d00:	d1f0      	bne.n	8004ce4 <pinctrl_lookup_state+0x8>
			return 0;
 8004d02:	2000      	movs	r0, #0
 8004d04:	e001      	b.n	8004d0a <pinctrl_lookup_state+0x2e>
	}

	return -ENOENT;
 8004d06:	f06f 0001 	mvn.w	r0, #1
}
 8004d0a:	f85d fb04 	ldr.w	pc, [sp], #4

08004d0e <pinctrl_configure_pins>:
#define IS_GPIO_OUT STM32_GPIO
#endif

int pinctrl_configure_pins(const pinctrl_soc_pin_t *pins, uint8_t pin_cnt,
			   uintptr_t reg)
{
 8004d0e:	e92d 4ff8 	stmdb	sp!, {r3, r4, r5, r6, r7, r8, r9, sl, fp, lr}
 8004d12:	4680      	mov	r8, r0
 8004d14:	468a      	mov	sl, r1
	if (ret < 0) {
		return ret;
	}
#endif /* DT_HAS_COMPAT_STATUS_OKAY(st_stm32f1_pinctrl) */

	for (uint8_t i = 0U; i < pin_cnt; i++) {
 8004d16:	2400      	movs	r4, #0
	uint32_t pin_cfg = 0;
 8004d18:	4626      	mov	r6, r4
	for (uint8_t i = 0U; i < pin_cnt; i++) {
 8004d1a:	e01a      	b.n	8004d52 <pinctrl_configure_pins+0x44>
			__ASSERT_NO_MSG(STM32_DT_PINMUX_FUNC(mux));
		}
#else
		if (STM32_DT_PINMUX_FUNC(mux) < STM32_ANALOG) {
			pin_cfg = pins[i].pincfg | STM32_MODER_ALT_MODE;
		} else if (STM32_DT_PINMUX_FUNC(mux) == STM32_ANALOG) {
 8004d1c:	f005 021f 	and.w	r2, r5, #31
 8004d20:	2a10      	cmp	r2, #16
 8004d22:	d025      	beq.n	8004d70 <pinctrl_configure_pins+0x62>
			pin_cfg = STM32_MODER_ANALOG_MODE;
		} else if (STM32_DT_PINMUX_FUNC(mux) == STM32_GPIO) {
 8004d24:	2a11      	cmp	r2, #17
 8004d26:	d021      	beq.n	8004d6c <pinctrl_configure_pins+0x5e>
		} else {
			/* Not supported */
			__ASSERT_NO_MSG(STM32_DT_PINMUX_FUNC(mux));
		}
#endif /* DT_HAS_COMPAT_STATUS_OKAY(st_stm32f1_pinctrl) */
		port = stm32_gpioport_get(STM32_DT_PINMUX_PORT(mux));
 8004d28:	f3c5 2044 	ubfx	r0, r5, #9, #5
 8004d2c:	f7fb fd00 	bl	8000730 <stm32_gpioport_get>
		if (port == NULL) {
 8004d30:	4681      	mov	r9, r0
 8004d32:	b390      	cbz	r0, 8004d9a <pinctrl_configure_pins+0x8c>
		ret = pm_device_runtime_get(port);
		if (ret < 0) {
			return ret;
		}

		line = STM32_DT_PINMUX_LINE(mux);
 8004d34:	f3c5 1b43 	ubfx	fp, r5, #5, #4
		func = STM32_DT_PINMUX_FUNC(mux);
 8004d38:	f005 071f 	and.w	r7, r5, #31

		cfg_ret = stm32_gpioport_configure_pin(port, line, pin_cfg, func);
 8004d3c:	463b      	mov	r3, r7
 8004d3e:	4632      	mov	r2, r6
 8004d40:	4659      	mov	r1, fp
 8004d42:	f7ff fb09 	bl	8004358 <stm32_gpioport_configure_pin>

		if (cfg_ret >= 0 && func == IS_GPIO_OUT) {
 8004d46:	2800      	cmp	r0, #0
 8004d48:	db25      	blt.n	8004d96 <pinctrl_configure_pins+0x88>
 8004d4a:	2f11      	cmp	r7, #17
 8004d4c:	d012      	beq.n	8004d74 <pinctrl_configure_pins+0x66>
	for (uint8_t i = 0U; i < pin_cnt; i++) {
 8004d4e:	3401      	adds	r4, #1
 8004d50:	b2e4      	uxtb	r4, r4
 8004d52:	4554      	cmp	r4, sl
 8004d54:	d21e      	bcs.n	8004d94 <pinctrl_configure_pins+0x86>
		mux = pins[i].pinmux;
 8004d56:	eb08 03c4 	add.w	r3, r8, r4, lsl #3
 8004d5a:	f858 5034 	ldr.w	r5, [r8, r4, lsl #3]
		if (STM32_DT_PINMUX_FUNC(mux) < STM32_ANALOG) {
 8004d5e:	f015 0f10 	tst.w	r5, #16
 8004d62:	d1db      	bne.n	8004d1c <pinctrl_configure_pins+0xe>
			pin_cfg = pins[i].pincfg | STM32_MODER_ALT_MODE;
 8004d64:	685e      	ldr	r6, [r3, #4]
 8004d66:	f046 0620 	orr.w	r6, r6, #32
 8004d6a:	e7dd      	b.n	8004d28 <pinctrl_configure_pins+0x1a>
			pin_cfg = pins[i].pincfg;
 8004d6c:	685e      	ldr	r6, [r3, #4]
 8004d6e:	e7db      	b.n	8004d28 <pinctrl_configure_pins+0x1a>
			pin_cfg = STM32_MODER_ANALOG_MODE;
 8004d70:	2630      	movs	r6, #48	@ 0x30
 8004d72:	e7d9      	b.n	8004d28 <pinctrl_configure_pins+0x1a>
			/* Apply output level configuration */
			const struct gpio_stm32_config *cfg = port->config;
 8004d74:	f8d9 3004 	ldr.w	r3, [r9, #4]
			GPIO_TypeDef *gpio = cfg->base;
 8004d78:	685b      	ldr	r3, [r3, #4]
			uint32_t gpio_out = pin_cfg & (STM32_ODR_MASK << STM32_ODR_SHIFT);

			if (gpio_out == STM32_ODR_1) {
 8004d7a:	f416 6f00 	tst.w	r6, #2048	@ 0x800
 8004d7e:	d004      	beq.n	8004d8a <pinctrl_configure_pins+0x7c>
				stm32_reg_write(&gpio->BSRR, BIT(line));
 8004d80:	2201      	movs	r2, #1
 8004d82:	fa02 f20b 	lsl.w	r2, r2, fp
 8004d86:	619a      	str	r2, [r3, #24]
}
 8004d88:	e7e1      	b.n	8004d4e <pinctrl_configure_pins+0x40>
			} else {
				/* c.f. gpio_stm32_port_clear_bits_raw() for rationale */
#ifdef CONFIG_SOC_SERIES_STM32F1X
				stm32_reg_write(&gpio->BRR, BIT(line));
#else /* CONFIG_SOC_SERIES_STM32F1X */
				LL_GPIO_ResetOutputPin(gpio, BIT(line));
 8004d8a:	2201      	movs	r2, #1
 8004d8c:	fa02 f20b 	lsl.w	r2, r2, fp
 8004d90:	629a      	str	r2, [r3, #40]	@ 0x28
}
 8004d92:	e7dc      	b.n	8004d4e <pinctrl_configure_pins+0x40>
		if (cfg_ret < 0) {
			return cfg_ret;
		}
	}

	return 0;
 8004d94:	2000      	movs	r0, #0
}
 8004d96:	e8bd 8ff8 	ldmia.w	sp!, {r3, r4, r5, r6, r7, r8, r9, sl, fp, pc}
			return -ENODEV;
 8004d9a:	f06f 0012 	mvn.w	r0, #18
 8004d9e:	e7fa      	b.n	8004d96 <pinctrl_configure_pins+0x88>

08004da0 <reset_stm32_status>:
};

static int reset_stm32_status(const struct device *dev, uint32_t id,
			      uint8_t *status)
{
	const struct reset_stm32_config *config = dev->config;
 8004da0:	6843      	ldr	r3, [r0, #4]

	*status = !!sys_test_bit(config->base + STM32_RESET_SET_OFFSET(id),
 8004da2:	6818      	ldr	r0, [r3, #0]
 8004da4:	f3c1 134b 	ubfx	r3, r1, #5, #12
 8004da8:	f001 011f 	and.w	r1, r1, #31
	uint32_t temp = *(volatile uint32_t *)addr;
 8004dac:	58c3      	ldr	r3, [r0, r3]
	return temp & (1U << bit);
 8004dae:	2001      	movs	r0, #1
 8004db0:	fa00 f101 	lsl.w	r1, r0, r1
 8004db4:	400b      	ands	r3, r1
 8004db6:	3b00      	subs	r3, #0
 8004db8:	bf18      	it	ne
 8004dba:	2301      	movne	r3, #1
 8004dbc:	7013      	strb	r3, [r2, #0]
				 STM32_RESET_REG_BIT(id));

	return 0;
}
 8004dbe:	2000      	movs	r0, #0
 8004dc0:	4770      	bx	lr

08004dc2 <reset_stm32_line_assert>:

static int reset_stm32_line_assert(const struct device *dev, uint32_t id)
{
 8004dc2:	b410      	push	{r4}
	const struct reset_stm32_config *config = dev->config;
 8004dc4:	6843      	ldr	r3, [r0, #4]

	sys_set_bit(config->base + STM32_RESET_SET_OFFSET(id),
 8004dc6:	681c      	ldr	r4, [r3, #0]
 8004dc8:	f3c1 104b 	ubfx	r0, r1, #5, #12
 8004dcc:	f001 011f 	and.w	r1, r1, #31
	uint32_t temp = *(volatile uint32_t *)addr;
 8004dd0:	5823      	ldr	r3, [r4, r0]
	*(volatile uint32_t *)addr = temp | (1U << bit);
 8004dd2:	2201      	movs	r2, #1
 8004dd4:	408a      	lsls	r2, r1
 8004dd6:	4313      	orrs	r3, r2
 8004dd8:	5023      	str	r3, [r4, r0]
		    STM32_RESET_REG_BIT(id));

	return 0;
}
 8004dda:	2000      	movs	r0, #0
 8004ddc:	bc10      	pop	{r4}
 8004dde:	4770      	bx	lr

08004de0 <reset_stm32_line_deassert>:

static int reset_stm32_line_deassert(const struct device *dev, uint32_t id)
{
 8004de0:	b410      	push	{r4}
	const struct reset_stm32_config *config = dev->config;
 8004de2:	6843      	ldr	r3, [r0, #4]

#if DT_INST_PROP(0, set_bit_to_deassert)
	sys_set_bit(config->base + STM32_RESET_CLR_OFFSET(id),
		    STM32_RESET_REG_BIT(id));
#else
	sys_clear_bit(config->base + STM32_RESET_SET_OFFSET(id),
 8004de4:	681c      	ldr	r4, [r3, #0]
 8004de6:	f3c1 104b 	ubfx	r0, r1, #5, #12
 8004dea:	f001 011f 	and.w	r1, r1, #31
	uint32_t temp = *(volatile uint32_t *)addr;
 8004dee:	5823      	ldr	r3, [r4, r0]
	*(volatile uint32_t *)addr = temp & ~(1U << bit);
 8004df0:	2201      	movs	r2, #1
 8004df2:	408a      	lsls	r2, r1
 8004df4:	ea23 0302 	bic.w	r3, r3, r2
 8004df8:	5023      	str	r3, [r4, r0]
		      STM32_RESET_REG_BIT(id));
#endif

	return 0;
}
 8004dfa:	2000      	movs	r0, #0
 8004dfc:	bc10      	pop	{r4}
 8004dfe:	4770      	bx	lr

08004e00 <reset_stm32_line_toggle>:

static int reset_stm32_line_toggle(const struct device *dev, uint32_t id)
{
 8004e00:	b538      	push	{r3, r4, r5, lr}
 8004e02:	4604      	mov	r4, r0
 8004e04:	460d      	mov	r5, r1
	reset_stm32_line_assert(dev, id);
 8004e06:	f7ff ffdc 	bl	8004dc2 <reset_stm32_line_assert>
	reset_stm32_line_deassert(dev, id);
 8004e0a:	4629      	mov	r1, r5
 8004e0c:	4620      	mov	r0, r4
 8004e0e:	f7ff ffe7 	bl	8004de0 <reset_stm32_line_deassert>

	return 0;
}
 8004e12:	2000      	movs	r0, #0
 8004e14:	bd38      	pop	{r3, r4, r5, pc}

08004e16 <reset_line_toggle>:

extern int z_impl_reset_line_toggle(const struct device * dev, uint32_t id);

__pinned_func
static inline int reset_line_toggle(const struct device * dev, uint32_t id)
{
 8004e16:	b508      	push	{r3, lr}
	const struct reset_driver_api *api = (const struct reset_driver_api *)dev->api;
 8004e18:	6883      	ldr	r3, [r0, #8]
	if (api->line_toggle == NULL) {
 8004e1a:	68db      	ldr	r3, [r3, #12]
 8004e1c:	b10b      	cbz	r3, 8004e22 <reset_line_toggle+0xc>
	return api->line_toggle(dev, id);
 8004e1e:	4798      	blx	r3
		return (int) arch_syscall_invoke2(parm0.x, parm1.x, K_SYSCALL_RESET_LINE_TOGGLE);
	}
#endif
	compiler_barrier();
	return z_impl_reset_line_toggle(dev, id);
}
 8004e20:	bd08      	pop	{r3, pc}
		return -ENOSYS;
 8004e22:	f06f 0057 	mvn.w	r0, #87	@ 0x57
	return z_impl_reset_line_toggle(dev, id);
 8004e26:	e7fb      	b.n	8004e20 <reset_line_toggle+0xa>

08004e28 <uart_stm32_set_driver_enable>:
	const struct uart_stm32_config *config = dev->config;
 8004e28:	6843      	ldr	r3, [r0, #4]
	if (driver_enable) {
 8004e2a:	b129      	cbz	r1, 8004e38 <uart_stm32_set_driver_enable+0x10>
		LL_USART_EnableDEMode(config->usart);
 8004e2c:	681a      	ldr	r2, [r3, #0]
  SET_BIT(USARTx->CR3, USART_CR3_DEM);
 8004e2e:	6893      	ldr	r3, [r2, #8]
 8004e30:	f443 4380 	orr.w	r3, r3, #16384	@ 0x4000
 8004e34:	6093      	str	r3, [r2, #8]
}
 8004e36:	4770      	bx	lr
		LL_USART_DisableDEMode(config->usart);
 8004e38:	681a      	ldr	r2, [r3, #0]
  CLEAR_BIT(USARTx->CR3, USART_CR3_DEM);
 8004e3a:	6893      	ldr	r3, [r2, #8]
 8004e3c:	f423 4380 	bic.w	r3, r3, #16384	@ 0x4000
 8004e40:	6093      	str	r3, [r2, #8]
}
 8004e42:	4770      	bx	lr

08004e44 <uart_stm32_ll2cfg_databits>:
	switch (db) {
 8004e44:	f5b0 5f80 	cmp.w	r0, #4096	@ 0x1000
 8004e48:	d007      	beq.n	8004e5a <uart_stm32_ll2cfg_databits+0x16>
 8004e4a:	f1b0 5f80 	cmp.w	r0, #268435456	@ 0x10000000
 8004e4e:	d107      	bne.n	8004e60 <uart_stm32_ll2cfg_databits+0x1c>
		if (p == LL_USART_PARITY_NONE) {
 8004e50:	b109      	cbz	r1, 8004e56 <uart_stm32_ll2cfg_databits+0x12>
			return UART_CFG_DATA_BITS_6;
 8004e52:	2001      	movs	r0, #1
 8004e54:	4770      	bx	lr
			return UART_CFG_DATA_BITS_7;
 8004e56:	2002      	movs	r0, #2
 8004e58:	4770      	bx	lr
		if (p == LL_USART_PARITY_NONE) {
 8004e5a:	b921      	cbnz	r1, 8004e66 <uart_stm32_ll2cfg_databits+0x22>
			return UART_CFG_DATA_BITS_9;
 8004e5c:	2004      	movs	r0, #4
 8004e5e:	4770      	bx	lr
		if (p == LL_USART_PARITY_NONE) {
 8004e60:	b919      	cbnz	r1, 8004e6a <uart_stm32_ll2cfg_databits+0x26>
			return UART_CFG_DATA_BITS_8;
 8004e62:	2003      	movs	r0, #3
 8004e64:	4770      	bx	lr
			return UART_CFG_DATA_BITS_8;
 8004e66:	2003      	movs	r0, #3
 8004e68:	4770      	bx	lr
			return UART_CFG_DATA_BITS_7;
 8004e6a:	2002      	movs	r0, #2
}
 8004e6c:	4770      	bx	lr

08004e6e <uart_stm32_config_get>:
{
 8004e6e:	b538      	push	{r3, r4, r5, lr}
 8004e70:	4604      	mov	r4, r0
 8004e72:	460d      	mov	r5, r1
	struct uart_stm32_data *data = dev->data;
 8004e74:	6903      	ldr	r3, [r0, #16]
	struct uart_config *uart_cfg = data->uart_cfg;
 8004e76:	681b      	ldr	r3, [r3, #0]
	cfg->baudrate = uart_cfg->baudrate;
 8004e78:	681b      	ldr	r3, [r3, #0]
 8004e7a:	600b      	str	r3, [r1, #0]
	const struct uart_stm32_config *config = dev->config;
 8004e7c:	6843      	ldr	r3, [r0, #4]
	return LL_USART_GetParity(config->usart);
 8004e7e:	681b      	ldr	r3, [r3, #0]
  return (uint32_t)(READ_BIT(USARTx->CR1, USART_CR1_PS | USART_CR1_PCE));
 8004e80:	681b      	ldr	r3, [r3, #0]
 8004e82:	f403 63c0 	and.w	r3, r3, #1536	@ 0x600
	switch (parity) {
 8004e86:	f5b3 6f80 	cmp.w	r3, #1024	@ 0x400
 8004e8a:	d004      	beq.n	8004e96 <uart_stm32_config_get+0x28>
 8004e8c:	f5b3 6fc0 	cmp.w	r3, #1536	@ 0x600
 8004e90:	d111      	bne.n	8004eb6 <uart_stm32_config_get+0x48>
 8004e92:	2301      	movs	r3, #1
 8004e94:	e000      	b.n	8004e98 <uart_stm32_config_get+0x2a>
		return UART_CFG_PARITY_EVEN;
 8004e96:	2302      	movs	r3, #2
	cfg->parity = uart_stm32_ll2cfg_parity(uart_stm32_get_parity(dev));
 8004e98:	712b      	strb	r3, [r5, #4]
	const struct uart_stm32_config *config = dev->config;
 8004e9a:	6863      	ldr	r3, [r4, #4]
	return LL_USART_GetStopBitsLength(config->usart);
 8004e9c:	681b      	ldr	r3, [r3, #0]
  return (uint32_t)(READ_BIT(USARTx->CR2, USART_CR2_STOP));
 8004e9e:	685b      	ldr	r3, [r3, #4]
 8004ea0:	f403 5340 	and.w	r3, r3, #12288	@ 0x3000
	switch (sb) {
 8004ea4:	f5b3 5f80 	cmp.w	r3, #4096	@ 0x1000
 8004ea8:	d007      	beq.n	8004eba <uart_stm32_config_get+0x4c>
 8004eaa:	f5b3 5f40 	cmp.w	r3, #12288	@ 0x3000
 8004eae:	d006      	beq.n	8004ebe <uart_stm32_config_get+0x50>
 8004eb0:	bb33      	cbnz	r3, 8004f00 <uart_stm32_config_get+0x92>
		return UART_CFG_STOP_BITS_1;
 8004eb2:	2301      	movs	r3, #1
 8004eb4:	e004      	b.n	8004ec0 <uart_stm32_config_get+0x52>
		return UART_CFG_PARITY_NONE;
 8004eb6:	2300      	movs	r3, #0
 8004eb8:	e7ee      	b.n	8004e98 <uart_stm32_config_get+0x2a>
	switch (sb) {
 8004eba:	2300      	movs	r3, #0
 8004ebc:	e000      	b.n	8004ec0 <uart_stm32_config_get+0x52>
		return UART_CFG_STOP_BITS_1_5;
 8004ebe:	2302      	movs	r3, #2
	cfg->stop_bits = uart_stm32_ll2cfg_stopbits(
 8004ec0:	716b      	strb	r3, [r5, #5]
	const struct uart_stm32_config *config = dev->config;
 8004ec2:	6863      	ldr	r3, [r4, #4]
	return LL_USART_GetDataWidth(config->usart);
 8004ec4:	681b      	ldr	r3, [r3, #0]
  return (uint32_t)(READ_BIT(USARTx->CR1, USART_CR1_M));
 8004ec6:	6818      	ldr	r0, [r3, #0]
  return (uint32_t)(READ_BIT(USARTx->CR1, USART_CR1_PS | USART_CR1_PCE));
 8004ec8:	6819      	ldr	r1, [r3, #0]
	cfg->data_bits = uart_stm32_ll2cfg_databits(
 8004eca:	f401 61c0 	and.w	r1, r1, #1536	@ 0x600
 8004ece:	f000 2010 	and.w	r0, r0, #268439552	@ 0x10001000
 8004ed2:	f7ff ffb7 	bl	8004e44 <uart_stm32_ll2cfg_databits>
 8004ed6:	71a8      	strb	r0, [r5, #6]
	const struct uart_stm32_config *config = dev->config;
 8004ed8:	6863      	ldr	r3, [r4, #4]
	return LL_USART_GetHWFlowCtrl(config->usart);
 8004eda:	681b      	ldr	r3, [r3, #0]
  return (uint32_t)(READ_BIT(USARTx->CR3, USART_CR3_RTSE | USART_CR3_CTSE));
 8004edc:	689b      	ldr	r3, [r3, #8]
 8004ede:	f403 7340 	and.w	r3, r3, #768	@ 0x300
	if (fc == LL_USART_HWCONTROL_RTS_CTS) {
 8004ee2:	f5b3 7f40 	cmp.w	r3, #768	@ 0x300
 8004ee6:	d00d      	beq.n	8004f04 <uart_stm32_config_get+0x96>
	return UART_CFG_FLOW_CTRL_NONE;
 8004ee8:	2300      	movs	r3, #0
	cfg->flow_ctrl = uart_stm32_ll2cfg_hwctrl(
 8004eea:	71eb      	strb	r3, [r5, #7]
	const struct uart_stm32_config *config = dev->config;
 8004eec:	6863      	ldr	r3, [r4, #4]
	return LL_USART_IsEnabledDEMode(config->usart);
 8004eee:	681b      	ldr	r3, [r3, #0]
  return ((READ_BIT(USARTx->CR3, USART_CR3_DEM) == (USART_CR3_DEM)) ? 1UL : 0UL);
 8004ef0:	689b      	ldr	r3, [r3, #8]
 8004ef2:	f413 4f80 	tst.w	r3, #16384	@ 0x4000
 8004ef6:	d001      	beq.n	8004efc <uart_stm32_config_get+0x8e>
		cfg->flow_ctrl = UART_CFG_FLOW_CTRL_RS485;
 8004ef8:	2303      	movs	r3, #3
 8004efa:	71eb      	strb	r3, [r5, #7]
}
 8004efc:	2000      	movs	r0, #0
 8004efe:	bd38      	pop	{r3, r4, r5, pc}
		return UART_CFG_STOP_BITS_2;
 8004f00:	2303      	movs	r3, #3
 8004f02:	e7dd      	b.n	8004ec0 <uart_stm32_config_get+0x52>
		return UART_CFG_FLOW_CTRL_RTS_CTS;
 8004f04:	2301      	movs	r3, #1
 8004f06:	e7f0      	b.n	8004eea <uart_stm32_config_get+0x7c>

08004f08 <uart_stm32_poll_in_visitor>:
{
 8004f08:	b508      	push	{r3, lr}
	const struct uart_stm32_config *config = dev->config;
 8004f0a:	6843      	ldr	r3, [r0, #4]
	USART_TypeDef *usart = config->usart;
 8004f0c:	6818      	ldr	r0, [r3, #0]
  return ((READ_BIT(USARTx->ISR, USART_ISR_ORE) == (USART_ISR_ORE)) ? 1UL : 0UL);
 8004f0e:	69c3      	ldr	r3, [r0, #28]
 8004f10:	f013 0f08 	tst.w	r3, #8
 8004f14:	d001      	beq.n	8004f1a <uart_stm32_poll_in_visitor+0x12>
  * @param  USARTx USART Instance
  * @retval None
  */
__STATIC_INLINE void LL_USART_ClearFlag_ORE(USART_TypeDef *USARTx)
{
  WRITE_REG(USARTx->ICR, USART_ICR_ORECF);
 8004f16:	2308      	movs	r3, #8
 8004f18:	6203      	str	r3, [r0, #32]
  return ((READ_BIT(USARTx->ISR, USART_ISR_RXNE_RXFNE) == (USART_ISR_RXNE_RXFNE)) ? 1UL : 0UL);
 8004f1a:	69c3      	ldr	r3, [r0, #28]
 8004f1c:	f013 0f20 	tst.w	r3, #32
 8004f20:	d002      	beq.n	8004f28 <uart_stm32_poll_in_visitor+0x20>
	get_fn(usart, in);
 8004f22:	4790      	blx	r2
	return 0;
 8004f24:	2000      	movs	r0, #0
}
 8004f26:	bd08      	pop	{r3, pc}
		return -1;
 8004f28:	f04f 30ff 	mov.w	r0, #4294967295
 8004f2c:	e7fb      	b.n	8004f26 <uart_stm32_poll_in_visitor+0x1e>

08004f2e <uart_stm32_poll_out_visitor>:
{
 8004f2e:	b510      	push	{r4, lr}
	const struct uart_stm32_config *config = dev->config;
 8004f30:	6843      	ldr	r3, [r0, #4]
	USART_TypeDef *usart = config->usart;
 8004f32:	6818      	ldr	r0, [r3, #0]
  return ((READ_BIT(USARTx->ISR, USART_ISR_TXE_TXFNF) == (USART_ISR_TXE_TXFNF)) ? 1UL : 0UL);
 8004f34:	69c3      	ldr	r3, [r0, #28]
 8004f36:	f013 0f80 	tst.w	r3, #128	@ 0x80
 8004f3a:	d0fb      	beq.n	8004f34 <uart_stm32_poll_out_visitor+0x6>
  __ASM volatile ("MRS %0, basepri" : "=r" (result) );
 8004f3c:	f3ef 8411 	mrs	r4, BASEPRI
  __ASM volatile ("MSR basepri_max, %0" : : "r" (basePri) : "memory");
 8004f40:	2310      	movs	r3, #16
 8004f42:	f383 8812 	msr	BASEPRI_MAX, r3
 8004f46:	f3bf 8f6f 	isb	sy
 8004f4a:	69c3      	ldr	r3, [r0, #28]
 8004f4c:	f013 0f80 	tst.w	r3, #128	@ 0x80
 8004f50:	d104      	bne.n	8004f5c <uart_stm32_poll_out_visitor+0x2e>
  __ASM volatile ("MSR basepri, %0" : : "r" (basePri) : "memory");
 8004f52:	f384 8811 	msr	BASEPRI, r4
 8004f56:	f3bf 8f6f 	isb	sy
	}
	__enable_irq();
#else
#error Unknown ARM architecture
#endif /* CONFIG_ARMV6_M_ARMV8_M_BASELINE */
}
 8004f5a:	e7eb      	b.n	8004f34 <uart_stm32_poll_out_visitor+0x6>
	set_fn(usart, out);
 8004f5c:	4790      	blx	r2
 8004f5e:	f384 8811 	msr	BASEPRI, r4
 8004f62:	f3bf 8f6f 	isb	sy
}
 8004f66:	bd10      	pop	{r4, pc}

08004f68 <poll_in_u8>:
  * @param  USARTx USART Instance
  * @retval Value between Min_Data=0x00 and Max_Data=0xFF
  */
__STATIC_INLINE uint8_t LL_USART_ReceiveData8(const USART_TypeDef *USARTx)
{
  return (uint8_t)(READ_BIT(USARTx->RDR, USART_RDR_RDR) & 0xFFU);
 8004f68:	6a43      	ldr	r3, [r0, #36]	@ 0x24
	*((unsigned char *)in) = (unsigned char)LL_USART_ReceiveData8(usart);
 8004f6a:	700b      	strb	r3, [r1, #0]
}
 8004f6c:	4770      	bx	lr

08004f6e <poll_out_u8>:
	LL_USART_TransmitData8(usart, (uint8_t)out);
 8004f6e:	b2c9      	uxtb	r1, r1
  * @param  Value between Min_Data=0x00 and Max_Data=0xFF
  * @retval None
  */
__STATIC_INLINE void LL_USART_TransmitData8(USART_TypeDef *USARTx, uint8_t Value)
{
  USARTx->TDR = Value;
 8004f70:	6281      	str	r1, [r0, #40]	@ 0x28
}
 8004f72:	4770      	bx	lr

08004f74 <uart_stm32_err_check>:
	const struct uart_stm32_config *config = dev->config;
 8004f74:	6843      	ldr	r3, [r0, #4]
	USART_TypeDef *usart = config->usart;
 8004f76:	681b      	ldr	r3, [r3, #0]
  return ((READ_BIT(USARTx->ISR, USART_ISR_ORE) == (USART_ISR_ORE)) ? 1UL : 0UL);
 8004f78:	69d8      	ldr	r0, [r3, #28]
 8004f7a:	f010 0008 	ands.w	r0, r0, #8
 8004f7e:	d000      	beq.n	8004f82 <uart_stm32_err_check+0xe>
		err |= UART_ERROR_OVERRUN;
 8004f80:	2001      	movs	r0, #1
  return ((READ_BIT(USARTx->ISR, USART_ISR_PE) == (USART_ISR_PE)) ? 1UL : 0UL);
 8004f82:	69da      	ldr	r2, [r3, #28]
 8004f84:	f012 0f01 	tst.w	r2, #1
 8004f88:	d001      	beq.n	8004f8e <uart_stm32_err_check+0x1a>
		err |= UART_ERROR_PARITY;
 8004f8a:	f040 0002 	orr.w	r0, r0, #2
  return ((READ_BIT(USARTx->ISR, USART_ISR_FE) == (USART_ISR_FE)) ? 1UL : 0UL);
 8004f8e:	69da      	ldr	r2, [r3, #28]
 8004f90:	f012 0f02 	tst.w	r2, #2
 8004f94:	d001      	beq.n	8004f9a <uart_stm32_err_check+0x26>
		err |= UART_ERROR_FRAMING;
 8004f96:	f040 0004 	orr.w	r0, r0, #4
  return ((READ_BIT(USARTx->ISR, USART_ISR_NE) == (USART_ISR_NE)) ? 1UL : 0UL);
 8004f9a:	69da      	ldr	r2, [r3, #28]
 8004f9c:	f012 0f04 	tst.w	r2, #4
 8004fa0:	d001      	beq.n	8004fa6 <uart_stm32_err_check+0x32>
		err |= UART_ERROR_NOISE;
 8004fa2:	f040 0020 	orr.w	r0, r0, #32
  return ((READ_BIT(USARTx->ISR, USART_ISR_LBDF) == (USART_ISR_LBDF)) ? 1UL : 0UL);
 8004fa6:	69da      	ldr	r2, [r3, #28]
 8004fa8:	f412 7f80 	tst.w	r2, #256	@ 0x100
 8004fac:	d103      	bne.n	8004fb6 <uart_stm32_err_check+0x42>
	if (err & UART_BREAK) {
 8004fae:	f010 0f08 	tst.w	r0, #8
 8004fb2:	d102      	bne.n	8004fba <uart_stm32_err_check+0x46>
 8004fb4:	e004      	b.n	8004fc0 <uart_stm32_err_check+0x4c>
		err |= UART_BREAK;
 8004fb6:	f040 0008 	orr.w	r0, r0, #8
  WRITE_REG(USARTx->ICR, USART_ICR_LBDCF);
 8004fba:	f44f 7280 	mov.w	r2, #256	@ 0x100
 8004fbe:	621a      	str	r2, [r3, #32]
	if (err & UART_ERROR_OVERRUN) {
 8004fc0:	f010 0f01 	tst.w	r0, #1
 8004fc4:	d001      	beq.n	8004fca <uart_stm32_err_check+0x56>
  WRITE_REG(USARTx->ICR, USART_ICR_ORECF);
 8004fc6:	2208      	movs	r2, #8
 8004fc8:	621a      	str	r2, [r3, #32]
	if (err & UART_ERROR_PARITY) {
 8004fca:	f010 0f02 	tst.w	r0, #2
 8004fce:	d001      	beq.n	8004fd4 <uart_stm32_err_check+0x60>
  WRITE_REG(USARTx->ICR, USART_ICR_PECF);
 8004fd0:	2201      	movs	r2, #1
 8004fd2:	621a      	str	r2, [r3, #32]
	if (err & UART_ERROR_FRAMING) {
 8004fd4:	f010 0f04 	tst.w	r0, #4
 8004fd8:	d001      	beq.n	8004fde <uart_stm32_err_check+0x6a>
  WRITE_REG(USARTx->ICR, USART_ICR_FECF);
 8004fda:	2202      	movs	r2, #2
 8004fdc:	621a      	str	r2, [r3, #32]
	if (err & UART_ERROR_NOISE) {
 8004fde:	f010 0f20 	tst.w	r0, #32
 8004fe2:	d001      	beq.n	8004fe8 <uart_stm32_err_check+0x74>
  WRITE_REG(USARTx->ICR, USART_ICR_NECF);
 8004fe4:	2204      	movs	r2, #4
 8004fe6:	621a      	str	r2, [r3, #32]
}
 8004fe8:	4770      	bx	lr

08004fea <uart_stm32_clocks_enable>:
{
 8004fea:	b508      	push	{r3, lr}
	const struct uart_stm32_config *config = dev->config;
 8004fec:	6843      	ldr	r3, [r0, #4]
	err = clock_control_on(config->clock, (clock_control_subsys_t)&config->pclken[0]);
 8004fee:	6858      	ldr	r0, [r3, #4]
 8004ff0:	6919      	ldr	r1, [r3, #16]
	const struct clock_control_driver_api *api =
 8004ff2:	6883      	ldr	r3, [r0, #8]
	if (api->on == NULL) {
 8004ff4:	681b      	ldr	r3, [r3, #0]
 8004ff6:	b10b      	cbz	r3, 8004ffc <uart_stm32_clocks_enable+0x12>
	return api->on(dev, sys);
 8004ff8:	4798      	blx	r3
}
 8004ffa:	bd08      	pop	{r3, pc}
		return -ENOSYS;
 8004ffc:	f06f 0057 	mvn.w	r0, #87	@ 0x57
		return err;
 8005000:	e7fb      	b.n	8004ffa <uart_stm32_clocks_enable+0x10>

08005002 <pinctrl_apply_state>:
 * @retval -ENOENT If given state id does not exist.
 * @retval -errno Negative errno for other failures.
 */
static inline int pinctrl_apply_state(const struct pinctrl_dev_config *config,
				      uint8_t id)
{
 8005002:	b500      	push	{lr}
 8005004:	b083      	sub	sp, #12
	int ret;
	const struct pinctrl_state *state;

	ret = pinctrl_lookup_state(config, id, &state);
 8005006:	aa01      	add	r2, sp, #4
 8005008:	f7ff fe68 	bl	8004cdc <pinctrl_lookup_state>
	if (ret < 0) {
 800500c:	2800      	cmp	r0, #0
 800500e:	db05      	blt.n	800501c <pinctrl_apply_state+0x1a>
		return ret;
	}

	return pinctrl_apply_state_direct(config, state);
 8005010:	9b01      	ldr	r3, [sp, #4]
	return pinctrl_configure_pins(state->pins, state->pin_cnt, reg);
 8005012:	2200      	movs	r2, #0
 8005014:	7919      	ldrb	r1, [r3, #4]
 8005016:	6818      	ldr	r0, [r3, #0]
 8005018:	f7ff fe79 	bl	8004d0e <pinctrl_configure_pins>
}
 800501c:	b003      	add	sp, #12
 800501e:	f85d fb04 	ldr.w	pc, [sp], #4

08005022 <uart_stm32_parameters_set>:
{
 8005022:	e92d 43f8 	stmdb	sp!, {r3, r4, r5, r6, r7, r8, r9, lr}
 8005026:	4604      	mov	r4, r0
 8005028:	460d      	mov	r5, r1
	const struct uart_stm32_config *config = dev->config;
 800502a:	f8d0 8004 	ldr.w	r8, [r0, #4]
	struct uart_stm32_data *data = dev->data;
 800502e:	6903      	ldr	r3, [r0, #16]
	struct uart_config *uart_cfg = data->uart_cfg;
 8005030:	681e      	ldr	r6, [r3, #0]
	const uint32_t parity = uart_stm32_cfg2ll_parity(cfg->parity);
 8005032:	f891 9004 	ldrb.w	r9, [r1, #4]
	switch (parity) {
 8005036:	f1b9 0f01 	cmp.w	r9, #1
 800503a:	d005      	beq.n	8005048 <uart_stm32_parameters_set+0x26>
 800503c:	f1b9 0f02 	cmp.w	r9, #2
 8005040:	d112      	bne.n	8005068 <uart_stm32_parameters_set+0x46>
		return LL_USART_PARITY_EVEN;
 8005042:	f44f 6780 	mov.w	r7, #1024	@ 0x400
 8005046:	e001      	b.n	800504c <uart_stm32_parameters_set+0x2a>
	switch (parity) {
 8005048:	f44f 67c0 	mov.w	r7, #1536	@ 0x600
	const uint32_t stopbits = uart_stm32_cfg2ll_stopbits(config, cfg->stop_bits);
 800504c:	7969      	ldrb	r1, [r5, #5]
 800504e:	4640      	mov	r0, r8
 8005050:	f7fc ff1c 	bl	8001e8c <uart_stm32_cfg2ll_stopbits>
	const uint32_t databits = uart_stm32_cfg2ll_databits(cfg->data_bits,
 8005054:	79ab      	ldrb	r3, [r5, #6]
	switch (db) {
 8005056:	2b02      	cmp	r3, #2
 8005058:	d008      	beq.n	800506c <uart_stm32_parameters_set+0x4a>
 800505a:	2b04      	cmp	r3, #4
 800505c:	d00e      	beq.n	800507c <uart_stm32_parameters_set+0x5a>
		if (p != UART_CFG_PARITY_NONE) {
 800505e:	f1b9 0f00 	cmp.w	r9, #0
 8005062:	d161      	bne.n	8005128 <uart_stm32_parameters_set+0x106>
		return STM32_USART_DATAWIDTH_8_BIT;
 8005064:	2200      	movs	r2, #0
 8005066:	e00b      	b.n	8005080 <uart_stm32_parameters_set+0x5e>
		return LL_USART_PARITY_NONE;
 8005068:	2700      	movs	r7, #0
 800506a:	e7ef      	b.n	800504c <uart_stm32_parameters_set+0x2a>
		if (p == UART_CFG_PARITY_NONE) {
 800506c:	f1b9 0f00 	cmp.w	r9, #0
 8005070:	d001      	beq.n	8005076 <uart_stm32_parameters_set+0x54>
			return STM32_USART_DATAWIDTH_8_BIT;
 8005072:	2200      	movs	r2, #0
 8005074:	e004      	b.n	8005080 <uart_stm32_parameters_set+0x5e>
			return STM32_USART_DATAWIDTH_7_BIT;
 8005076:	f04f 5280 	mov.w	r2, #268435456	@ 0x10000000
 800507a:	e001      	b.n	8005080 <uart_stm32_parameters_set+0x5e>
	switch (db) {
 800507c:	f44f 5280 	mov.w	r2, #4096	@ 0x1000
	const uint32_t flowctrl = uart_stm32_cfg2ll_hwctrl(cfg->flow_ctrl);
 8005080:	79e9      	ldrb	r1, [r5, #7]
	if (fc == UART_CFG_FLOW_CTRL_RTS_CTS) {
 8005082:	2901      	cmp	r1, #1
 8005084:	d053      	beq.n	800512e <uart_stm32_parameters_set+0x10c>
	return LL_USART_HWCONTROL_NONE;
 8005086:	2300      	movs	r3, #0
	bool driver_enable = cfg->flow_ctrl == UART_CFG_FLOW_CTRL_RS485;
 8005088:	2903      	cmp	r1, #3
 800508a:	bf14      	ite	ne
 800508c:	2100      	movne	r1, #0
 800508e:	2101      	moveq	r1, #1
	if (cfg == uart_cfg) {
 8005090:	42ae      	cmp	r6, r5
 8005092:	d04f      	beq.n	8005134 <uart_stm32_parameters_set+0x112>
	return LL_USART_GetParity(config->usart);
 8005094:	f8d8 e000 	ldr.w	lr, [r8]
  return (uint32_t)(READ_BIT(USARTx->CR1, USART_CR1_PS | USART_CR1_PCE));
 8005098:	f8de c000 	ldr.w	ip, [lr]
 800509c:	f40c 6cc0 	and.w	ip, ip, #1536	@ 0x600
		if (parity != uart_stm32_get_parity(dev)) {
 80050a0:	4567      	cmp	r7, ip
 80050a2:	d007      	beq.n	80050b4 <uart_stm32_parameters_set+0x92>
  MODIFY_REG(USARTx->CR1, USART_CR1_PS | USART_CR1_PCE, Parity);
 80050a4:	f8de c000 	ldr.w	ip, [lr]
 80050a8:	f42c 6cc0 	bic.w	ip, ip, #1536	@ 0x600
 80050ac:	ea47 070c 	orr.w	r7, r7, ip
 80050b0:	f8ce 7000 	str.w	r7, [lr]
	const struct uart_stm32_config *config = dev->config;
 80050b4:	6867      	ldr	r7, [r4, #4]
	return LL_USART_GetStopBitsLength(config->usart);
 80050b6:	f8d7 c000 	ldr.w	ip, [r7]
  return (uint32_t)(READ_BIT(USARTx->CR2, USART_CR2_STOP));
 80050ba:	f8dc 7004 	ldr.w	r7, [ip, #4]
 80050be:	f407 5740 	and.w	r7, r7, #12288	@ 0x3000
		if (stopbits != uart_stm32_get_stopbits(dev)) {
 80050c2:	42b8      	cmp	r0, r7
 80050c4:	d006      	beq.n	80050d4 <uart_stm32_parameters_set+0xb2>
  MODIFY_REG(USARTx->CR2, USART_CR2_STOP, StopBits);
 80050c6:	f8dc 7004 	ldr.w	r7, [ip, #4]
 80050ca:	f427 5740 	bic.w	r7, r7, #12288	@ 0x3000
 80050ce:	4338      	orrs	r0, r7
 80050d0:	f8cc 0004 	str.w	r0, [ip, #4]
	const struct uart_stm32_config *config = dev->config;
 80050d4:	6860      	ldr	r0, [r4, #4]
	return LL_USART_GetDataWidth(config->usart);
 80050d6:	6807      	ldr	r7, [r0, #0]
  return (uint32_t)(READ_BIT(USARTx->CR1, USART_CR1_M));
 80050d8:	6838      	ldr	r0, [r7, #0]
 80050da:	f000 2010 	and.w	r0, r0, #268439552	@ 0x10001000
		if (databits != uart_stm32_get_databits(dev)) {
 80050de:	4282      	cmp	r2, r0
 80050e0:	d004      	beq.n	80050ec <uart_stm32_parameters_set+0xca>
  MODIFY_REG(USARTx->CR1, USART_CR1_M, DataWidth);
 80050e2:	6838      	ldr	r0, [r7, #0]
 80050e4:	f020 2010 	bic.w	r0, r0, #268439552	@ 0x10001000
 80050e8:	4302      	orrs	r2, r0
 80050ea:	603a      	str	r2, [r7, #0]
	const struct uart_stm32_config *config = dev->config;
 80050ec:	6862      	ldr	r2, [r4, #4]
	return LL_USART_GetHWFlowCtrl(config->usart);
 80050ee:	6810      	ldr	r0, [r2, #0]
  return (uint32_t)(READ_BIT(USARTx->CR3, USART_CR3_RTSE | USART_CR3_CTSE));
 80050f0:	6882      	ldr	r2, [r0, #8]
 80050f2:	f402 7240 	and.w	r2, r2, #768	@ 0x300
		if (flowctrl != uart_stm32_get_hwctrl(dev)) {
 80050f6:	4293      	cmp	r3, r2
 80050f8:	d004      	beq.n	8005104 <uart_stm32_parameters_set+0xe2>
  MODIFY_REG(USARTx->CR3, USART_CR3_RTSE | USART_CR3_CTSE, HardwareFlowControl);
 80050fa:	6882      	ldr	r2, [r0, #8]
 80050fc:	f422 7240 	bic.w	r2, r2, #768	@ 0x300
 8005100:	4313      	orrs	r3, r2
 8005102:	6083      	str	r3, [r0, #8]
	const struct uart_stm32_config *config = dev->config;
 8005104:	6863      	ldr	r3, [r4, #4]
	return LL_USART_IsEnabledDEMode(config->usart);
 8005106:	681b      	ldr	r3, [r3, #0]
  return ((READ_BIT(USARTx->CR3, USART_CR3_DEM) == (USART_CR3_DEM)) ? 1UL : 0UL);
 8005108:	689b      	ldr	r3, [r3, #8]
 800510a:	f413 4380 	ands.w	r3, r3, #16384	@ 0x4000
 800510e:	d000      	beq.n	8005112 <uart_stm32_parameters_set+0xf0>
 8005110:	2301      	movs	r3, #1
 8005112:	f003 0301 	and.w	r3, r3, #1
		if (driver_enable != uart_stm32_get_driver_enable(dev)) {
 8005116:	4299      	cmp	r1, r3
 8005118:	d12a      	bne.n	8005170 <uart_stm32_parameters_set+0x14e>
		if (cfg->baudrate != uart_cfg->baudrate) {
 800511a:	6829      	ldr	r1, [r5, #0]
 800511c:	6833      	ldr	r3, [r6, #0]
 800511e:	4299      	cmp	r1, r3
 8005120:	d12a      	bne.n	8005178 <uart_stm32_parameters_set+0x156>
	return 0;
 8005122:	2000      	movs	r0, #0
}
 8005124:	e8bd 83f8 	ldmia.w	sp!, {r3, r4, r5, r6, r7, r8, r9, pc}
			return STM32_USART_DATAWIDTH_9_BIT;
 8005128:	f44f 5280 	mov.w	r2, #4096	@ 0x1000
 800512c:	e7a8      	b.n	8005080 <uart_stm32_parameters_set+0x5e>
		return LL_USART_HWCONTROL_RTS_CTS;
 800512e:	f44f 7340 	mov.w	r3, #768	@ 0x300
 8005132:	e7a9      	b.n	8005088 <uart_stm32_parameters_set+0x66>
		LL_USART_ConfigCharacter(config->usart,
 8005134:	f8d8 6000 	ldr.w	r6, [r8]
  MODIFY_REG(USARTx->CR1, USART_CR1_PS | USART_CR1_PCE | USART_CR1_M, Parity | DataWidth);
 8005138:	6831      	ldr	r1, [r6, #0]
 800513a:	f021 5180 	bic.w	r1, r1, #268435456	@ 0x10000000
 800513e:	f421 51b0 	bic.w	r1, r1, #5632	@ 0x1600
 8005142:	433a      	orrs	r2, r7
 8005144:	4311      	orrs	r1, r2
 8005146:	6031      	str	r1, [r6, #0]
  MODIFY_REG(USARTx->CR2, USART_CR2_STOP, StopBits);
 8005148:	6872      	ldr	r2, [r6, #4]
 800514a:	f422 5240 	bic.w	r2, r2, #12288	@ 0x3000
 800514e:	4302      	orrs	r2, r0
 8005150:	6072      	str	r2, [r6, #4]
	const struct uart_stm32_config *config = dev->config;
 8005152:	6862      	ldr	r2, [r4, #4]
	LL_USART_SetHWFlowCtrl(config->usart, hwctrl);
 8005154:	6811      	ldr	r1, [r2, #0]
  MODIFY_REG(USARTx->CR3, USART_CR3_RTSE | USART_CR3_CTSE, HardwareFlowControl);
 8005156:	688a      	ldr	r2, [r1, #8]
 8005158:	f422 7240 	bic.w	r2, r2, #768	@ 0x300
 800515c:	4313      	orrs	r3, r2
 800515e:	608b      	str	r3, [r1, #8]
		ret = uart_stm32_set_baudrate(dev, cfg->baudrate);
 8005160:	6829      	ldr	r1, [r5, #0]
 8005162:	4620      	mov	r0, r4
 8005164:	f7fc fee6 	bl	8001f34 <uart_stm32_set_baudrate>
		if (ret < 0) {
 8005168:	2800      	cmp	r0, #0
 800516a:	dbdb      	blt.n	8005124 <uart_stm32_parameters_set+0x102>
	return 0;
 800516c:	2000      	movs	r0, #0
 800516e:	e7d9      	b.n	8005124 <uart_stm32_parameters_set+0x102>
			uart_stm32_set_driver_enable(dev, driver_enable);
 8005170:	4620      	mov	r0, r4
 8005172:	f7ff fe59 	bl	8004e28 <uart_stm32_set_driver_enable>
 8005176:	e7d0      	b.n	800511a <uart_stm32_parameters_set+0xf8>
			ret = uart_stm32_set_baudrate(dev, cfg->baudrate);
 8005178:	4620      	mov	r0, r4
 800517a:	f7fc fedb 	bl	8001f34 <uart_stm32_set_baudrate>
			if (ret < 0) {
 800517e:	2800      	cmp	r0, #0
 8005180:	dbd0      	blt.n	8005124 <uart_stm32_parameters_set+0x102>
			uart_cfg->baudrate = cfg->baudrate;
 8005182:	682b      	ldr	r3, [r5, #0]
 8005184:	6033      	str	r3, [r6, #0]
	return 0;
 8005186:	2000      	movs	r0, #0
 8005188:	e7cc      	b.n	8005124 <uart_stm32_parameters_set+0x102>

0800518a <uart_stm32_init>:
 * @param dev UART device struct
 *
 * @return 0
 */
static int uart_stm32_init(const struct device *dev)
{
 800518a:	b538      	push	{r3, r4, r5, lr}
 800518c:	4604      	mov	r4, r0
	const struct uart_stm32_config *config = dev->config;
 800518e:	6845      	ldr	r5, [r0, #4]
	int err;

	err = uart_stm32_clocks_enable(dev);
 8005190:	f7ff ff2b 	bl	8004fea <uart_stm32_clocks_enable>
	if (err < 0) {
 8005194:	2800      	cmp	r0, #0
 8005196:	db0b      	blt.n	80051b0 <uart_stm32_init+0x26>
		return err;
	}

	/* Configure dt provided device signals when available */
	err = pinctrl_apply_state(config->pcfg, PINCTRL_STATE_DEFAULT);
 8005198:	2100      	movs	r1, #0
 800519a:	6a68      	ldr	r0, [r5, #36]	@ 0x24
 800519c:	f7ff ff31 	bl	8005002 <pinctrl_apply_state>
	if (err < 0) {
 80051a0:	2800      	cmp	r0, #0
 80051a2:	db05      	blt.n	80051b0 <uart_stm32_init+0x26>
		return err;
	}

	err = uart_stm32_registers_configure(dev);
 80051a4:	4620      	mov	r0, r4
 80051a6:	f7fd f877 	bl	8002298 <uart_stm32_registers_configure>
	if (err < 0) {
 80051aa:	2800      	cmp	r0, #0
 80051ac:	db00      	blt.n	80051b0 <uart_stm32_init+0x26>
#endif /* CONFIG_PM || CONFIG_UART_INTERRUPT_DRIVEN || CONFIG_UART_ASYNC_API */

#ifdef CONFIG_UART_ASYNC_API
	return uart_stm32_async_init(dev);
#else
	return 0;
 80051ae:	2000      	movs	r0, #0
#endif
}
 80051b0:	bd38      	pop	{r3, r4, r5, pc}

080051b2 <do_device_init>:
#include <zephyr/internal/syscall_handler.h>
#include <zephyr/toolchain.h>
#include <zephyr/pm/device_runtime.h>

int do_device_init(const struct device *dev)
{
 80051b2:	b510      	push	{r4, lr}
 80051b4:	4604      	mov	r4, r0
	int rc = 0;

	if (dev->ops.init != NULL) {
 80051b6:	6943      	ldr	r3, [r0, #20]
 80051b8:	b193      	cbz	r3, 80051e0 <do_device_init+0x2e>
		rc = dev->ops.init(dev);
 80051ba:	4798      	blx	r3
		/* If initialization failed, record in dev->state->init_res
		 * the POSITIVE value of the resulting errno
		 */
		if (rc != 0) {
 80051bc:	4602      	mov	r2, r0
 80051be:	b130      	cbz	r0, 80051ce <do_device_init+0x1c>
			 * errno value maps to an uint8_t range as of now.
			 */
			__ASSERT(rc >= -UINT8_MAX && rc < 0, "device %s init: invalid error (%d)",
				 dev->name, rc);

			if (rc < 0) {
 80051c0:	2800      	cmp	r0, #0
 80051c2:	db0b      	blt.n	80051dc <do_device_init+0x2a>
				rc = -rc;
			}
			/* handle error value overflow in production
			 * this is likely a bug in the device's init function. Signals it
			 */
			if (rc > UINT8_MAX) {
 80051c4:	2aff      	cmp	r2, #255	@ 0xff
 80051c6:	dd00      	ble.n	80051ca <do_device_init+0x18>
				rc = UINT8_MAX;
 80051c8:	22ff      	movs	r2, #255	@ 0xff
			}
			dev->state->init_res = rc;
 80051ca:	68e3      	ldr	r3, [r4, #12]
 80051cc:	701a      	strb	r2, [r3, #0]
		}
	}

	/* device initialization has been invoked */
	dev->state->initialized = true;
 80051ce:	68e1      	ldr	r1, [r4, #12]
 80051d0:	784b      	ldrb	r3, [r1, #1]
 80051d2:	f043 0301 	orr.w	r3, r3, #1
 80051d6:	704b      	strb	r3, [r1, #1]

	/* here, the value of rc is either 0 or +errno
	 * flip the sign to return a negative value on failure as expected
	 */
	return -rc;
}
 80051d8:	4250      	negs	r0, r2
 80051da:	bd10      	pop	{r4, pc}
				rc = -rc;
 80051dc:	4242      	negs	r2, r0
 80051de:	e7f1      	b.n	80051c4 <do_device_init+0x12>
	int rc = 0;
 80051e0:	2200      	movs	r2, #0
 80051e2:	e7f4      	b.n	80051ce <do_device_init+0x1c>

080051e4 <z_impl_device_is_ready>:
{
	/*
	 * if an invalid device pointer is passed as argument, this call
	 * reports the `device` as not ready for usage.
	 */
	if (dev == NULL) {
 80051e4:	b160      	cbz	r0, 8005200 <z_impl_device_is_ready+0x1c>
		return false;
	}

	return dev->state->initialized && (dev->state->init_res == 0U);
 80051e6:	68c3      	ldr	r3, [r0, #12]
 80051e8:	785a      	ldrb	r2, [r3, #1]
 80051ea:	f012 0f01 	tst.w	r2, #1
 80051ee:	d003      	beq.n	80051f8 <z_impl_device_is_ready+0x14>
 80051f0:	781b      	ldrb	r3, [r3, #0]
 80051f2:	b11b      	cbz	r3, 80051fc <z_impl_device_is_ready+0x18>
 80051f4:	2000      	movs	r0, #0
 80051f6:	4770      	bx	lr
 80051f8:	2000      	movs	r0, #0
 80051fa:	4770      	bx	lr
 80051fc:	2001      	movs	r0, #1
 80051fe:	4770      	bx	lr
		return false;
 8005200:	2000      	movs	r0, #0
}
 8005202:	4770      	bx	lr

08005204 <arch_system_halt>:
  __ASM volatile ("MRS %0, basepri" : "=r" (result) );
 8005204:	f3ef 8311 	mrs	r3, BASEPRI
  __ASM volatile ("MSR basepri_max, %0" : : "r" (basePri) : "memory");
 8005208:	2310      	movs	r3, #16
 800520a:	f383 8812 	msr	BASEPRI_MAX, r3
 800520e:	f3bf 8f6f 	isb	sy
	for (;;) {
 8005212:	e7fe      	b.n	8005212 <arch_system_halt+0xe>

08005214 <k_sys_fatal_error_handler>:
{
 8005214:	b508      	push	{r3, lr}
	arch_system_halt(reason);
 8005216:	f7ff fff5 	bl	8005204 <arch_system_halt>

0800521a <idle>:
#include <wait_q.h>

LOG_MODULE_DECLARE(os, CONFIG_KERNEL_LOG_LEVEL);

void idle(void *unused1, void *unused2, void *unused3)
{
 800521a:	b508      	push	{r3, lr}
  __ASM volatile ("MRS %0, basepri" : "=r" (result) );
 800521c:	f3ef 8311 	mrs	r3, BASEPRI
  __ASM volatile ("MSR basepri_max, %0" : : "r" (basePri) : "memory");
 8005220:	2310      	movs	r3, #16
 8005222:	f383 8812 	msr	BASEPRI_MAX, r3
 8005226:	f3bf 8f6f 	isb	sy
 * @note In some architectures, before returning, the function unmasks interrupts
 * unconditionally.
 */
static inline void k_cpu_idle(void)
{
	arch_cpu_idle();
 800522a:	f7ff f936 	bl	800449a <arch_cpu_idle>
	ARG_UNUSED(unused2);
	ARG_UNUSED(unused3);

	__ASSERT_NO_MSG(_current->base.prio >= 0);

	while (true) {
 800522e:	e7f5      	b.n	800521c <idle+0x2>

08005230 <arch_spin_relax>:
	return sys_clock_cycle_get_64();
}

static ALWAYS_INLINE void arch_nop(void)
{
	__asm__ volatile("nop");
 8005230:	bf00      	nop
{
	__ASSERT(!arch_irq_unlocked(arch_irq_lock()),
		 "this is meant to be called with IRQs disabled");

	arch_nop();
}
 8005232:	4770      	bx	lr

08005234 <setup_thread_stack>:
{
 8005234:	b5f8      	push	{r3, r4, r5, r6, r7, lr}
 8005236:	4605      	mov	r5, r0
 8005238:	460e      	mov	r6, r1
		stack_obj_size = K_KERNEL_STACK_LEN(stack_size);
 800523a:	1dd4      	adds	r4, r2, #7
 800523c:	f024 0407 	bic.w	r4, r4, #7
	stack_ptr = (char *)stack + stack_obj_size;
 8005240:	190f      	adds	r7, r1, r4
	delta += arch_tls_stack_setup(new_thread, stack_ptr);
 8005242:	4639      	mov	r1, r7
 8005244:	f7fb fb64 	bl	8000910 <arch_tls_stack_setup>
	delta = ROUND_UP(delta, ARCH_STACK_PTR_ALIGN);
 8005248:	3007      	adds	r0, #7
 800524a:	f020 0007 	bic.w	r0, r0, #7
	new_thread->stack_info.start = (uintptr_t)stack_buf_start;
 800524e:	f8c5 6094 	str.w	r6, [r5, #148]	@ 0x94
	new_thread->stack_info.size = stack_buf_size;
 8005252:	f8c5 4098 	str.w	r4, [r5, #152]	@ 0x98
	new_thread->stack_info.delta = delta;
 8005256:	f8c5 009c 	str.w	r0, [r5, #156]	@ 0x9c
}
 800525a:	1a38      	subs	r0, r7, r0
 800525c:	bdf8      	pop	{r3, r4, r5, r6, r7, pc}

0800525e <z_init_thread_base>:
{
 800525e:	b410      	push	{r4}
	thread_base->pended_on = NULL;
 8005260:	2400      	movs	r4, #0
 8005262:	6084      	str	r4, [r0, #8]
	thread_base->user_options = (uint16_t)options;
 8005264:	8183      	strh	r3, [r0, #12]
	thread_base->thread_state = (uint8_t)initial_state;
 8005266:	7402      	strb	r2, [r0, #16]
	thread_base->prio = priority;
 8005268:	7381      	strb	r1, [r0, #14]
	thread_base->sched_locked = 0U;
 800526a:	73c4      	strb	r4, [r0, #15]
	node->next = NULL;
 800526c:	6184      	str	r4, [r0, #24]
	node->prev = NULL;
 800526e:	61c4      	str	r4, [r0, #28]
}
 8005270:	bc10      	pop	{r4}
 8005272:	4770      	bx	lr

08005274 <thread_active_elsewhere>:
}
 8005274:	2000      	movs	r0, #0
 8005276:	4770      	bx	lr

08005278 <add_to_waitq_locked>:
{
 8005278:	b538      	push	{r3, r4, r5, lr}
 800527a:	4604      	mov	r4, r0
 800527c:	460d      	mov	r5, r1
	unready_thread(thread);
 800527e:	f7fd fd41 	bl	8002d04 <unready_thread>
	thread->base.thread_state |= _THREAD_PENDING;
 8005282:	7c23      	ldrb	r3, [r4, #16]
 8005284:	f043 0302 	orr.w	r3, r3, #2
 8005288:	7423      	strb	r3, [r4, #16]
	if (wait_q != NULL) {
 800528a:	b325      	cbz	r5, 80052d6 <add_to_waitq_locked+0x5e>
		thread->base.pended_on = wait_q;
 800528c:	60a5      	str	r5, [r4, #8]
	return list->head == list;
 800528e:	682b      	ldr	r3, [r5, #0]
	return sys_dlist_is_empty(list) ? NULL : list->head;
 8005290:	429d      	cmp	r5, r3
 8005292:	d107      	bne.n	80052a4 <add_to_waitq_locked+0x2c>
	SYS_DLIST_FOR_EACH_CONTAINER(pq, t, base.qnode_dlist) {
 8005294:	2300      	movs	r3, #0
 8005296:	e005      	b.n	80052a4 <add_to_waitq_locked+0x2c>
 8005298:	4619      	mov	r1, r3
	return (node == list->tail) ? NULL : node->next;
 800529a:	686a      	ldr	r2, [r5, #4]
 800529c:	4293      	cmp	r3, r2
 800529e:	d015      	beq.n	80052cc <add_to_waitq_locked+0x54>
 80052a0:	681b      	ldr	r3, [r3, #0]
 80052a2:	b97b      	cbnz	r3, 80052c4 <add_to_waitq_locked+0x4c>
 80052a4:	b193      	cbz	r3, 80052cc <add_to_waitq_locked+0x54>
	int32_t b1 = thread_1->base.prio;
 80052a6:	f994 100e 	ldrsb.w	r1, [r4, #14]
	int32_t b2 = thread_2->base.prio;
 80052aa:	f993 200e 	ldrsb.w	r2, [r3, #14]
	if (b1 != b2) {
 80052ae:	4291      	cmp	r1, r2
 80052b0:	d0f2      	beq.n	8005298 <add_to_waitq_locked+0x20>
		return b2 - b1;
 80052b2:	1a52      	subs	r2, r2, r1
		if (z_sched_prio_cmp(thread, t) > 0) {
 80052b4:	2a00      	cmp	r2, #0
 80052b6:	ddef      	ble.n	8005298 <add_to_waitq_locked+0x20>
	sys_dnode_t *const prev = successor->prev;
 80052b8:	685a      	ldr	r2, [r3, #4]
	node->prev = prev;
 80052ba:	6062      	str	r2, [r4, #4]
	node->next = successor;
 80052bc:	6023      	str	r3, [r4, #0]
	prev->next = node;
 80052be:	6014      	str	r4, [r2, #0]
	successor->prev = node;
 80052c0:	605c      	str	r4, [r3, #4]
			return;
 80052c2:	e008      	b.n	80052d6 <add_to_waitq_locked+0x5e>
	return (node != NULL) ? sys_dlist_peek_next_no_check(list, node) : NULL;
 80052c4:	2900      	cmp	r1, #0
 80052c6:	d1ed      	bne.n	80052a4 <add_to_waitq_locked+0x2c>
 80052c8:	460b      	mov	r3, r1
 80052ca:	e7eb      	b.n	80052a4 <add_to_waitq_locked+0x2c>
	sys_dnode_t *const tail = list->tail;
 80052cc:	686b      	ldr	r3, [r5, #4]
	node->next = list;
 80052ce:	6025      	str	r5, [r4, #0]
	node->prev = tail;
 80052d0:	6063      	str	r3, [r4, #4]
	tail->next = node;
 80052d2:	601c      	str	r4, [r3, #0]
	list->tail = node;
 80052d4:	606c      	str	r4, [r5, #4]
}
 80052d6:	bd38      	pop	{r3, r4, r5, pc}

080052d8 <unpend_all>:
{
 80052d8:	b570      	push	{r4, r5, r6, lr}
 80052da:	4606      	mov	r6, r0
	return list->head == list;
 80052dc:	6804      	ldr	r4, [r0, #0]
	return sys_dlist_is_empty(list) ? NULL : list->head;
 80052de:	4284      	cmp	r4, r0
 80052e0:	d01a      	beq.n	8005318 <unpend_all+0x40>
	for (thread = z_waitq_head(wait_q); thread != NULL; thread = z_waitq_head(wait_q)) {
 80052e2:	b1dc      	cbz	r4, 800531c <unpend_all+0x44>
	sys_dnode_t *const prev = node->prev;
 80052e4:	6862      	ldr	r2, [r4, #4]
	sys_dnode_t *const next = node->next;
 80052e6:	6823      	ldr	r3, [r4, #0]
	prev->next = next;
 80052e8:	6013      	str	r3, [r2, #0]
	next->prev = prev;
 80052ea:	605a      	str	r2, [r3, #4]
	node->next = NULL;
 80052ec:	2500      	movs	r5, #0
 80052ee:	6025      	str	r5, [r4, #0]
	node->prev = NULL;
 80052f0:	6065      	str	r5, [r4, #4]
	thread->base.thread_state &= ~_THREAD_PENDING;
 80052f2:	7c23      	ldrb	r3, [r4, #16]
 80052f4:	f023 0302 	bic.w	r3, r3, #2
 80052f8:	7423      	strb	r3, [r4, #16]
 80052fa:	60a5      	str	r5, [r4, #8]
 80052fc:	f104 0018 	add.w	r0, r4, #24
 8005300:	f000 f88f 	bl	8005422 <z_abort_timeout>
	thread->arch.swap_return_value = value;
 8005304:	f8c4 50ac 	str.w	r5, [r4, #172]	@ 0xac
		ready_thread(thread);
 8005308:	4620      	mov	r0, r4
 800530a:	f7fd fca3 	bl	8002c54 <ready_thread>
	return list->head == list;
 800530e:	6834      	ldr	r4, [r6, #0]
	return sys_dlist_is_empty(list) ? NULL : list->head;
 8005310:	42a6      	cmp	r6, r4
 8005312:	d1e6      	bne.n	80052e2 <unpend_all+0xa>
 8005314:	2400      	movs	r4, #0
 8005316:	e7e4      	b.n	80052e2 <unpend_all+0xa>
 8005318:	2400      	movs	r4, #0
 800531a:	e7e2      	b.n	80052e2 <unpend_all+0xa>
}
 800531c:	bd70      	pop	{r4, r5, r6, pc}

0800531e <z_ready_thread>:
{
 800531e:	b538      	push	{r3, r4, r5, lr}
 8005320:	4604      	mov	r4, r0
	K_SPINLOCK(&_sched_spinlock) {
 8005322:	2300      	movs	r3, #0
  __ASM volatile ("MRS %0, basepri" : "=r" (result) );
 8005324:	f3ef 8511 	mrs	r5, BASEPRI
  __ASM volatile ("MSR basepri_max, %0" : : "r" (basePri) : "memory");
 8005328:	2210      	movs	r2, #16
 800532a:	f382 8812 	msr	BASEPRI_MAX, r2
 800532e:	f3bf 8f6f 	isb	sy
 8005332:	e004      	b.n	800533e <z_ready_thread+0x20>
  __ASM volatile ("MSR basepri, %0" : : "r" (basePri) : "memory");
 8005334:	f385 8811 	msr	BASEPRI, r5
 8005338:	f3bf 8f6f 	isb	sy
 800533c:	2301      	movs	r3, #1
 800533e:	b943      	cbnz	r3, 8005352 <z_ready_thread+0x34>
		if (thread_active_elsewhere(thread) == NULL) {
 8005340:	4620      	mov	r0, r4
 8005342:	f7ff ff97 	bl	8005274 <thread_active_elsewhere>
 8005346:	2800      	cmp	r0, #0
 8005348:	d1f4      	bne.n	8005334 <z_ready_thread+0x16>
			ready_thread(thread);
 800534a:	4620      	mov	r0, r4
 800534c:	f7fd fc82 	bl	8002c54 <ready_thread>
 8005350:	e7f0      	b.n	8005334 <z_ready_thread+0x16>
}
 8005352:	bd38      	pop	{r3, r4, r5, pc}

08005354 <z_sched_wake_thread_locked>:
{
 8005354:	b508      	push	{r3, lr}
	bool killed = (thread->base.thread_state &
 8005356:	7c03      	ldrb	r3, [r0, #16]
	if (!killed) {
 8005358:	f013 0f28 	tst.w	r3, #40	@ 0x28
 800535c:	d113      	bne.n	8005386 <z_sched_wake_thread_locked+0x32>
		if (thread->base.pended_on != NULL) {
 800535e:	6883      	ldr	r3, [r0, #8]
 8005360:	b15b      	cbz	r3, 800537a <z_sched_wake_thread_locked+0x26>
	sys_dnode_t *const prev = node->prev;
 8005362:	6842      	ldr	r2, [r0, #4]
	sys_dnode_t *const next = node->next;
 8005364:	6803      	ldr	r3, [r0, #0]
	prev->next = next;
 8005366:	6013      	str	r3, [r2, #0]
	next->prev = prev;
 8005368:	605a      	str	r2, [r3, #4]
	node->next = NULL;
 800536a:	2300      	movs	r3, #0
 800536c:	6003      	str	r3, [r0, #0]
	node->prev = NULL;
 800536e:	6043      	str	r3, [r0, #4]
 8005370:	7c02      	ldrb	r2, [r0, #16]
 8005372:	f022 0202 	bic.w	r2, r2, #2
 8005376:	7402      	strb	r2, [r0, #16]
 8005378:	6083      	str	r3, [r0, #8]
	thread->base.thread_state &= ~_THREAD_SLEEPING;
 800537a:	7c03      	ldrb	r3, [r0, #16]
 800537c:	f023 0304 	bic.w	r3, r3, #4
 8005380:	7403      	strb	r3, [r0, #16]
		ready_thread(thread);
 8005382:	f7fd fc67 	bl	8002c54 <ready_thread>
}
 8005386:	bd08      	pop	{r3, pc}

08005388 <z_thread_timeout>:
{
 8005388:	b538      	push	{r3, r4, r5, lr}
	struct k_thread *thread = CONTAINER_OF(timeout,
 800538a:	f1a0 0518 	sub.w	r5, r0, #24
	K_SPINLOCK(&_sched_spinlock) {
 800538e:	2300      	movs	r3, #0
  __ASM volatile ("MRS %0, basepri" : "=r" (result) );
 8005390:	f3ef 8411 	mrs	r4, BASEPRI
  __ASM volatile ("MSR basepri_max, %0" : : "r" (basePri) : "memory");
 8005394:	2210      	movs	r2, #16
 8005396:	f382 8812 	msr	BASEPRI_MAX, r2
 800539a:	f3bf 8f6f 	isb	sy
 800539e:	e007      	b.n	80053b0 <z_thread_timeout+0x28>
		z_sched_wake_thread_locked(thread);
 80053a0:	4628      	mov	r0, r5
 80053a2:	f7ff ffd7 	bl	8005354 <z_sched_wake_thread_locked>
  __ASM volatile ("MSR basepri, %0" : : "r" (basePri) : "memory");
 80053a6:	f384 8811 	msr	BASEPRI, r4
 80053aa:	f3bf 8f6f 	isb	sy
	K_SPINLOCK(&_sched_spinlock) {
 80053ae:	2301      	movs	r3, #1
 80053b0:	2b00      	cmp	r3, #0
 80053b2:	d0f5      	beq.n	80053a0 <z_thread_timeout+0x18>
}
 80053b4:	bd38      	pop	{r3, r4, r5, pc}

080053b6 <init_ready_q>:
	_priq_run_init(&ready_q->runq);
 80053b6:	1d03      	adds	r3, r0, #4
	list->head = (sys_dnode_t *)list;
 80053b8:	6043      	str	r3, [r0, #4]
	list->tail = (sys_dnode_t *)list;
 80053ba:	6083      	str	r3, [r0, #8]
}
 80053bc:	4770      	bx	lr

080053be <remove_timeout>:
{
 80053be:	b510      	push	{r4, lr}
 80053c0:	4604      	mov	r4, r0
	if (next(t) != NULL) {
 80053c2:	f7fd ff8b 	bl	80032dc <next>
 80053c6:	b148      	cbz	r0, 80053dc <remove_timeout+0x1e>
 80053c8:	4602      	mov	r2, r0
		next(t)->dticks += t->dticks;
 80053ca:	6903      	ldr	r3, [r0, #16]
 80053cc:	6941      	ldr	r1, [r0, #20]
 80053ce:	6920      	ldr	r0, [r4, #16]
 80053d0:	181b      	adds	r3, r3, r0
 80053d2:	6960      	ldr	r0, [r4, #20]
 80053d4:	eb41 0100 	adc.w	r1, r1, r0
 80053d8:	6113      	str	r3, [r2, #16]
 80053da:	6151      	str	r1, [r2, #20]
	sys_dnode_t *const prev = node->prev;
 80053dc:	6862      	ldr	r2, [r4, #4]
	sys_dnode_t *const next = node->next;
 80053de:	6823      	ldr	r3, [r4, #0]
	prev->next = next;
 80053e0:	6013      	str	r3, [r2, #0]
	next->prev = prev;
 80053e2:	605a      	str	r2, [r3, #4]
	node->next = NULL;
 80053e4:	2300      	movs	r3, #0
 80053e6:	6023      	str	r3, [r4, #0]
	node->prev = NULL;
 80053e8:	6063      	str	r3, [r4, #4]
}
 80053ea:	bd10      	pop	{r4, pc}

080053ec <next_timeout>:
{
 80053ec:	b510      	push	{r4, lr}
 80053ee:	4604      	mov	r4, r0
	struct _timeout *to = first();
 80053f0:	f7fd ff6a 	bl	80032c8 <first>
	if ((to == NULL) ||
 80053f4:	b178      	cbz	r0, 8005416 <next_timeout+0x2a>
	    ((int64_t)(to->dticks - ticks_elapsed) > (int64_t)INT_MAX)) {
 80053f6:	6903      	ldr	r3, [r0, #16]
 80053f8:	6942      	ldr	r2, [r0, #20]
 80053fa:	1b1b      	subs	r3, r3, r4
 80053fc:	eb62 72e4 	sbc.w	r2, r2, r4, asr #31
	if ((to == NULL) ||
 8005400:	f1b3 4f00 	cmp.w	r3, #2147483648	@ 0x80000000
 8005404:	f172 0100 	sbcs.w	r1, r2, #0
 8005408:	da08      	bge.n	800541c <next_timeout+0x30>
		ret = max(0, to->dticks - ticks_elapsed);
 800540a:	2a00      	cmp	r2, #0
 800540c:	db01      	blt.n	8005412 <next_timeout+0x26>
 800540e:	4618      	mov	r0, r3
}
 8005410:	bd10      	pop	{r4, pc}
		ret = max(0, to->dticks - ticks_elapsed);
 8005412:	2300      	movs	r3, #0
 8005414:	e7fb      	b.n	800540e <next_timeout+0x22>
		ret = SYS_CLOCK_MAX_WAIT;
 8005416:	f06f 4000 	mvn.w	r0, #2147483648	@ 0x80000000
 800541a:	e7f9      	b.n	8005410 <next_timeout+0x24>
 800541c:	f06f 4000 	mvn.w	r0, #2147483648	@ 0x80000000
	return ret;
 8005420:	e7f6      	b.n	8005410 <next_timeout+0x24>

08005422 <z_abort_timeout>:
{
 8005422:	e92d 41f0 	stmdb	sp!, {r4, r5, r6, r7, r8, lr}
 8005426:	4605      	mov	r5, r0
	K_SPINLOCK(&timeout_lock) {
 8005428:	2400      	movs	r4, #0
  __ASM volatile ("MRS %0, basepri" : "=r" (result) );
 800542a:	f3ef 8711 	mrs	r7, BASEPRI
  __ASM volatile ("MSR basepri_max, %0" : : "r" (basePri) : "memory");
 800542e:	2310      	movs	r3, #16
 8005430:	f383 8812 	msr	BASEPRI_MAX, r3
 8005434:	f3bf 8f6f 	isb	sy
	int ret = -EINVAL;
 8005438:	f06f 0015 	mvn.w	r0, #21
 800543c:	e00c      	b.n	8005458 <z_abort_timeout+0x36>
				sys_clock_set_timeout(next_timeout(elapsed()), false);
 800543e:	f7fd ff59 	bl	80032f4 <elapsed>
 8005442:	f7ff ffd3 	bl	80053ec <next_timeout>
 8005446:	2100      	movs	r1, #0
 8005448:	f7fd f888 	bl	800255c <sys_clock_set_timeout>
			ret = 0;
 800544c:	4640      	mov	r0, r8
  __ASM volatile ("MSR basepri, %0" : : "r" (basePri) : "memory");
 800544e:	f387 8811 	msr	BASEPRI, r7
 8005452:	f3bf 8f6f 	isb	sy
	K_SPINLOCK(&timeout_lock) {
 8005456:	2401      	movs	r4, #1
 8005458:	46a0      	mov	r8, r4
 800545a:	b98c      	cbnz	r4, 8005480 <z_abort_timeout+0x5e>
	return node->next != NULL;
 800545c:	682b      	ldr	r3, [r5, #0]
		if (sys_dnode_is_linked(&to->node)) {
 800545e:	2b00      	cmp	r3, #0
 8005460:	d0f5      	beq.n	800544e <z_abort_timeout+0x2c>
			bool is_first = (to == first());
 8005462:	f7fd ff31 	bl	80032c8 <first>
 8005466:	4606      	mov	r6, r0
			remove_timeout(to);
 8005468:	4628      	mov	r0, r5
 800546a:	f7ff ffa8 	bl	80053be <remove_timeout>
			to->dticks = TIMEOUT_DTICKS_ABORTED;
 800546e:	2200      	movs	r2, #0
 8005470:	f04f 4300 	mov.w	r3, #2147483648	@ 0x80000000
 8005474:	e9c5 2304 	strd	r2, r3, [r5, #16]
			if (is_first) {
 8005478:	42ae      	cmp	r6, r5
 800547a:	d0e0      	beq.n	800543e <z_abort_timeout+0x1c>
			ret = 0;
 800547c:	4620      	mov	r0, r4
 800547e:	e7e6      	b.n	800544e <z_abort_timeout+0x2c>
}
 8005480:	e8bd 81f0 	ldmia.w	sp!, {r4, r5, r6, r7, r8, pc}
